
Optional file vector_offset_init.o not found
Archive member included to satisfy reference by file (symbol)

/opt/microchip/xc32/v3.01/bin/bin/../../lib/gcc/pic32mx/8.3.1/fpu64/libgcc.a(_udivdi3.o)
                              build/pic32mz2048efm/production/_ext/519320518/sys_time.o (__udivdi3)
/opt/microchip/xc32/v3.01/bin/bin/../../lib/gcc/pic32mx/8.3.1/../../../../pic32mx/lib/fpu64/libpic32.a(memcmp.o)
                              build/pic32mz2048efm/production/_ext/1044926641/drv_sdspi.o (memcmp)
/opt/microchip/xc32/v3.01/bin/bin/../../lib/gcc/pic32mx/8.3.1/../../../../pic32mx/lib/fpu64/libpic32.a(memcpy.o)
                              build/pic32mz2048efm/production/_ext/1545496361/diskio.o (memcpy)
/opt/microchip/xc32/v3.01/bin/bin/../../lib/gcc/pic32mx/8.3.1/../../../../pic32mx/lib/fpu64/libpic32.a(memset.o)
                              build/pic32mz2048efm/production/_ext/1044926641/drv_sdspi.o (memset)
/opt/microchip/xc32/v3.01/bin/bin/../../lib/gcc/pic32mx/8.3.1/../../../../pic32mx/lib/fpu64/libpic32.a(strcmp.o)
                              build/pic32mz2048efm/production/_ext/1538077638/sys_fs_media_manager.o (strcmp)
/opt/microchip/xc32/v3.01/bin/bin/../../lib/gcc/pic32mx/8.3.1/../../../../pic32mx/lib/fpu64/libpic32.a(strcpy.o)
                              build/pic32mz2048efm/production/_ext/1538077638/sys_fs.o (strcpy)
/opt/microchip/xc32/v3.01/bin/bin/../../lib/gcc/pic32mx/8.3.1/../../../../pic32mx/lib/fpu64/libpic32.a(strlen.o)
                              build/pic32mz2048efm/production/_ext/1538077638/sys_fs.o (strlen)
/opt/microchip/xc32/v3.01/bin/bin/../../lib/gcc/pic32mx/8.3.1/../../../../pic32mx/lib/fpu64/libpic32.a(default-on-reset.o)
                              /tmp/ccrPvX7l.o (_on_reset)
/opt/microchip/xc32/v3.01/bin/bin/../../lib/gcc/pic32mx/8.3.1/../../../../pic32mx/lib/fpu64/libpic32.a(default-on-bootstrap.o)
                              /tmp/ccrPvX7l.o (_on_bootstrap)
/opt/microchip/xc32/v3.01/bin/bin/../../lib/gcc/pic32mx/8.3.1/../../../../pic32mx/lib/fpu64/libpic32.a(default-nmi-handler.o)
                              /tmp/ccrPvX7l.o (_nmi_handler)
/opt/microchip/xc32/v3.01/bin/bin/../../lib/gcc/pic32mx/8.3.1/../../../../pic32mx/lib/fpu64/libpic32.a(pic32_data_init.o)
                              /tmp/ccrPvX7l.o (__pic32_data_init)
/opt/microchip/xc32/v3.01/bin/bin/../../lib/gcc/pic32mx/8.3.1/../../../../pic32mx/lib/fpu64/libpic32.a(pic32_init_cache.o)
                              /tmp/ccrPvX7l.o (__pic32_init_cache)
/opt/microchip/xc32/v3.01/bin/bin/../../lib/gcc/pic32mx/8.3.1/../../../../pic32mx/lib/fpu64/libpic32.a(pic32_init_tlb_ebi_sqi.o)
                              /tmp/ccrPvX7l.o (__pic32_tlb_init_ebi_sqi)
/opt/microchip/xc32/v3.01/bin/bin/../../lib/gcc/pic32mx/8.3.1/../../../../pic32mx/lib/fpu64/libpic32.a(general-exception.o)
                              /tmp/ccrPvX7l.o (_general_exception_context)
/opt/microchip/xc32/v3.01/bin/bin/../../lib/gcc/pic32mx/8.3.1/../../../../pic32mx/lib/fpu64/libpic32.a(cache-err-exception.o)
                              /tmp/ccrPvX7l.o (_cache_err_exception_context)
/opt/microchip/xc32/v3.01/bin/bin/../../lib/gcc/pic32mx/8.3.1/../../../../pic32mx/lib/fpu64/libpic32.a(simple-tlb-refill-exception.o)
                              /tmp/ccrPvX7l.o (_simple_tlb_refill_exception_context)
/opt/microchip/xc32/v3.01/bin/bin/../../lib/gcc/pic32mx/8.3.1/../../../../pic32mx/lib/fpu64/libpic32.a(defaultinterrupt.o)
                              /tmp/ccqBJATo.o (_DefaultInterrupt)
/opt/microchip/xc32/v3.01/bin/bin/../../lib/gcc/pic32mx/8.3.1/../../../../pic32mx/lib/fpu64/libc.a(_iob.o)
                              build/pic32mz2048efm/production/_ext/2011215161/initialization.o (_iob)
/opt/microchip/xc32/v3.01/bin/bin/../../lib/gcc/pic32mx/8.3.1/../../../../pic32mx/lib/fpu64/libc.a(malloc.o)
                              build/pic32mz2048efm/production/_ext/858502545/mpfit.o (malloc)
/opt/microchip/xc32/v3.01/bin/bin/../../lib/gcc/pic32mx/8.3.1/../../../../pic32mx/lib/fpu64/libc.a(memmove.o)
                              build/pic32mz2048efm/production/_ext/1545496361/diskio.o (memmove)
/opt/microchip/xc32/v3.01/bin/bin/../../lib/gcc/pic32mx/8.3.1/../../../../pic32mx/lib/fpu64/libc.a(puts.o)
                              build/pic32mz2048efm/production/_ext/858502545/mpfit.o (puts)
/opt/microchip/xc32/v3.01/bin/bin/../../lib/gcc/pic32mx/8.3.1/../../../../pic32mx/lib/fpu64/libc.a(setbuf.o)
                              build/pic32mz2048efm/production/_ext/2011215161/initialization.o (setbuf)
/opt/microchip/xc32/v3.01/bin/bin/../../lib/gcc/pic32mx/8.3.1/../../../../pic32mx/lib/fpu64/libc.a(strchr.o)
                              build/pic32mz2048efm/production/_ext/1360937237/nmea.o (strchr)
/opt/microchip/xc32/v3.01/bin/bin/../../lib/gcc/pic32mx/8.3.1/../../../../pic32mx/lib/fpu64/libc.a(strncmp.o)
                              build/pic32mz2048efm/production/_ext/1538077638/sys_fs.o (strncmp)
/opt/microchip/xc32/v3.01/bin/bin/../../lib/gcc/pic32mx/8.3.1/../../../../pic32mx/lib/fpu64/libc.a(strncpy.o)
                              build/pic32mz2048efm/production/_ext/1360937237/mdot.o (strncpy)
/opt/microchip/xc32/v3.01/bin/bin/../../lib/gcc/pic32mx/8.3.1/../../../../pic32mx/lib/fpu64/libc.a(strtol.o)
                              build/pic32mz2048efm/production/_ext/1360937237/nmea.o (strtol)
/opt/microchip/xc32/v3.01/bin/bin/../../lib/gcc/pic32mx/8.3.1/../../../../pic32mx/lib/fpu64/libc.a(printf_cdgGnopsuxX.eo)
                              build/pic32mz2048efm/production/_ext/858502545/mpfit.o (_printf_cdgGnopsuxX)
/opt/microchip/xc32/v3.01/bin/bin/../../lib/gcc/pic32mx/8.3.1/../../../../pic32mx/lib/fpu64/libc.a(sprintf_cdnopsuxX.eo)
                              build/pic32mz2048efm/production/_ext/1360937237/mdot.o (_sprintf_cdnopsuxX)
/opt/microchip/xc32/v3.01/bin/bin/../../lib/gcc/pic32mx/8.3.1/../../../../pic32mx/lib/fpu64/libc.a(sprintf_fF.eo)
                              build/pic32mz2048efm/production/_ext/1360937237/app.o (_sprintf_fF)
/opt/microchip/xc32/v3.01/bin/bin/../../lib/gcc/pic32mx/8.3.1/../../../../pic32mx/lib/fpu64/libc.a(_fputc_simple.o)
                              /opt/microchip/xc32/v3.01/bin/bin/../../lib/gcc/pic32mx/8.3.1/../../../../pic32mx/lib/fpu64/libc.a(puts.o) (fputc)
/opt/microchip/xc32/v3.01/bin/bin/../../lib/gcc/pic32mx/8.3.1/../../../../pic32mx/lib/fpu64/libc.a(buf.o)
                              /opt/microchip/xc32/v3.01/bin/bin/../../lib/gcc/pic32mx/8.3.1/../../../../pic32mx/lib/fpu64/libc.a(setbuf.o) (_bufallo)
/opt/microchip/xc32/v3.01/bin/bin/../../lib/gcc/pic32mx/8.3.1/../../../../pic32mx/lib/fpu64/libc.a(ctype.o)
                              /opt/microchip/xc32/v3.01/bin/bin/../../lib/gcc/pic32mx/8.3.1/../../../../pic32mx/lib/fpu64/libc.a(strtol.o) (_ctype)
/opt/microchip/xc32/v3.01/bin/bin/../../lib/gcc/pic32mx/8.3.1/../../../../pic32mx/lib/fpu64/libc.a(ctypef.o)
                              /opt/microchip/xc32/v3.01/bin/bin/../../lib/gcc/pic32mx/8.3.1/../../../../pic32mx/lib/fpu64/libc.a(strtol.o) (toupper)
/opt/microchip/xc32/v3.01/bin/bin/../../lib/gcc/pic32mx/8.3.1/../../../../pic32mx/lib/fpu64/libc.a(errno.o)
                              /opt/microchip/xc32/v3.01/bin/bin/../../lib/gcc/pic32mx/8.3.1/../../../../pic32mx/lib/fpu64/libc.a(strtol.o) (errno)
/opt/microchip/xc32/v3.01/bin/bin/../../lib/gcc/pic32mx/8.3.1/../../../../pic32mx/lib/fpu64/libc.a(doprnt_cdgGnopsuxX.eo)
                              /opt/microchip/xc32/v3.01/bin/bin/../../lib/gcc/pic32mx/8.3.1/../../../../pic32mx/lib/fpu64/libc.a(printf_cdgGnopsuxX.eo) (_vfprintf_cdgGnopsuxX)
/opt/microchip/xc32/v3.01/bin/bin/../../lib/gcc/pic32mx/8.3.1/../../../../pic32mx/lib/fpu64/libc.a(doprnt_cdnopsuxX.eo)
                              /opt/microchip/xc32/v3.01/bin/bin/../../lib/gcc/pic32mx/8.3.1/../../../../pic32mx/lib/fpu64/libc.a(sprintf_cdnopsuxX.eo) (_vfprintf_cdnopsuxX)
/opt/microchip/xc32/v3.01/bin/bin/../../lib/gcc/pic32mx/8.3.1/../../../../pic32mx/lib/fpu64/libc.a(doprnt_fF.eo)
                              /opt/microchip/xc32/v3.01/bin/bin/../../lib/gcc/pic32mx/8.3.1/../../../../pic32mx/lib/fpu64/libc.a(sprintf_fF.eo) (_vfprintf_fF)
/opt/microchip/xc32/v3.01/bin/bin/../../lib/gcc/pic32mx/8.3.1/../../../../pic32mx/lib/fpu64/libc.a(_flsbuf_simple.o)
                              /opt/microchip/xc32/v3.01/bin/bin/../../lib/gcc/pic32mx/8.3.1/../../../../pic32mx/lib/fpu64/libc.a(_fputc_simple.o) (_flsbuf)
/opt/microchip/xc32/v3.01/bin/bin/../../lib/gcc/pic32mx/8.3.1/../../../../pic32mx/lib/fpu64/libc.a(ldpowers.o)
                              /opt/microchip/xc32/v3.01/bin/bin/../../lib/gcc/pic32mx/8.3.1/../../../../pic32mx/lib/fpu64/libc.a(doprnt_cdgGnopsuxX.eo) (_npowers_)
/opt/microchip/xc32/v3.01/bin/bin/../../lib/gcc/pic32mx/8.3.1/../../../../pic32mx/lib/fpu64/libmfd.a(s_cos.o)
                              build/pic32mz2048efm/production/_ext/858502545/figaro_gpr_fit.o (_cosx)
/opt/microchip/xc32/v3.01/bin/bin/../../lib/gcc/pic32mx/8.3.1/../../../../pic32mx/lib/fpu64/libmfd.a(s_fabs.o)
                              build/pic32mz2048efm/production/_ext/858502545/mpfit.o (_fabsx)
/opt/microchip/xc32/v3.01/bin/bin/../../lib/gcc/pic32mx/8.3.1/../../../../pic32mx/lib/fpu64/libmfd.a(s_frexp.o)
                              /opt/microchip/xc32/v3.01/bin/bin/../../lib/gcc/pic32mx/8.3.1/../../../../pic32mx/lib/fpu64/libc.a(doprnt_cdgGnopsuxX.eo) (_frexpx)
/opt/microchip/xc32/v3.01/bin/bin/../../lib/gcc/pic32mx/8.3.1/../../../../pic32mx/lib/fpu64/libmfd.a(s_sin.o)
                              build/pic32mz2048efm/production/_ext/858502545/figaro_gpr_fit.o (_sinx)
/opt/microchip/xc32/v3.01/bin/bin/../../lib/gcc/pic32mx/8.3.1/../../../../pic32mx/lib/fpu64/libmfd.a(w_atan2.o)
                              build/pic32mz2048efm/production/_ext/1230022092/BodyImpedance.o (_atan2x)
/opt/microchip/xc32/v3.01/bin/bin/../../lib/gcc/pic32mx/8.3.1/../../../../pic32mx/lib/fpu64/libmfd.a(w_exp.o)
                              build/pic32mz2048efm/production/_ext/858502545/figaro_gpr_fit.o (_expx)
/opt/microchip/xc32/v3.01/bin/bin/../../lib/gcc/pic32mx/8.3.1/../../../../pic32mx/lib/fpu64/libmfd.a(w_log.o)
                              build/pic32mz2048efm/production/_ext/858502545/figaro_gpr_fit.o (_logx)
/opt/microchip/xc32/v3.01/bin/bin/../../lib/gcc/pic32mx/8.3.1/../../../../pic32mx/lib/fpu64/libmfd.a(w_log10.o)
                              build/pic32mz2048efm/production/_ext/1230022092/ad5940.o (_log10x)
/opt/microchip/xc32/v3.01/bin/bin/../../lib/gcc/pic32mx/8.3.1/../../../../pic32mx/lib/fpu64/libmfd.a(w_pow.o)
                              build/pic32mz2048efm/production/_ext/858502545/figaro_gpr_fit.o (_powx)
/opt/microchip/xc32/v3.01/bin/bin/../../lib/gcc/pic32mx/8.3.1/../../../../pic32mx/lib/fpu64/libmfd.a(pic32_w_sqrt.o)
                              build/pic32mz2048efm/production/_ext/858502545/figaro_gpr_fit.o (_sqrtx)
/opt/microchip/xc32/v3.01/bin/bin/../../lib/gcc/pic32mx/8.3.1/../../../../pic32mx/lib/fpu64/libmfd.a(sqrtfd.o)
                              /opt/microchip/xc32/v3.01/bin/bin/../../lib/gcc/pic32mx/8.3.1/../../../../pic32mx/lib/fpu64/libmfd.a(pic32_w_sqrt.o) (_sqrtfd)
/opt/microchip/xc32/v3.01/bin/bin/../../lib/gcc/pic32mx/8.3.1/../../../../pic32mx/lib/fpu64/libmfd.a(strtod.o)
                              build/pic32mz2048efm/production/_ext/1360937237/nmea.o (strtod)
/opt/microchip/xc32/v3.01/bin/bin/../../lib/gcc/pic32mx/8.3.1/../../../../pic32mx/lib/fpu64/libmfd.a(e_atan2.o)
                              /opt/microchip/xc32/v3.01/bin/bin/../../lib/gcc/pic32mx/8.3.1/../../../../pic32mx/lib/fpu64/libmfd.a(w_atan2.o) (__ieee754_atan2)
/opt/microchip/xc32/v3.01/bin/bin/../../lib/gcc/pic32mx/8.3.1/../../../../pic32mx/lib/fpu64/libmfd.a(e_exp.o)
                              /opt/microchip/xc32/v3.01/bin/bin/../../lib/gcc/pic32mx/8.3.1/../../../../pic32mx/lib/fpu64/libmfd.a(w_exp.o) (__ieee754_exp)
/opt/microchip/xc32/v3.01/bin/bin/../../lib/gcc/pic32mx/8.3.1/../../../../pic32mx/lib/fpu64/libmfd.a(e_log.o)
                              /opt/microchip/xc32/v3.01/bin/bin/../../lib/gcc/pic32mx/8.3.1/../../../../pic32mx/lib/fpu64/libmfd.a(w_log.o) (__ieee754_log)
/opt/microchip/xc32/v3.01/bin/bin/../../lib/gcc/pic32mx/8.3.1/../../../../pic32mx/lib/fpu64/libmfd.a(e_log10.o)
                              /opt/microchip/xc32/v3.01/bin/bin/../../lib/gcc/pic32mx/8.3.1/../../../../pic32mx/lib/fpu64/libmfd.a(w_log10.o) (__ieee754_log10)
/opt/microchip/xc32/v3.01/bin/bin/../../lib/gcc/pic32mx/8.3.1/../../../../pic32mx/lib/fpu64/libmfd.a(e_pow.o)
                              /opt/microchip/xc32/v3.01/bin/bin/../../lib/gcc/pic32mx/8.3.1/../../../../pic32mx/lib/fpu64/libmfd.a(w_pow.o) (__ieee754_pow)
/opt/microchip/xc32/v3.01/bin/bin/../../lib/gcc/pic32mx/8.3.1/../../../../pic32mx/lib/fpu64/libmfd.a(e_rem_pio2.o)
                              /opt/microchip/xc32/v3.01/bin/bin/../../lib/gcc/pic32mx/8.3.1/../../../../pic32mx/lib/fpu64/libmfd.a(s_cos.o) (__ieee754_rem_pio2)
/opt/microchip/xc32/v3.01/bin/bin/../../lib/gcc/pic32mx/8.3.1/../../../../pic32mx/lib/fpu64/libmfd.a(k_cos.o)
                              /opt/microchip/xc32/v3.01/bin/bin/../../lib/gcc/pic32mx/8.3.1/../../../../pic32mx/lib/fpu64/libmfd.a(s_cos.o) (__kernel_cos)
/opt/microchip/xc32/v3.01/bin/bin/../../lib/gcc/pic32mx/8.3.1/../../../../pic32mx/lib/fpu64/libmfd.a(k_sin.o)
                              /opt/microchip/xc32/v3.01/bin/bin/../../lib/gcc/pic32mx/8.3.1/../../../../pic32mx/lib/fpu64/libmfd.a(s_cos.o) (__kernel_sin)
/opt/microchip/xc32/v3.01/bin/bin/../../lib/gcc/pic32mx/8.3.1/../../../../pic32mx/lib/fpu64/libmfd.a(k_standard.o)
                              /opt/microchip/xc32/v3.01/bin/bin/../../lib/gcc/pic32mx/8.3.1/../../../../pic32mx/lib/fpu64/libmfd.a(w_atan2.o) (__kernel_standard)
/opt/microchip/xc32/v3.01/bin/bin/../../lib/gcc/pic32mx/8.3.1/../../../../pic32mx/lib/fpu64/libmfd.a(s_atan.o)
                              /opt/microchip/xc32/v3.01/bin/bin/../../lib/gcc/pic32mx/8.3.1/../../../../pic32mx/lib/fpu64/libmfd.a(e_atan2.o) (_atanx)
/opt/microchip/xc32/v3.01/bin/bin/../../lib/gcc/pic32mx/8.3.1/../../../../pic32mx/lib/fpu64/libmfd.a(s_rint.o)
                              /opt/microchip/xc32/v3.01/bin/bin/../../lib/gcc/pic32mx/8.3.1/../../../../pic32mx/lib/fpu64/libmfd.a(k_standard.o) (rint)
/opt/microchip/xc32/v3.01/bin/bin/../../lib/gcc/pic32mx/8.3.1/../../../../pic32mx/lib/fpu64/libmfd.a(s_scalbn.o)
                              /opt/microchip/xc32/v3.01/bin/bin/../../lib/gcc/pic32mx/8.3.1/../../../../pic32mx/lib/fpu64/libmfd.a(e_pow.o) (scalbn)
/opt/microchip/xc32/v3.01/bin/bin/../../lib/gcc/pic32mx/8.3.1/fpu64/libgcc.a(_lshrdi3.o)
                              /opt/microchip/xc32/v3.01/bin/bin/../../lib/gcc/pic32mx/8.3.1/../../../../pic32mx/lib/fpu64/libc.a(doprnt_cdgGnopsuxX.eo) (__lshrdi3)
/opt/microchip/xc32/v3.01/bin/bin/../../lib/gcc/pic32mx/8.3.1/fpu64/libgcc.a(_cmpdi2.o)
                              /opt/microchip/xc32/v3.01/bin/bin/../../lib/gcc/pic32mx/8.3.1/../../../../pic32mx/lib/fpu64/libc.a(doprnt_cdgGnopsuxX.eo) (__cmpdi2)
/opt/microchip/xc32/v3.01/bin/bin/../../lib/gcc/pic32mx/8.3.1/fpu64/libgcc.a(_umoddi3.o)
                              /opt/microchip/xc32/v3.01/bin/bin/../../lib/gcc/pic32mx/8.3.1/../../../../pic32mx/lib/fpu64/libc.a(doprnt_cdgGnopsuxX.eo) (__umoddi3)
/opt/microchip/xc32/v3.01/bin/bin/../../lib/gcc/pic32mx/8.3.1/../../../../pic32mx/lib/fpu64/libpic32.a(sbrk.o)
                              /opt/microchip/xc32/v3.01/bin/bin/../../lib/gcc/pic32mx/8.3.1/../../../../pic32mx/lib/fpu64/libc.a(malloc.o) (sbrk)
/opt/microchip/xc32/v3.01/bin/bin/../../lib/gcc/pic32mx/8.3.1/../../../../pic32mx/lib/fpu64/libpic32.a(write.o)
                              /opt/microchip/xc32/v3.01/bin/bin/../../lib/gcc/pic32mx/8.3.1/../../../../pic32mx/lib/fpu64/libc.a(_fputc_simple.o) (write)

Microchip PIC32 Memory-Usage Report

kseg0 Program-Memory Usage
section                    address  length [bytes]      (dec)  Description
-------                 ----------  -------------------------  -----------
.simple_tlb_refill_excp 0x9d001000           0x10          16   
.text.RTCC_TimeGet      0x9d001010           0xf0         240   
.cache_err_excpt        0x9d001100           0x10          16   
.text._USB_DEVICE_CDC_D 0x9d001110           0x70         112   
.app_excpt              0x9d001180           0x10          16  General-Exception 
.text.getRollAve        0x9d001190           0x70         112   
.vectors                0x9d001200          0x140         320   
.dinit                  0x9d001340         0xdf80       57216   
.text.mpfit             0x9d00f2c0         0x45a0       17824   
.text.DRV_SDSPI_Tasks   0x9d013860         0x2bcc       11212   
.text._vfprintf_cdgGnop 0x9d01642c         0x16a4        5796   
.text._vfprintf_fF      0x9d017ad0          0xecc        3788   
.text._DRV_SDSPI_Comman 0x9d01899c          0xdbc        3516   
.text.f_mkfs            0x9d019758          0xbc4        3012   
.text._DRV_USBHS_DEVICE 0x9d01a31c          0x9b4        2484   
.text.__ieee754_pow     0x9d01acd0          0x988        2440   
.text._vfprintf_cdnopsu 0x9d01b658          0x8cc        2252   
.text.__kernel_standard 0x9d01bf24          0x804        2052   
.text.AppBIAInit        0x9d01c728          0x7b4        1972   
.text.SYS_FS_MEDIA_MANA 0x9d01cedc          0x6cc        1740   
.text                   0x9d01d5a8          0x6bc        1724  App's exec code 
.text.AD5940_HSRtiaCal  0x9d01dc64          0x680        1664   
.text.follow_path       0x9d01e2e4          0x670        1648   
.text.mount_volume      0x9d01e954          0x58c        1420   
.text.DRV_USBHS_Tasks   0x9d01eee0          0x568        1384   
.text.DRV_USBHS_DEVICE_ 0x9d01f448          0x510        1296   
.text.f_printf          0x9d01f958          0x4fc        1276   
.text.I2C2_MASTER_Inter 0x9d01fe54          0x4b4        1204   
.text.I2C4_MASTER_Inter 0x9d020308          0x4b4        1204   
.text.dir_register      0x9d0207bc          0x448        1096   
.text._DRV_USBHS_Proces 0x9d020c04          0x43c        1084   
.text                   0x9d021040          0x3f8        1016  App's exec code 
.text.f_open            0x9d021438          0x3f0        1008   
.text                   0x9d021828          0x3ec        1004  App's exec code 
.text.DRV_USBHS_DEVICE_ 0x9d021c14          0x3e8        1000   
.text.mDotCommand       0x9d021ffc          0x3bc         956   
.rodata                 0x9d0223b8          0x3b0         944  Read-only const 
.text.AD5940_ClksCalcul 0x9d022768          0x38c         908   
.text.__ieee754_rem_pio 0x9d022af4          0x34c         844   
.text.GPIO_Initialize   0x9d022e40          0x338         824   
.text.I2C2TASKS_Tasks   0x9d023178          0x330         816   
.text.DRV_SDSPI_SetupXf 0x9d0234a8          0x32c         812   
.text.f_write           0x9d0237d4          0x328         808   
.text.SPI4_RX_Interrupt 0x9d023afc          0x324         804   
.text.SPI5_RX_Interrupt 0x9d023e20          0x324         804   
.text.SPI2_RX_Interrupt 0x9d024144          0x324         804   
.text.SPI1_RX_Interrupt 0x9d024468          0x324         804   
.text.SPI4_WriteRead    0x9d02478c          0x310         784   
.text.DRV_SPI_WriteRead 0x9d024a9c          0x304         772   
.text.AppBIAISR         0x9d024da0          0x300         768   
.text.strtod            0x9d0250a0          0x300         768   
.text.SYS_FS_MEDIA_MANA 0x9d0253a0          0x2f8         760   
.text.f_lseek           0x9d025698          0x2f0         752   
.text.dir_find          0x9d025988          0x2e0         736   
.text.figaro_r_mox_func 0x9d025c68          0x2d0         720   
.text.parseNMEAstring   0x9d025f38          0x2cc         716   
.text.__ieee754_atan2   0x9d026204          0x2cc         716   
.text.get_fileinfo      0x9d0264d0          0x2c0         704   
.text.__ieee754_exp     0x9d026790          0x2c0         704   
.text.f_setlabel        0x9d026a50          0x2bc         700   
.text.f_read            0x9d026d0c          0x2b8         696   
.text.measurement2Bytes 0x9d026fc4          0x2b8         696   
.text.__ieee754_log     0x9d02727c          0x2b0         688   
.text._atanx            0x9d02752c          0x2b0         688   
.text.mDotTasks         0x9d0277dc          0x298         664   
.text._DRV_USBHS_DEVICE 0x9d027a74          0x294         660   
.text.create_partition  0x9d027d08          0x290         656   
.text.DRV_USBHS_DEVICE_ 0x9d027f98          0x270         624   
.text.DRV_USBHS_DEVICE_ 0x9d028208          0x26c         620   
.text.dir_read          0x9d028474          0x258         600   
.rodata.str1.4          0x9d0286cc            0x4           4   
.rodata                 0x9d0286d0          0x258         600  Read-only const 
.text.mp_enorm          0x9d028928          0x254         596   
.text.createMeasurement 0x9d028b7c          0x250         592   
.text.USB_DEVICE_Tasks  0x9d028dcc          0x248         584   
.text.f_getcwd          0x9d029014          0x244         580   
.text._USB_DEVICE_Contr 0x9d029258          0x230         560   
.text.uart2_comTasks    0x9d029488          0x230         560   
.text.create_chain      0x9d0296b8          0x22c         556   
.text._powx             0x9d0298e4          0x228         552   
.text.malloc            0x9d029b0c          0x224         548   
.text.DRV_USBHS_DEVICE_ 0x9d029d30          0x220         544   
.text._USB_DEVICE_Proce 0x9d029f50          0x220         544   
.text.RTCC_TimeSet      0x9d02a170          0x218         536   
.text._USB_DEVICE_Other 0x9d02a388          0x214         532   
.text._USB_DEVICE_Proce 0x9d02a59c          0x20c         524   
.text.AD5940_SweepNext  0x9d02a7a8          0x20c         524   
.text.put_fat           0x9d02a9b4          0x208         520   
.text.disk_write        0x9d02abbc          0x208         520   
.text.DRV_USBHS_DEVICE_ 0x9d02adc4          0x1f4         500   
.text.f_mkdir           0x9d02afb8          0x1f0         496   
.text.disk_read         0x9d02b1a8          0x1f0         496   
.text.AppBIACtrl        0x9d02b398          0x1f0         496   
.text.RTCC_AlarmSet     0x9d02b588          0x1ec         492   
.text.SYS_TIME_PLIBCall 0x9d02b774          0x1e0         480   
.text.strtoul           0x9d02b954          0x1d8         472   
.rodata                 0x9d02bb2c          0x1d4         468  Read-only const 
.text.f_rename          0x9d02bd00          0x1d0         464   
.text.TIMER_2_Handler   0x9d02bed0          0x1d0         464   
.text.TIMER_3_Handler   0x9d02c0a0          0x1d0         464   
.text.SPI1_RX_Handler   0x9d02c270          0x1d0         464   
.text.SPI1_TX_Handler   0x9d02c440          0x1d0         464   
.text.UART1_FAULT_Handl 0x9d02c610          0x1d0         464   
.text.UART1_RX_Handler  0x9d02c7e0          0x1d0         464   
.text.UART1_TX_Handler  0x9d02c9b0          0x1d0         464   
.text.CHANGE_NOTICE_B_H 0x9d02cb80          0x1d0         464   
.text.CHANGE_NOTICE_J_H 0x9d02cd50          0x1d0         464   
.text.USB_Handler       0x9d02cf20          0x1d0         464   
.text.USB_DMA_Handler   0x9d02d0f0          0x1d0         464   
.text.SPI2_RX_Handler   0x9d02d2c0          0x1d0         464   
.text.SPI2_TX_Handler   0x9d02d490          0x1d0         464   
.text.UART2_FAULT_Handl 0x9d02d660          0x1d0         464   
.text.UART2_RX_Handler  0x9d02d830          0x1d0         464   
.text.UART2_TX_Handler  0x9d02da00          0x1d0         464   
.text.I2C2_BUS_Handler  0x9d02dbd0          0x1d0         464   
.text.I2C2_MASTER_Handl 0x9d02dda0          0x1d0         464   
.text.UART3_FAULT_Handl 0x9d02df70          0x1d0         464   
.text.UART3_RX_Handler  0x9d02e140          0x1d0         464   
.text.UART3_TX_Handler  0x9d02e310          0x1d0         464   
.text.SPI4_RX_Handler   0x9d02e4e0          0x1d0         464   
.text.SPI4_TX_Handler   0x9d02e6b0          0x1d0         464   
.text.RTCC_Handler      0x9d02e880          0x1d0         464   
.text.I2C4_BUS_Handler  0x9d02ea50          0x1d0         464   
.text.I2C4_MASTER_Handl 0x9d02ec20          0x1d0         464   
.text.SPI5_RX_Handler   0x9d02edf0          0x1d0         464   
.text.SPI5_TX_Handler   0x9d02efc0          0x1d0         464   
.text.UART6_FAULT_Handl 0x9d02f190          0x1d0         464   
.text.UART6_RX_Handler  0x9d02f360          0x1d0         464   
.text.UART6_TX_Handler  0x9d02f530          0x1d0         464   
.text.DRV_USBHS_DEVICE_ 0x9d02f700          0x1c4         452   
.text.AD5940_Notch50HzA 0x9d02f8c4          0x1c0         448   
.text.APP_Tasks         0x9d02fa84          0x1c0         448   
.text.uart6_comTasks    0x9d02fc44          0x1b8         440   
.text._DRV_SPI_PlibCall 0x9d02fdfc          0x1b4         436   
.text.DRV_SPI_Lock      0x9d02ffb0          0x1b4         436   
.text.f_getfree         0x9d030164          0x1b0         432   
.text.unixTimestamp     0x9d030314          0x1b0         432   
.text.AD5940_WUPTCfg    0x9d0304c4          0x1ac         428   
.text.AD5940_CLKCfg     0x9d030670          0x1ac         428   
.rodata                 0x9d03081c          0x1a8         424  Read-only const 
.text.DRV_SDSPI_Initial 0x9d0309c4          0x1a4         420   
.text                   0x9d030b68          0x1a0         416  App's exec code 
.text.DRV_SPI_Open      0x9d030d08          0x19c         412   
.text.dir_next          0x9d030ea4          0x194         404   
.text.check_fs          0x9d031038          0x194         404   
.rodata                 0x9d0311cc          0x194         404  Read-only const 
.text._USB_DEVICE_Ep0Re 0x9d031360          0x190         400   
.text.pressureTasks     0x9d0314f0          0x190         400   
.text.AD5940_Notch60HzA 0x9d031680          0x188         392   
.text.rint              0x9d031808          0x188         392   
.text.get_fat           0x9d031990          0x184         388   
.text.SYS_Initialize    0x9d031b14          0x184         388   
.text.DRV_SDSPI_Open    0x9d031c98          0x178         376   
.text.__kernel_cos      0x9d031e10          0x174         372   
.text._USB_DEVICE_CDC_A 0x9d031f84          0x170         368   
.text.SPI4_TX_Interrupt 0x9d0320f4          0x16c         364   
.text.SPI5_TX_Interrupt 0x9d032260          0x16c         364   
.text.SPI2_TX_Interrupt 0x9d0323cc          0x16c         364   
.text.SPI1_TX_Interrupt 0x9d032538          0x16c         364   
.text.dir_sdi           0x9d0326a4          0x16c         364   
.text                   0x9d032810          0x2d0         720  App's exec code 
.text.our_scalbn        0x9d032ae0          0x168         360   
.text.DRV_USBHS_DEVICE_ 0x9d032c48          0x164         356   
.rodata                 0x9d032db0          0x160         352  Read-only const 
.text.f_truncate        0x9d032f10          0x15c         348   
.text.USB_DEVICE_Initia 0x9d03306c          0x15c         348   
.text.DRV_SDSPI_Close   0x9d0331c8          0x158         344   
.text.scale             0x9d033320          0x2b0         688   
.text._USB_DEVICE_CDC_I 0x9d0335d0          0x154         340   
.text.AD5940_HSTIACfgS  0x9d033724          0x154         340   
.text.BIAShowResult     0x9d033878          0x154         340   
.text._sbrk_init        0x9d0339cc          0x154         340   
.text.predFigaroGPR     0x9d033b20          0x150         336   
.text.f_unlink          0x9d033c70          0x148         328   
.text.DRV_USBHS_Tasks_I 0x9d033db8          0x144         324   
.rodata                 0x9d033efc          0x140         320  Read-only const 
.text.ff_wtoupper       0x9d03403c          0x140         320   
.text.f_getlabel        0x9d03417c          0x13c         316   
.text._DRV_SPI_UpdateTr 0x9d0342b8          0x138         312   
.text.inc_lock          0x9d0343f0          0x138         312   
.text.AD5940_WriteReg   0x9d034528          0x138         312   
.text.strtol            0x9d034660          0x138         312   
.text.FATFS_open        0x9d034798          0x134         308   
.text.SYS_TIME_TimerObj 0x9d0348cc          0x130         304   
.text.AD5940_FIFORd     0x9d0349fc          0x12c         300   
.text.AD5940_REFCfgS    0x9d034b28          0x128         296   
.text.fputc             0x9d034c50          0x128         296   
.text._DRV_USBHS_DEVICE 0x9d034d78          0x124         292   
.text.remove_chain      0x9d034e9c          0x120         288   
.rodata.str1.4          0x9d034fbc          0x120         288   
.text.setUart2Device    0x9d0350dc          0x118         280   
.text.__ieee754_log10   0x9d0351f4          0x118         280   
.text.DRV_SPI_TransferS 0x9d03530c          0x110         272   
.text.UART6_RX_Interrup 0x9d03541c          0x110         272   
.text.UART3_RX_Interrup 0x9d03552c          0x110         272   
.text.UART1_RX_Interrup 0x9d03563c          0x110         272   
.text.UART2_RX_Interrup 0x9d03574c          0x110         272   
.text.f_opendir         0x9d03585c          0x110         272   
.text._sinx             0x9d03596c          0x110         272   
.text._USB_DEVICE_Confi 0x9d035a7c          0x10c         268   
.text._flsbuf           0x9d035b88          0x10c         268   
.text.f_sync            0x9d035c94          0x108         264   
.text._cosx             0x9d035d9c          0x108         264   
.text._USB_DEVICE_CDC_C 0x9d035ea4          0x104         260   
.rodata                 0x9d035fa8          0x104         260  Read-only const 
.text.UART6_TX_Interrup 0x9d0360ac          0x100         256   
.text.UART3_TX_Interrup 0x9d0361ac          0x100         256   
.text.UART1_TX_Interrup 0x9d0362ac          0x100         256   
.text.UART2_TX_Interrup 0x9d0363ac          0x100         256   
.text._USB_DEVICE_Proce 0x9d0364ac          0x100         256   
.text.AD5940_WGCfgS     0x9d0365ac          0x100         256   
.rodata.cst8            0x9d0366b0           0xf8         248   
.text.AD5940_WGFreqWord 0x9d0367a8           0xf4         244   
.text.AD5940MAIN_Tasks  0x9d03689c           0xf0         240   
.text._DRV_SPI_Resource 0x9d03698c           0xec         236   
.text.DRV_SPI_Initializ 0x9d036a78           0xec         236   
.text.EVIC_Initialize   0x9d036b64           0xec         236   
.text.FATFS_unmount     0x9d036c50           0xec         236   
.text.FATFS_opendir     0x9d036d3c           0xe8         232   
.text.SYS_TIME_AddToLis 0x9d036e24           0xe8         232   
.text.figaro_r_mox_func 0x9d036f0c           0xe8         232   
.text.DRV_USBHS_Tasks_I 0x9d036ff4           0xe4         228   
.text.sync_fs           0x9d0370d8           0xe4         228   
.text.AD5940_SEQInfoCfg 0x9d0371bc           0xe4         228   
.text.AD5940PlatformCfg 0x9d0372a0           0xe4         228   
.text._DRV_SPI_Resource 0x9d037384           0xe0         224   
.text.timeKeepingTasks  0x9d037464           0xe0         224   
.text.setvbuf           0x9d037544           0xe0         224   
.text.SYS_FS_MEDIA_MANA 0x9d037624           0xdc         220   
.text.AD5940_Initialize 0x9d037700           0xdc         220   
.text.general_exception 0x9d0377dc           0xdc         220   
.text.figaro_mox_func   0x9d0378b8           0xd8         216   
.text._cache_err_except 0x9d037990           0xd8         216   
.text.simple_tlb_refill 0x9d037a68           0xd8         216   
.rodata                 0x9d037b40           0xd4         212  Read-only const 
.text.GPIO_PinIntEnable 0x9d037c14           0xd0         208   
.text._USB_DEVICE_GetSt 0x9d037ce4           0xd0         208   
.text.SPI4_TransferSetu 0x9d037db4           0xcc         204   
.text.FATFS_mount       0x9d037e80           0xcc         204   
.text._DRV_USBHS_DEVICE 0x9d037f4c           0xc8         200   
.rodata.cst8            0x9d038018           0xc8         200   
.text.DRV_USBHS_Initial 0x9d0380e0           0xc4         196   
.text.SYS_FS_Initialize 0x9d0381a4           0xc4         196   
.text.fround            0x9d038268           0xc4         196   
.text._expx             0x9d03832c           0xc4         196   
.text.__kernel_sin      0x9d0383f0           0xc4         196   
.text.DRV_USBHS_Open    0x9d0384b4           0xc0         192   
.text.DRV_USBHS_ClientE 0x9d038574           0xc0         192   
.text.CLK_Initialize    0x9d038634           0xc0         192   
.text.dir_alloc         0x9d0386f4           0xc0         192   
.text.dir_remove        0x9d0387b4           0xc0         192   
.text.f_mount           0x9d038874           0xc0         192   
.text.SYS_TIME_Initiali 0x9d038934           0xc0         192   
.text._USB_DEVICE_Ep0Tr 0x9d0389f4           0xc0         192   
.rodata.str1.4          0x9d038ab4           0xc0         192   
.text.UART6_Write       0x9d038b74           0xbc         188   
.text.UART2_Write       0x9d038c30           0xbc         188   
.text.dir_clear         0x9d038cec           0xbc         188   
.text.f_gets            0x9d038da8           0xbc         188   
.text.disk_checkCommand 0x9d038e64           0xbc         188   
.text.AD5940_LPDACCfgS  0x9d038f20           0xbc         188   
.text.AD5940_HFOSC32MHz 0x9d038fdc           0xbc         188   
.tlb.__pic32_tlb_init_e 0x9d039098           0xbc         188   
.text.DRV_SDSPI_Command 0x9d039154           0xb8         184   
.text.GPIO_PinInterrupt 0x9d03920c           0xb8         184   
.text._DRV_SDSPI_Driver 0x9d0392c4           0xb4         180   
.text.chk_lock          0x9d039378           0xb4         180   
.text.sync_window       0x9d03942c           0xb4         180   
.text.f_chdir           0x9d0394e0           0xb4         180   
.text._USB_DEVICE_DeIni 0x9d039594           0xb4         180   
.text.AD5940_LPAMPCfgS  0x9d039648           0xb4         180   
.text.AD5940_SEQCfg     0x9d0396fc           0xb4         180   
.text._sbrk             0x9d0397b0           0xb0         176   
.text.f_chmod           0x9d039860           0xac         172   
.text.SYS_TIME_Callback 0x9d03990c           0xac         172   
.text.CHANGE_NOTICE_J_I 0x9d0399b8           0xa8         168   
.text.pop               0x9d039a60           0xa8         168   
.text                   0x9d039b08           0xa8         168  App's exec code 
.text.AD5940_AFECtrlS   0x9d039bb0           0xa4         164   
.text.AD5940_ADCFilterC 0x9d039c54           0xa4         164   
.text.validate          0x9d039cf8           0xa0         160   
.text._USB_DEVICE_Forwa 0x9d039d98           0xa0         160   
.text.AD5940_ReadWriteN 0x9d039e38           0xa0         160   
.rodata                 0x9d039ed8          0x140         320  Read-only const 
.rodata                 0x9d03a018           0xa0         160  Read-only const 
.text.f_utime           0x9d03a0b8           0x9c         156   
.text.figaro_r_t_rh_cal 0x9d03a154           0x9c         156   
.text._DRV_USBHS_DEVICE 0x9d03a1f0           0x98         152   
.text.uart6_counters    0x9d03a288           0x98         152   
.text.sendStringU6      0x9d03a320           0x98         152   
.text.push              0x9d03a3b8           0x98         152   
.text                   0x9d03a450           0x98         152  App's exec code 
.text._frexpx           0x9d03a4e8           0x98         152   
.text._DRV_SDSPI_SPIWri 0x9d03a580           0x94         148   
.text.f_readdir         0x9d03a614           0x94         148   
.text.SYS_TIME_TimerSta 0x9d03a6a8           0x94         148   
.text.AD5940_ReadReg    0x9d03a73c           0x94         148   
.text.cyclicCallback    0x9d03a7d0           0x94         148   
.text.sendMeasurementGA 0x9d03a864           0x94         148   
.text.getDOW            0x9d03a8f8           0x94         148   
.text.UART6_Read        0x9d03a98c           0x90         144   
.text.UART2_Read        0x9d03aa1c           0x90         144   
.text.putc_bfd          0x9d03aaac           0x90         144   
.rodata.cst8            0x9d03ab40           0x90         144   
.text.getGPStime        0x9d03abd0           0x90         144   
.rodata.cst8            0x9d03ac60           0x90         144   
.text.I2C2_WriteRead    0x9d03acf0           0x8c         140   
.text.SPI4_Initialize   0x9d03ad7c           0x8c         140   
.text.dec_lock          0x9d03ae08           0x8c         140   
.text.get_ldnumber      0x9d03ae94           0x8c         140   
.text.SYS_TIME_GetTimer 0x9d03af20           0x8c         140   
.text.SYS_TIME_RemoveFr 0x9d03afac           0x8c         140   
.text._USB_DEVICE_GetFu 0x9d03b038           0x8c         140   
.text.AD5940_FIFOCfg    0x9d03b0c4           0x8c         140   
.text._DRV_SPI_DriverHa 0x9d03b150           0x88         136   
.text.DRV_SPI_TransferE 0x9d03b1d8           0x88         136   
.text.I2C2_Read         0x9d03b260           0x88         136   
.text.I2C2_Write        0x9d03b2e8           0x88         136   
.text.SPI5_Initialize   0x9d03b370           0x88         136   
.text.SPI2_Initialize   0x9d03b3f8           0x88         136   
.text.SPI1_Initialize   0x9d03b480           0x88         136   
.text.UART6_Initialize  0x9d03b508           0x88         136   
.text.UART3_Initialize  0x9d03b590           0x88         136   
.text.UART1_Initialize  0x9d03b618           0x88         136   
.text.AD5940_SPIReadReg 0x9d03b6a0           0x88         136   
.text.write             0x9d03b728           0x88         136   
.text.UART2_Initialize  0x9d03b7b0           0x84         132   
.text.USB_DEVICE_Contro 0x9d03b834           0x84         132   
.text.AD5940_DFTCfgS    0x9d03b8b8           0x84         132   
.text                   0x9d03b93c           0x84         132  App's exec code 
.text.UART5_Write       0x9d03b9c0           0x80         128   
.text.f_stat            0x9d03ba40           0x80         128   
.text._USB_DEVICE_FindE 0x9d03bac0           0x80         128   
.text.predFigaroGPRR3Pa 0x9d03bb40           0x80         128   
.rodata.cst4            0x9d03bbc0           0x80         128   
.rodata                 0x9d03bc40           0x80         128  Read-only const 
.text.f_fdisk           0x9d03bcc0           0x7c         124   
.text.disk_ioctl        0x9d03bd3c           0x7c         124   
.text.FATFS_getclusters 0x9d03bdb8           0x7c         124   
.text.SYS_TIME_TimerDes 0x9d03be34           0x7c         124   
.text.USB_DEVICE_Contro 0x9d03beb0           0x7c         124   
.text.CHANGE_NOTICE_B_I 0x9d03bf2c           0x78         120   
.text.UART6_ErrorClear  0x9d03bfa4           0x78         120   
.text.UART3_ErrorClear  0x9d03c01c           0x78         120   
.text.UART1_ErrorClear  0x9d03c094           0x78         120   
.text.UART2_ErrorClear  0x9d03c10c           0x78         120   
.text.parseCDLstring    0x9d03c184           0x78         120   
.text._atan2x           0x9d03c1fc           0x78         120   
.text._log10x           0x9d03c274           0x78         120   
.rodata.cst8            0x9d03c2f0           0x78         120   
.text.move_window       0x9d03c368           0x74         116   
.text.ff_uni2oem        0x9d03c3dc           0x74         116   
.text.disk_read_aligned 0x9d03c450           0x74         116   
.text.SYS_FS_MEDIA_MANA 0x9d03c4c4           0x74         116   
.text.getAuxSensorAvera 0x9d03c538           0x74         116   
.rodata.cst8            0x9d03c5b0           0x70         112   
.text.AD5940_SEQRegInfo 0x9d03c620           0x6c         108   
.text.AD5940_SEQCmdWrit 0x9d03c68c           0x6c         108   
.text.memmove           0x9d03c6f8           0x6c         108   
.text._DRV_USBHS_DEVICE 0x9d03c764           0x68         104   
.text.RTCC_Initialize   0x9d03c7cc           0x68         104   
.text.f_puts            0x9d03c834           0x68         104   
.text.expKernel         0x9d03c89c           0x68         104   
.text.AD5940_ReadWrite3 0x9d03c904           0x68         104   
.text.AD5940_INTCCfg    0x9d03c96c           0x68         104   
.text.uart2_readCallbac 0x9d03c9d4           0x68         104   
.text.getAuxSensorAvera 0x9d03ca3c           0x68         104   
.text._bufallo          0x9d03caa4           0x68         104   
.text.I2C2_Initialize   0x9d03cb0c           0x64         100   
.text.UART6_FAULT_Inter 0x9d03cb70           0x64         100   
.text.UART3_FAULT_Inter 0x9d03cbd4           0x64         100   
.text.UART1_FAULT_Inter 0x9d03cc38           0x64         100   
.text.UART2_FAULT_Inter 0x9d03cc9c           0x64         100   
.text.putc_flush        0x9d03cd00           0x64         100   
.text.f_closedir        0x9d03cd64           0x64         100   
.text.AD5940_SEQCycleTi 0x9d03cdc8           0x64         100   
.text.AD5940BIAStructIn 0x9d03ce2c           0x64         100   
.text.printConsoleStr   0x9d03ce90           0x64         100   
.text._sprintf_cdnopsux 0x9d03cef4           0x64         100   
.text._sprintf_fF       0x9d03cf58           0x64         100   
.text.I2C2_BUS_Interrup 0x9d03cfbc           0x60          96   
.text.I2C4_BUS_Interrup 0x9d03d01c           0x60          96   
.text.SYS_FS_MEDIA_MANA 0x9d03d07c           0x60          96   
.text.AD5940_WakeUp     0x9d03d0dc           0x60          96   
.text._DRV_USBHS_DEVICE 0x9d03d13c           0x5c          92   
.text.I2C2_IsBusy       0x9d03d198           0x5c          92   
.text.I2C4_Initialize   0x9d03d1f4           0x5c          92   
.text.SYS_FS_MEDIA_MANA 0x9d03d250           0x5c          92   
.text.AD5940_SEQGenSear 0x9d03d2ac           0x5c          92   
.text.AD5940_SWMatrixCf 0x9d03d308           0x5c          92   
.text.fputs             0x9d03d364           0x5c          92   
.text.DRV_USBHS_DEVICE_ 0x9d03d3c0           0x58          88   
.text.DRV_USBHS_DEVICE_ 0x9d03d418           0x58          88   
.text.tchar2uni         0x9d03d470           0x58          88   
.text.diskEventHandler  0x9d03d4c8           0x58          88   
.text.SYS_INT_SourceDis 0x9d03d520           0x58          88   
.text.SYS_TIME_Resource 0x9d03d578           0x58          88   
.text._USB_DEVICE_Redir 0x9d03d5d0           0x58          88   
.text.USB_DEVICE_Endpoi 0x9d03d628           0x58          88   
.text._USB_DEVICE_CDC_E 0x9d03d680           0x58          88   
.text.AD5940_SEQGenInse 0x9d03d6d8           0x58          88   
.text.AD5940_ComplexDiv 0x9d03d730           0x58          88   
.text.initCyclicTImer   0x9d03d788           0x58          88   
.text.DRV_SDSPI_IsAttac 0x9d03d7e0           0x54          84   
.text.DRV_USBHS_DEVICE_ 0x9d03d834           0x54          84   
.rodata.str1.4          0x9d03d888           0x54          84   
.text.f_close           0x9d03d8dc           0x54          84   
.text.f_putc            0x9d03d930           0x54          84   
.text.ff_oem2uni        0x9d03d984           0x54          84   
.text.createHexString   0x9d03d9d8           0x54          84   
.text.main_entry        0x9d03da2c           0x54          84   
.text._DRV_SDSPI_SPIWri 0x9d03da80           0x50          80   
.text._DRV_SDSPI_SPIRea 0x9d03dad0           0x50          80   
.text.AD5940_HSDacCfgS  0x9d03db20           0x50          80   
.text.AD5940_ADCMuxCfgS 0x9d03db70           0x50          80   
.text.AD5940_ADCDigComp 0x9d03dbc0           0x50          80   
.text.parseLoraFrame    0x9d03dc10           0x50          80   
.text.initBuffer        0x9d03dc60           0x50          80   
.rodata.cst8            0x9d03dcb0           0x50          80   
.text._DRV_USBHS_DEVICE 0x9d03dd00           0x4c          76   
.text.SYS_CACHE_Invalid 0x9d03dd4c           0x4c          76   
.text.SYS_CACHE_CleanDC 0x9d03dd98           0x4c          76   
.text.SYS_FS_MEDIA_MANA 0x9d03dde4           0x4c          76   
.text.FATFS_readdir     0x9d03de30           0x4c          76   
.text.AD5940_AGPIOCfg   0x9d03de7c           0x4c          76   
.text.uart6_readCallbac 0x9d03dec8           0x4c          76   
.text.sbrk              0x9d03df14           0x4c          76   
.text.DRV_SDSPI_Geometr 0x9d03df60           0x48          72   
.text._DRV_SDSPI_SPIDri 0x9d03dfa8           0x48          72   
.text._DRV_SDSPI_CardDe 0x9d03dff0           0x48          72   
.text._DRV_SDSPI_CmdRes 0x9d03e038           0x48          72   
.text._DRV_SDSPI_TimerS 0x9d03e080           0x48          72   
.text.DRV_USBHS_DEVICE_ 0x9d03e0c8           0x48          72   
.text.FATFS_stat        0x9d03e110           0x48          72   
.text.SYS_Tasks         0x9d03e158           0x48          72   
.text._is_value_in_tabl 0x9d03e1a0           0x48          72   
.text.AD5940_SEQGenInit 0x9d03e1e8           0x48          72   
.text.AD5940_MCUResourc 0x9d03e230           0x48          72   
.rodata.cst8            0x9d03e278           0x90         144   
.text.FATFS_close       0x9d03e308           0x44          68   
.text.FATFS_closedir    0x9d03e34c           0x44          68   
.text.SYS_TIME_Resource 0x9d03e390           0x44          68   
.text.USB_DEVICE_Endpoi 0x9d03e3d4           0x44          68   
.text.USB_DEVICE_IRPCan 0x9d03e418           0x44          68   
.text.AD5940_DSPCfgS    0x9d03e45c           0x44          68   
.text                   0x9d03e4a0           0x44          68  App's exec code 
.text.puts              0x9d03e4e4           0x44          68   
.text.DRV_SDSPI_EventHa 0x9d03e528           0x40          64   
.text.TMR2_Initialize   0x9d03e568           0x40          64   
.text.TIMER_2_Interrupt 0x9d03e5a8           0x40          64   
.text.TIMER_3_Interrupt 0x9d03e5e8           0x40          64   
.text.ld_clust          0x9d03e628           0x40          64   
.text.FATFS_mkfs        0x9d03e668           0x40          64   
.text.AD5940_ReadWrite1 0x9d03e6a8           0x40          64   
.text.AD5940_HSLoopCfgS 0x9d03e6e8           0x40          64   
.text.AD5940_StatisticC 0x9d03e728           0x40          64   
.text.AD5940_WUPTCtrl   0x9d03e768           0x40          64   
.text.delay_us          0x9d03e7a8           0x40          64   
.rodata.str1.4          0x9d03e7e8           0x40          64   
.text.mDotWait          0x9d03e828           0x40          64   
.text.mDotCounters      0x9d03e868           0x40          64   
.text.available         0x9d03e8a8           0x40          64   
.rodata                 0x9d03e8e8           0x40          64  Read-only const 
.text._DRV_SDSPI_SPISpe 0x9d03e928           0x3c          60   
.text.CORETIMER_Initial 0x9d03e964           0x3c          60   
.text.TMR3_Initialize   0x9d03e9a0           0x3c          60   
.text.AD5940_INTCTestFl 0x9d03e9dc           0x3c          60   
.text.strncmp           0x9d03ea18           0x3c          60   
.text                   0x9d03ea54           0x3c          60  App's exec code 
.text._DRV_SDSPI_CmdRes 0x9d03ea90           0x38          56   
.text._DRV_SDSPI_TimerS 0x9d03eac8           0x38          56   
.text.DRV_USBHS_DEVICE_ 0x9d03eb00           0x38          56   
.rodata                 0x9d03eb38           0x38          56  Read-only const 
.text.UART5_Initialize  0x9d03eb70           0x38          56   
.text.AD5940_ADCBaseCfg 0x9d03eba8           0x38          56   
.text._printf_cdgGnopsu 0x9d03ebe0           0x38          56   
.rodata.cst8            0x9d03ec18           0x70         112   
.text.RTCC_InterruptHan 0x9d03ec88           0x34          52   
.text.clst2sect         0x9d03ecbc           0x34          52   
.text.st_clust          0x9d03ecf0           0x34          52   
.text.SYS_FS_MEDIA_MANA 0x9d03ed24           0x34          52   
.text.AD5940_SEQMmrTrig 0x9d03ed58           0x34          52   
.text.AD5940_HWReset    0x9d03ed8c           0x34          52   
.text.initRollAve       0x9d03edc0           0x34          52   
.text.pushSample        0x9d03edf4           0x34          52   
.text.setbuf            0x9d03ee28           0x34          52   
.text                   0x9d03ee5c           0x68         104  App's exec code 
.rodata                 0x9d03eec4           0x30          48  Read-only const 
.text.DRV_USBHS_Close   0x9d03eef4           0x30          48   
.text.sum_sfn           0x9d03ef24           0x30          48   
.text.f_chdrive         0x9d03ef54           0x30          48   
.text.FATFS_chdrive     0x9d03ef84           0x30          48   
.text.AD5940_SEQGenFetc 0x9d03efb4           0x30          48   
.text.AD5940_ComplexMag 0x9d03efe4           0x30          48   
.text.AD5940_FIFOCtrlS  0x9d03f014           0x30          48   
.text.changeIntHandler  0x9d03f044           0x30          48   
.text.clearSendBufferUa 0x9d03f074           0x30          48   
.text.clearReceiveBuffe 0x9d03f0a4           0x30          48   
.text.clearSendBufferUa 0x9d03f0d4           0x30          48   
.text.clearReceiveBuffe 0x9d03f104           0x30          48   
.rodata                 0x9d03f134           0x30          48  Read-only const 
.text.free              0x9d03f164           0x30          48   
.rodata.str1.4          0x9d03f194           0x60          96   
.rodata                 0x9d03f1f8           0x60          96  Read-only const 
.rodata                 0x9d03f258           0x30          48  Read-only const 
.rodata.cst8            0x9d03f288           0x30          48   
.text.DRV_SPI_ReadTrans 0x9d03f2b8           0x2c          44   
.text._mon_putc         0x9d03f2e4           0x2c          44   
.text.ld_dword          0x9d03f310           0x2c          44   
.text.SYS_INT_SourceRes 0x9d03f33c           0x2c          44   
.text.AD5940_ReadWrite8 0x9d03f368           0x2c          44   
.text.AD5940_ComplexPha 0x9d03f394           0x2c          44   
.text.AD5940_LPDAC0Writ 0x9d03f3c0           0x2c          44   
.text.AD5940_LPDAC1Writ 0x9d03f3ec           0x2c          44   
.text.AD5940_LPLoopCfgS 0x9d03f418           0x2c          44   
.text.AD5940_EnterSleep 0x9d03f444           0x2c          44   
.text.AD5940_Delay10us  0x9d03f470           0x2c          44   
.text._stub_sbd_memlayo 0x9d03f49c           0x2c          44   
.text.DRV_SDSPI_AsyncWr 0x9d03f4c8           0x28          40   
.text.DRV_SDSPI_Registe 0x9d03f4f0           0x28          40   
.text.EVIC_SourceEnable 0x9d03f518           0x28          40   
.text.EVIC_SourceDisabl 0x9d03f540           0x28          40   
.text.EVIC_SourceStatus 0x9d03f568           0x28          40   
.text.EVIC_INT_Restore  0x9d03f590           0x28          40   
.text._SYS_FS_MEDIA_MAN 0x9d03f5b8           0x28          40   
.text._USB_DEVICE_Clien 0x9d03f5e0           0x28          40   
.text.AD5940_SEQGenCtrl 0x9d03f608           0x28          40   
.text.AD5940_WGFreqCtrl 0x9d03f630           0x28          40   
.text.AD5940_CsClr      0x9d03f658           0x28          40   
.text.AD5940_CsSet      0x9d03f680           0x28          40   
.text.AD5940_RstSet     0x9d03f6a8           0x28          40   
.text.AD5940_RstClr     0x9d03f6d0           0x28          40   
.text.AD5940MAIN_Initia 0x9d03f6f8           0x28          40   
.text.strchr            0x9d03f720           0x28          40   
.text.toupper           0x9d03f748           0x28          40   
.rodata.cst8            0x9d03f770           0x50          80   
.text.DRV_SDSPI_AsyncRe 0x9d03f7c0           0x24          36   
.text.DRV_SPI_WriteTran 0x9d03f7e4           0x24          36   
.text.CACHE_DataCacheCl 0x9d03f808           0x24          36   
.text.CACHE_DataCacheIn 0x9d03f82c           0x24          36   
.text.mem_cpy           0x9d03f850           0x24          36   
.text.disk_initialize   0x9d03f874           0x24          36   
.text.AppBIAGetCfg      0x9d03f898           0x24          36   
.text.AD5940_AFEPwrBW   0x9d03f8bc           0x24          36   
.text.sendBufferUart6   0x9d03f8e0           0x24          36   
.text.communication_tas 0x9d03f904           0x24          36   
.text.DRV_USBHS_Interru 0x9d03f928           0x20          32   
.text.DRV_USBHS_DMAInte 0x9d03f948           0x20          32   
.text._DRV_USBHS_DEVICE 0x9d03f968           0x20          32   
.text.EVIC_SourceIsEnab 0x9d03f988           0x20          32   
.text.EVIC_INT_Disable  0x9d03f9a8           0x20          32   
.text.st_dword          0x9d03f9c8           0x20          32   
.rodata.str1.4          0x9d03f9e8           0x20          32   
.text._USB_DEVICE_CDC_G 0x9d03fa08           0x20          32   
.text.AD5940_StructInit 0x9d03fa28           0x20          32   
.text.AD5940_FIFOGetCnt 0x9d03fa48           0x20          32   
.text.AD5940_SEQGpioCtr 0x9d03fa68           0x20          32   
.text.AD5940_INTCClrFla 0x9d03fa88           0x20          32   
.text.AD5940_AGPIOFuncC 0x9d03faa8           0x20          32   
.text.AD5940_AGPIOOen   0x9d03fac8           0x20          32   
.text.AD5940_AGPIOIen   0x9d03fae8           0x20          32   
.text.AD5940_AGPIOPen   0x9d03fb08           0x20          32   
.text.AD5940_SleepKeyCt 0x9d03fb28           0x20          32   
.rodata.cst8            0x9d03fb48           0x20          32   
.text.main              0x9d03fb68           0x20          32   
.text.waitI2C2          0x9d03fb88           0x20          32   
.text.pollAuxSensors    0x9d03fba8           0x20          32   
.rodata.cst8            0x9d03fbc8           0x20          32   
.text._DRV_SDSPI_SPIExc 0x9d03fbe8           0x1c          28   
.text.CACHE_CacheCohere 0x9d03fc04           0x1c          28   
.text.GPIO_PortSet      0x9d03fc20           0x1c          28   
.text.GPIO_PortClear    0x9d03fc3c           0x1c          28   
.text.get_fattime       0x9d03fc58           0x1c          28   
.text.SYS_FS_Tasks      0x9d03fc74           0x1c          28   
.text.FATFS_read        0x9d03fc90           0x1c          28   
.text.FATFS_lseek       0x9d03fcac           0x1c          28   
.text.FATFS_getlabel    0x9d03fcc8           0x1c          28   
.text.FATFS_getcwd      0x9d03fce4           0x1c          28   
.text.FATFS_gets        0x9d03fd00           0x1c          28   
.text.FATFS_chdir       0x9d03fd1c           0x1c          28   
.text.FATFS_write       0x9d03fd38           0x1c          28   
.text.FATFS_mkdir       0x9d03fd54           0x1c          28   
.text.FATFS_unlink      0x9d03fd70           0x1c          28   
.text.FATFS_setlabel    0x9d03fd8c           0x1c          28   
.text.FATFS_truncate    0x9d03fda8           0x1c          28   
.text.FATFS_chmod       0x9d03fdc4           0x1c          28   
.text.FATFS_utime       0x9d03fde0           0x1c          28   
.text.FATFS_rename      0x9d03fdfc           0x1c          28   
.text.FATFS_sync        0x9d03fe18           0x1c          28   
.text.FATFS_putc        0x9d03fe34           0x1c          28   
.text.FATFS_puts        0x9d03fe50           0x1c          28   
.text.FATFS_printf      0x9d03fe6c           0x1c          28   
.text.FATFS_fdisk       0x9d03fe88           0x1c          28   
.text.SYS_INT_Disable   0x9d03fea4           0x1c          28   
.text.SYS_INT_Restore   0x9d03fec0           0x1c          28   
.text.uart6_writeCallba 0x9d03fedc           0x1c          28   
.text.uart_counters     0x9d03fef8           0x1c          28   
.rodata.str1.4          0x9d03ff14           0x1c          28   
.text._sqrtx            0x9d03ff30           0x1c          28   
.MIPS.abiflags          0x9d03ff50           0x18          24   
.text.mem_set           0x9d03ff68           0x18          24   
.text._general_exceptio 0x9d03ff80           0x18          24   
.text._bootstrap_except 0x9d03ff98           0x18          24   
.text._cache_err_except 0x9d03ffb0           0x18          24   
.text._simple_tlb_refil 0x9d03ffc8           0x18          24   
.rodata.cst8            0x9d03ffe0           0x18          24   
.text.communication_ini 0x9d03fff8           0x18          24   
.rodata.cst8            0x9d040010           0x18          24   
.text                   0x9d040028           0x18          24  App's exec code 
.text._fabsx            0x9d040040           0x18          24   
.rodata.cst8            0x9d040058           0x30          48   
.text.SPI4_IsTransmitte 0x9d040088           0x14          20   
.text.SPI4_CallbackRegi 0x9d04009c           0x14          20   
.text.TMR2_Start        0x9d0400b0           0x14          20   
.text.TMR3_Start        0x9d0400c4           0x14          20   
.text.TMR3_Stop         0x9d0400d8           0x14          20   
.text.UART6_ReadCallbac 0x9d0400ec           0x14          20   
.text.UART6_WriteCallba 0x9d040100           0x14          20   
.text.UART2_ReadCallbac 0x9d040114           0x14          20   
.text.UART2_WriteCallba 0x9d040128           0x14          20   
.text.FATFS_eof         0x9d04013c           0x14          20   
.rodata                 0x9d040150           0x28          40  Read-only const 
.text._buffree          0x9d040178           0x14          20   
.text.RTCC_CallbackRegi 0x9d04018c           0x10          16   
.text.TMR2_PeriodSet    0x9d04019c           0x10          16   
.text.TMR2_CallbackRegi 0x9d0401ac           0x10          16   
.text.TMR3_PeriodSet    0x9d0401bc           0x10          16   
.text.TMR3_CallbackRegi 0x9d0401cc           0x10          16   
.rodata.cst4            0x9d0401dc           0x10          16   
.rodata.cst8            0x9d0401f0           0x10          16   
.text.uart2_writeCallba 0x9d040200           0x10          16   
.bev_handler            0x9d040210           0x10          16   
.rodata.cst8            0x9d040220           0x10          16   
.rodata                 0x9d040230           0x10          16  Read-only const 
.text.DRV_SDSPI_TimerCa 0x9d040240            0xc          12   
.text.TMR2_FrequencyGet 0x9d04024c            0xc          12   
.text.TMR3_FrequencyGet 0x9d040258            0xc          12   
.text.UART2_WriteIsBusy 0x9d040264            0xc          12   
.text.SYS_FS_MEDIA_MANA 0x9d040270            0xc          12   
.text.FATFS_error       0x9d04027c            0xc          12   
.text.AD5940_GetMCUIntF 0x9d040288            0xc          12   
.text.AD5940_ClrMCUIntF 0x9d040294            0xc          12   
.rodata.str1.4          0x9d0402a0            0xc          12   
.text.APP_Initialize    0x9d0402ac            0xc          12   
.text.eepromInit        0x9d0402b8            0xc          12   
.text.mDotInit          0x9d0402c4            0xc          12   
.rodata.cst4            0x9d0402d0            0xc          12   
.text.rtcc_Callback     0x9d0402dc            0xc          12   
.rodata.cst4            0x9d0402e8            0xc          12   
.text.DRV_USBHS_DEVICE_ 0x9d0402f4            0x8           8   
.text.DRV_USBHS_DEVICE_ 0x9d0402fc            0x8           8   
.text.DRV_USBHS_DEVICE_ 0x9d040304            0x8           8   
.text.disk_status       0x9d04030c            0x8           8   
.rodata                 0x9d040314            0x8           8  Read-only const 
.text.FATFS_tell        0x9d04031c            0x8           8   
.text.FATFS_size        0x9d040324            0x8           8   
.rodata.cst4            0x9d04032c            0x8           8   
.rodata.cst8            0x9d040338            0x8           8   
.text.timeKeepingTasksI 0x9d040340            0x8           8   
.text.I2C2TASKS_Initial 0x9d040348            0x8           8   
.text._on_reset         0x9d040350            0x8           8   
.text._on_bootstrap     0x9d040358            0x8           8   
.rodata.cst8            0x9d040360           0x10          16   
.text.scalbn            0x9d040370            0x8           8   
      Total kseg0_program_mem used  :     0x3f350      258896  12.4% of 0x1ff000

kseg1 Boot-Memory Usage
section                    address  length [bytes]      (dec)  Description
-------                 ----------  -------------------------  -----------
.reset                  0xbd000000          0x1c4         452  Reset handler 
         Total kseg1_boot_mem used  :       0x1c4         452  39.2% of 0x480
        --------------------------------------------------------------------------
         Total Program Memory used  :     0x3f514      259348  12.4% of 0x1ff480
        --------------------------------------------------------------------------


kseg0 Data-Memory Usage
section                    address  length [bytes]      (dec)  Description
-------                 ----------  -------------------------  -----------
.sdata                  0x80000000           0x34          52  Small init data 
.sbss                   0x80000034           0xdc         220  Small uninit data 
.data                   0x80004c40         0xd310       54032  Initialized data 
.bss                    0x80011f50         0x2a10       10768  Uninitialized data 
.bss                    0x80014960          0xf94        3988  Uninitialized data 
.bss                    0x800158f4          0x4d0        1232  Uninitialized data 
.data                   0x80015dc4          0x3f0        1008  Initialized data 
.bss                    0x800161b4          0x5f8        1528  Uninitialized data 
.bss                    0x800167ac          0x3a4         932  Uninitialized data 
.bss                    0x80016b50          0x260         608  Uninitialized data 
.bss                    0x80016db0          0x1ac         428  Uninitialized data 
.bss                    0x80016f5c          0x184         388  Uninitialized data 
.bss                    0x800170e0           0xb0         176  Uninitialized data 
.data                   0x80017190           0xf4         244  Initialized data 
.bss                    0x80017284           0x90         144  Uninitialized data 
.bss                    0x80017314           0x41          65  Uninitialized data 
.bss                    0x80017358           0x68         104  Uninitialized data 
.bss                    0x800173c0           0x68         104  Uninitialized data 
.bss                    0x80017428           0x68         104  Uninitialized data 
.data                   0x80017490           0x2c          44  Initialized data 
.bss                    0x800174bc           0x50          80  Uninitialized data 
.bss                    0x8001750c           0x50          80  Uninitialized data 
.bss                    0x8001755c           0x48          72  Uninitialized data 
.bss                    0x800175a4           0x3c          60  Uninitialized data 
.data                   0x800175e0            0xb          11  Initialized data 
.bss                    0x800175ec            0x4           4  Uninitialized data 
.bss.errno              0x800175f0            0x4           4   
         Total kseg0_data_mem used  :     0x12ac0       76480  14.6% of 0x80000
        --------------------------------------------------------------------------
            Total Data Memory used  :     0x12ac0       76480  14.6% of 0x80000
        --------------------------------------------------------------------------


Dynamic Data-Memory Reservation
section                    address  length [bytes]      (dec)  Description
-------                 ----------  -------------------------  -----------
heap                    0x800175f8          0x200         512  Reserved for heap 
stack                   0x80017810        0x687e0      428000  Reserved for stack 

        --------------------------------------------------------------------------

Discarded input sections

 .text          0x0000000000000000        0x0 /opt/microchip/xc32/v3.01/bin/bin/../../lib/gcc/pic32mx/8.3.1/../../../../pic32mx/lib/fpu64/debug-exception-return.o
 .data          0x0000000000000000        0x0 /opt/microchip/xc32/v3.01/bin/bin/../../lib/gcc/pic32mx/8.3.1/../../../../pic32mx/lib/fpu64/debug-exception-return.o
 .bss           0x0000000000000000        0x0 /opt/microchip/xc32/v3.01/bin/bin/../../lib/gcc/pic32mx/8.3.1/../../../../pic32mx/lib/fpu64/debug-exception-return.o
 .xc_stack_usage.hdr
                0x0000000000000000        0xe /opt/microchip/xc32/v3.01/bin/bin/../../lib/gcc/pic32mx/8.3.1/../../../../pic32mx/lib/fpu64/debug-exception-return.o
 .xc_stack_usage
                0x0000000000000000       0x1d /opt/microchip/xc32/v3.01/bin/bin/../../lib/gcc/pic32mx/8.3.1/../../../../pic32mx/lib/fpu64/debug-exception-return.o
 .text          0x0000000000000000        0x0 build/pic32mz2048efm/production/_ext/1044926641/drv_sdspi.o
 .data          0x0000000000000000        0x0 build/pic32mz2048efm/production/_ext/1044926641/drv_sdspi.o
 .reginfo       0x0000000000000000       0x18 build/pic32mz2048efm/production/_ext/1044926641/drv_sdspi.o
 .MIPS.abiflags
                0x0000000000000000       0x18 build/pic32mz2048efm/production/_ext/1044926641/drv_sdspi.o
 .text.DRV_SDSPI_RegisterWithSysFs
                0x0000000000000000        0x8 build/pic32mz2048efm/production/_ext/1044926641/drv_sdspi.o
 .text.DRV_SDSPI_Status
                0x0000000000000000       0x1c build/pic32mz2048efm/production/_ext/1044926641/drv_sdspi.o
 .text.DRV_SDSPI_IsWriteProtected
                0x0000000000000000       0x84 build/pic32mz2048efm/production/_ext/1044926641/drv_sdspi.o
 .text          0x0000000000000000        0x0 build/pic32mz2048efm/production/_ext/1044926641/drv_sdspi_driver_interface.o
 .data          0x0000000000000000        0x0 build/pic32mz2048efm/production/_ext/1044926641/drv_sdspi_driver_interface.o
 .bss           0x0000000000000000        0x0 build/pic32mz2048efm/production/_ext/1044926641/drv_sdspi_driver_interface.o
 .reginfo       0x0000000000000000       0x18 build/pic32mz2048efm/production/_ext/1044926641/drv_sdspi_driver_interface.o
 .MIPS.abiflags
                0x0000000000000000       0x18 build/pic32mz2048efm/production/_ext/1044926641/drv_sdspi_driver_interface.o
 .text          0x0000000000000000        0x0 build/pic32mz2048efm/production/_ext/1044926641/drv_sdspi_file_system.o
 .data          0x0000000000000000        0x0 build/pic32mz2048efm/production/_ext/1044926641/drv_sdspi_file_system.o
 .bss           0x0000000000000000        0x0 build/pic32mz2048efm/production/_ext/1044926641/drv_sdspi_file_system.o
 .reginfo       0x0000000000000000       0x18 build/pic32mz2048efm/production/_ext/1044926641/drv_sdspi_file_system.o
 .MIPS.abiflags
                0x0000000000000000       0x18 build/pic32mz2048efm/production/_ext/1044926641/drv_sdspi_file_system.o
 .text          0x0000000000000000        0x0 build/pic32mz2048efm/production/_ext/1807302558/drv_spi.o
 .data          0x0000000000000000        0x0 build/pic32mz2048efm/production/_ext/1807302558/drv_spi.o
 .bss           0x0000000000000000        0x0 build/pic32mz2048efm/production/_ext/1807302558/drv_spi.o
 .reginfo       0x0000000000000000       0x18 build/pic32mz2048efm/production/_ext/1807302558/drv_spi.o
 .MIPS.abiflags
                0x0000000000000000       0x18 build/pic32mz2048efm/production/_ext/1807302558/drv_spi.o
 .text.DRV_SPI_Status
                0x0000000000000000       0x1c build/pic32mz2048efm/production/_ext/1807302558/drv_spi.o
 .text.DRV_SPI_Close
                0x0000000000000000      0x174 build/pic32mz2048efm/production/_ext/1807302558/drv_spi.o
 .text.DRV_SPI_TransferStatusGet
                0x0000000000000000       0x64 build/pic32mz2048efm/production/_ext/1807302558/drv_spi.o
 .text          0x0000000000000000        0x0 build/pic32mz2048efm/production/_ext/1449458886/drv_usbhs.o
 .data          0x0000000000000000        0x0 build/pic32mz2048efm/production/_ext/1449458886/drv_usbhs.o
 .reginfo       0x0000000000000000       0x18 build/pic32mz2048efm/production/_ext/1449458886/drv_usbhs.o
 .MIPS.abiflags
                0x0000000000000000       0x18 build/pic32mz2048efm/production/_ext/1449458886/drv_usbhs.o
 .text.DRV_USBHS_Deinitialize
                0x0000000000000000       0x7c build/pic32mz2048efm/production/_ext/1449458886/drv_usbhs.o
 .text.DRV_USBHS_Status
                0x0000000000000000       0x40 build/pic32mz2048efm/production/_ext/1449458886/drv_usbhs.o
 .text          0x0000000000000000        0x0 build/pic32mz2048efm/production/_ext/1449458886/drv_usbhs_device.o
 .bss           0x0000000000000000        0x0 build/pic32mz2048efm/production/_ext/1449458886/drv_usbhs_device.o
 .reginfo       0x0000000000000000       0x18 build/pic32mz2048efm/production/_ext/1449458886/drv_usbhs_device.o
 .MIPS.abiflags
                0x0000000000000000       0x18 build/pic32mz2048efm/production/_ext/1449458886/drv_usbhs_device.o
 .text._DRV_USBHS_DEVICE_EndpointObjectEnable
                0x0000000000000000       0x1c build/pic32mz2048efm/production/_ext/1449458886/drv_usbhs_device.o
 .text.DRV_USBHS_DEVICE_IRPCancel
                0x0000000000000000      0x1a0 build/pic32mz2048efm/production/_ext/1449458886/drv_usbhs_device.o
 .text.DRV_USBHS_DEVICE_TestModeExit
                0x0000000000000000       0xa8 build/pic32mz2048efm/production/_ext/1449458886/drv_usbhs_device.o
 .text          0x0000000000000000        0x0 build/pic32mz2048efm/production/_ext/1928555383/plib_cache.o
 .data          0x0000000000000000        0x0 build/pic32mz2048efm/production/_ext/1928555383/plib_cache.o
 .bss           0x0000000000000000        0x0 build/pic32mz2048efm/production/_ext/1928555383/plib_cache.o
 .reginfo       0x0000000000000000       0x18 build/pic32mz2048efm/production/_ext/1928555383/plib_cache.o
 .MIPS.abiflags
                0x0000000000000000       0x18 build/pic32mz2048efm/production/_ext/1928555383/plib_cache.o
 .text.CACHE_CacheInit
                0x0000000000000000       0x24 build/pic32mz2048efm/production/_ext/1928555383/plib_cache.o
 .text.CACHE_CacheFlush
                0x0000000000000000       0x24 build/pic32mz2048efm/production/_ext/1928555383/plib_cache.o
 .text.CACHE_DataCacheFlush
                0x0000000000000000       0x24 build/pic32mz2048efm/production/_ext/1928555383/plib_cache.o
 .text.CACHE_InstructionCacheFlush
                0x0000000000000000       0x24 build/pic32mz2048efm/production/_ext/1928555383/plib_cache.o
 .text.CACHE_CacheClean
                0x0000000000000000       0x24 build/pic32mz2048efm/production/_ext/1928555383/plib_cache.o
 .text.CACHE_InstructionCacheInvalidate
                0x0000000000000000       0x24 build/pic32mz2048efm/production/_ext/1928555383/plib_cache.o
 .text.CACHE_InstructionCacheLock
                0x0000000000000000       0x24 build/pic32mz2048efm/production/_ext/1928555383/plib_cache.o
 .text.CACHE_DataCacheLock
                0x0000000000000000       0x24 build/pic32mz2048efm/production/_ext/1928555383/plib_cache.o
 .text.CACHE_CacheSync
                0x0000000000000000       0x24 build/pic32mz2048efm/production/_ext/1928555383/plib_cache.o
 .text.CACHE_CacheCoherencySet
                0x0000000000000000       0x28 build/pic32mz2048efm/production/_ext/1928555383/plib_cache.o
 .text.CACHE_DataCacheAssociativityGet
                0x0000000000000000       0x24 build/pic32mz2048efm/production/_ext/1928555383/plib_cache.o
 .text.CACHE_InstructionCacheAssociativityGet
                0x0000000000000000       0x24 build/pic32mz2048efm/production/_ext/1928555383/plib_cache.o
 .text.CACHE_DataCacheLineSizeGet
                0x0000000000000000       0x24 build/pic32mz2048efm/production/_ext/1928555383/plib_cache.o
 .text.CACHE_InstructionCacheLineSizeGet
                0x0000000000000000       0x24 build/pic32mz2048efm/production/_ext/1928555383/plib_cache.o
 .text.CACHE_DataCacheLinesPerWayGet
                0x0000000000000000       0x24 build/pic32mz2048efm/production/_ext/1928555383/plib_cache.o
 .text.CACHE_InstructionCacheLinesPerWayGet
                0x0000000000000000       0x24 build/pic32mz2048efm/production/_ext/1928555383/plib_cache.o
 .text.CACHE_DataCacheSizeGet
                0x0000000000000000       0x24 build/pic32mz2048efm/production/_ext/1928555383/plib_cache.o
 .text.CACHE_InstructionCacheSizeGet
                0x0000000000000000       0x24 build/pic32mz2048efm/production/_ext/1928555383/plib_cache.o
 .data          0x0000000000000000        0x0 build/pic32mz2048efm/production/_ext/1928555383/plib_cache_pic32mz.o
 .bss           0x0000000000000000        0x0 build/pic32mz2048efm/production/_ext/1928555383/plib_cache_pic32mz.o
 .reginfo       0x0000000000000000       0x18 build/pic32mz2048efm/production/_ext/1928555383/plib_cache_pic32mz.o
 .MIPS.abiflags
                0x0000000000000000       0x18 build/pic32mz2048efm/production/_ext/1928555383/plib_cache_pic32mz.o
 .text          0x0000000000000000        0x0 build/pic32mz2048efm/production/_ext/323794519/plib_clk.o
 .data          0x0000000000000000        0x0 build/pic32mz2048efm/production/_ext/323794519/plib_clk.o
 .bss           0x0000000000000000        0x0 build/pic32mz2048efm/production/_ext/323794519/plib_clk.o
 .reginfo       0x0000000000000000       0x18 build/pic32mz2048efm/production/_ext/323794519/plib_clk.o
 .MIPS.abiflags
                0x0000000000000000       0x18 build/pic32mz2048efm/production/_ext/323794519/plib_clk.o
 .text          0x0000000000000000        0x0 build/pic32mz2048efm/production/_ext/1871117435/plib_coretimer.o
 .data          0x0000000000000000        0x0 build/pic32mz2048efm/production/_ext/1871117435/plib_coretimer.o
 .bss           0x0000000000000000        0x0 build/pic32mz2048efm/production/_ext/1871117435/plib_coretimer.o
 .reginfo       0x0000000000000000       0x18 build/pic32mz2048efm/production/_ext/1871117435/plib_coretimer.o
 .MIPS.abiflags
                0x0000000000000000       0x18 build/pic32mz2048efm/production/_ext/1871117435/plib_coretimer.o
 .text.CORETIMER_Start
                0x0000000000000000       0x5c build/pic32mz2048efm/production/_ext/1871117435/plib_coretimer.o
 .text.CORETIMER_Stop
                0x0000000000000000       0x28 build/pic32mz2048efm/production/_ext/1871117435/plib_coretimer.o
 .text.CORETIMER_FrequencyGet
                0x0000000000000000        0xc build/pic32mz2048efm/production/_ext/1871117435/plib_coretimer.o
 .text.CORETIMER_CompareSet
                0x0000000000000000       0x20 build/pic32mz2048efm/production/_ext/1871117435/plib_coretimer.o
 .text.CORETIMER_CounterGet
                0x0000000000000000       0x18 build/pic32mz2048efm/production/_ext/1871117435/plib_coretimer.o
 .text.CORETIMER_CompareHasExpired
                0x0000000000000000       0x2c build/pic32mz2048efm/production/_ext/1871117435/plib_coretimer.o
 .text.CORETIMER_DelayMs
                0x0000000000000000       0x4c build/pic32mz2048efm/production/_ext/1871117435/plib_coretimer.o
 .text.CORETIMER_DelayUs
                0x0000000000000000       0x3c build/pic32mz2048efm/production/_ext/1871117435/plib_coretimer.o
 .text          0x0000000000000000        0x0 build/pic32mz2048efm/production/_ext/1447764726/plib_evic.o
 .data          0x0000000000000000        0x0 build/pic32mz2048efm/production/_ext/1447764726/plib_evic.o
 .bss           0x0000000000000000        0x0 build/pic32mz2048efm/production/_ext/1447764726/plib_evic.o
 .reginfo       0x0000000000000000       0x18 build/pic32mz2048efm/production/_ext/1447764726/plib_evic.o
 .MIPS.abiflags
                0x0000000000000000       0x18 build/pic32mz2048efm/production/_ext/1447764726/plib_evic.o
 .text.EVIC_SourceStatusGet
                0x0000000000000000       0x20 build/pic32mz2048efm/production/_ext/1447764726/plib_evic.o
 .text.EVIC_SourceStatusSet
                0x0000000000000000       0x28 build/pic32mz2048efm/production/_ext/1447764726/plib_evic.o
 .text.EVIC_INT_Enable
                0x0000000000000000       0x18 build/pic32mz2048efm/production/_ext/1447764726/plib_evic.o
 .text          0x0000000000000000        0x0 build/pic32mz2048efm/production/_ext/1447818554/plib_gpio.o
 .reginfo       0x0000000000000000       0x18 build/pic32mz2048efm/production/_ext/1447818554/plib_gpio.o
 .MIPS.abiflags
                0x0000000000000000       0x18 build/pic32mz2048efm/production/_ext/1447818554/plib_gpio.o
 .text.GPIO_PortRead
                0x0000000000000000       0x18 build/pic32mz2048efm/production/_ext/1447818554/plib_gpio.o
 .text.GPIO_PortWrite
                0x0000000000000000       0x2c build/pic32mz2048efm/production/_ext/1447818554/plib_gpio.o
 .text.GPIO_PortLatchRead
                0x0000000000000000       0x18 build/pic32mz2048efm/production/_ext/1447818554/plib_gpio.o
 .text.GPIO_PortToggle
                0x0000000000000000       0x1c build/pic32mz2048efm/production/_ext/1447818554/plib_gpio.o
 .text.GPIO_PortInputEnable
                0x0000000000000000       0x1c build/pic32mz2048efm/production/_ext/1447818554/plib_gpio.o
 .text.GPIO_PortOutputEnable
                0x0000000000000000       0x1c build/pic32mz2048efm/production/_ext/1447818554/plib_gpio.o
 .text.GPIO_PortInterruptEnable
                0x0000000000000000       0x1c build/pic32mz2048efm/production/_ext/1447818554/plib_gpio.o
 .text.GPIO_PortInterruptDisable
                0x0000000000000000       0x1c build/pic32mz2048efm/production/_ext/1447818554/plib_gpio.o
 .text.GPIO_PinIntDisable
                0x0000000000000000       0x3c build/pic32mz2048efm/production/_ext/1447818554/plib_gpio.o
 .text          0x0000000000000000        0x0 build/pic32mz2048efm/production/_ext/1683951966/plib_i2c2_master.o
 .data          0x0000000000000000        0x0 build/pic32mz2048efm/production/_ext/1683951966/plib_i2c2_master.o
 .reginfo       0x0000000000000000       0x18 build/pic32mz2048efm/production/_ext/1683951966/plib_i2c2_master.o
 .MIPS.abiflags
                0x0000000000000000       0x18 build/pic32mz2048efm/production/_ext/1683951966/plib_i2c2_master.o
 .text.I2C2_CallbackRegister
                0x0000000000000000       0x1c build/pic32mz2048efm/production/_ext/1683951966/plib_i2c2_master.o
 .text.I2C2_ErrorGet
                0x0000000000000000       0x14 build/pic32mz2048efm/production/_ext/1683951966/plib_i2c2_master.o
 .text.I2C2_TransferSetup
                0x0000000000000000      0x114 build/pic32mz2048efm/production/_ext/1683951966/plib_i2c2_master.o
 .rodata.cst4   0x0000000000000000        0x8 build/pic32mz2048efm/production/_ext/1683951966/plib_i2c2_master.o
 .rodata.cst8   0x0000000000000000       0x18 build/pic32mz2048efm/production/_ext/1683951966/plib_i2c2_master.o
 .text          0x0000000000000000        0x0 build/pic32mz2048efm/production/_ext/1683951966/plib_i2c4_master.o
 .data          0x0000000000000000        0x0 build/pic32mz2048efm/production/_ext/1683951966/plib_i2c4_master.o
 .reginfo       0x0000000000000000       0x18 build/pic32mz2048efm/production/_ext/1683951966/plib_i2c4_master.o
 .MIPS.abiflags
                0x0000000000000000       0x18 build/pic32mz2048efm/production/_ext/1683951966/plib_i2c4_master.o
 .text.I2C4_CallbackRegister
                0x0000000000000000       0x1c build/pic32mz2048efm/production/_ext/1683951966/plib_i2c4_master.o
 .text.I2C4_IsBusy
                0x0000000000000000       0x5c build/pic32mz2048efm/production/_ext/1683951966/plib_i2c4_master.o
 .text.I2C4_Read
                0x0000000000000000       0x88 build/pic32mz2048efm/production/_ext/1683951966/plib_i2c4_master.o
 .text.I2C4_Write
                0x0000000000000000       0x88 build/pic32mz2048efm/production/_ext/1683951966/plib_i2c4_master.o
 .text.I2C4_WriteRead
                0x0000000000000000       0x8c build/pic32mz2048efm/production/_ext/1683951966/plib_i2c4_master.o
 .text.I2C4_ErrorGet
                0x0000000000000000       0x14 build/pic32mz2048efm/production/_ext/1683951966/plib_i2c4_master.o
 .text.I2C4_TransferSetup
                0x0000000000000000      0x114 build/pic32mz2048efm/production/_ext/1683951966/plib_i2c4_master.o
 .rodata.cst4   0x0000000000000000        0x8 build/pic32mz2048efm/production/_ext/1683951966/plib_i2c4_master.o
 .rodata.cst8   0x0000000000000000       0x18 build/pic32mz2048efm/production/_ext/1683951966/plib_i2c4_master.o
 .text          0x0000000000000000        0x0 build/pic32mz2048efm/production/_ext/1448149901/plib_rtcc.o
 .data          0x0000000000000000        0x0 build/pic32mz2048efm/production/_ext/1448149901/plib_rtcc.o
 .bss           0x0000000000000000        0x0 build/pic32mz2048efm/production/_ext/1448149901/plib_rtcc.o
 .reginfo       0x0000000000000000       0x18 build/pic32mz2048efm/production/_ext/1448149901/plib_rtcc.o
 .MIPS.abiflags
                0x0000000000000000       0x18 build/pic32mz2048efm/production/_ext/1448149901/plib_rtcc.o
 .text.RTCC_InterruptEnable
                0x0000000000000000       0x10 build/pic32mz2048efm/production/_ext/1448149901/plib_rtcc.o
 .text.RTCC_InterruptDisable
                0x0000000000000000       0x10 build/pic32mz2048efm/production/_ext/1448149901/plib_rtcc.o
 .text          0x0000000000000000        0x0 build/pic32mz2048efm/production/_ext/1007818685/plib_spi4_master.o
 .data          0x0000000000000000        0x0 build/pic32mz2048efm/production/_ext/1007818685/plib_spi4_master.o
 .reginfo       0x0000000000000000       0x18 build/pic32mz2048efm/production/_ext/1007818685/plib_spi4_master.o
 .MIPS.abiflags
                0x0000000000000000       0x18 build/pic32mz2048efm/production/_ext/1007818685/plib_spi4_master.o
 .text.SPI4_Write
                0x0000000000000000       0x20 build/pic32mz2048efm/production/_ext/1007818685/plib_spi4_master.o
 .text.SPI4_Read
                0x0000000000000000       0x28 build/pic32mz2048efm/production/_ext/1007818685/plib_spi4_master.o
 .text.SPI4_IsBusy
                0x0000000000000000       0x28 build/pic32mz2048efm/production/_ext/1007818685/plib_spi4_master.o
 .text          0x0000000000000000        0x0 build/pic32mz2048efm/production/_ext/1007818685/plib_spi5_master.o
 .data          0x0000000000000000        0x0 build/pic32mz2048efm/production/_ext/1007818685/plib_spi5_master.o
 .reginfo       0x0000000000000000       0x18 build/pic32mz2048efm/production/_ext/1007818685/plib_spi5_master.o
 .MIPS.abiflags
                0x0000000000000000       0x18 build/pic32mz2048efm/production/_ext/1007818685/plib_spi5_master.o
 .text.SPI5_TransferSetup
                0x0000000000000000       0xcc build/pic32mz2048efm/production/_ext/1007818685/plib_spi5_master.o
 .text.SPI5_IsTransmitterBusy
                0x0000000000000000       0x14 build/pic32mz2048efm/production/_ext/1007818685/plib_spi5_master.o
 .text.SPI5_WriteRead
                0x0000000000000000      0x310 build/pic32mz2048efm/production/_ext/1007818685/plib_spi5_master.o
 .text.SPI5_Write
                0x0000000000000000       0x20 build/pic32mz2048efm/production/_ext/1007818685/plib_spi5_master.o
 .text.SPI5_Read
                0x0000000000000000       0x28 build/pic32mz2048efm/production/_ext/1007818685/plib_spi5_master.o
 .text.SPI5_IsBusy
                0x0000000000000000       0x28 build/pic32mz2048efm/production/_ext/1007818685/plib_spi5_master.o
 .text.SPI5_CallbackRegister
                0x0000000000000000       0x14 build/pic32mz2048efm/production/_ext/1007818685/plib_spi5_master.o
 .text          0x0000000000000000        0x0 build/pic32mz2048efm/production/_ext/1007818685/plib_spi2_master.o
 .data          0x0000000000000000        0x0 build/pic32mz2048efm/production/_ext/1007818685/plib_spi2_master.o
 .reginfo       0x0000000000000000       0x18 build/pic32mz2048efm/production/_ext/1007818685/plib_spi2_master.o
 .MIPS.abiflags
                0x0000000000000000       0x18 build/pic32mz2048efm/production/_ext/1007818685/plib_spi2_master.o
 .text.SPI2_TransferSetup
                0x0000000000000000       0xcc build/pic32mz2048efm/production/_ext/1007818685/plib_spi2_master.o
 .text.SPI2_IsTransmitterBusy
                0x0000000000000000       0x14 build/pic32mz2048efm/production/_ext/1007818685/plib_spi2_master.o
 .text.SPI2_WriteRead
                0x0000000000000000      0x310 build/pic32mz2048efm/production/_ext/1007818685/plib_spi2_master.o
 .text.SPI2_Write
                0x0000000000000000       0x20 build/pic32mz2048efm/production/_ext/1007818685/plib_spi2_master.o
 .text.SPI2_Read
                0x0000000000000000       0x28 build/pic32mz2048efm/production/_ext/1007818685/plib_spi2_master.o
 .text.SPI2_IsBusy
                0x0000000000000000       0x28 build/pic32mz2048efm/production/_ext/1007818685/plib_spi2_master.o
 .text.SPI2_CallbackRegister
                0x0000000000000000       0x14 build/pic32mz2048efm/production/_ext/1007818685/plib_spi2_master.o
 .text          0x0000000000000000        0x0 build/pic32mz2048efm/production/_ext/1007818685/plib_spi1_master.o
 .data          0x0000000000000000        0x0 build/pic32mz2048efm/production/_ext/1007818685/plib_spi1_master.o
 .reginfo       0x0000000000000000       0x18 build/pic32mz2048efm/production/_ext/1007818685/plib_spi1_master.o
 .MIPS.abiflags
                0x0000000000000000       0x18 build/pic32mz2048efm/production/_ext/1007818685/plib_spi1_master.o
 .text.SPI1_TransferSetup
                0x0000000000000000       0xcc build/pic32mz2048efm/production/_ext/1007818685/plib_spi1_master.o
 .text.SPI1_IsTransmitterBusy
                0x0000000000000000       0x14 build/pic32mz2048efm/production/_ext/1007818685/plib_spi1_master.o
 .text.SPI1_WriteRead
                0x0000000000000000      0x310 build/pic32mz2048efm/production/_ext/1007818685/plib_spi1_master.o
 .text.SPI1_Write
                0x0000000000000000       0x20 build/pic32mz2048efm/production/_ext/1007818685/plib_spi1_master.o
 .text.SPI1_Read
                0x0000000000000000       0x28 build/pic32mz2048efm/production/_ext/1007818685/plib_spi1_master.o
 .text.SPI1_IsBusy
                0x0000000000000000       0x28 build/pic32mz2048efm/production/_ext/1007818685/plib_spi1_master.o
 .text.SPI1_CallbackRegister
                0x0000000000000000       0x14 build/pic32mz2048efm/production/_ext/1007818685/plib_spi1_master.o
 .text          0x0000000000000000        0x0 build/pic32mz2048efm/production/_ext/323810894/plib_tmr2.o
 .data          0x0000000000000000        0x0 build/pic32mz2048efm/production/_ext/323810894/plib_tmr2.o
 .bss           0x0000000000000000        0x0 build/pic32mz2048efm/production/_ext/323810894/plib_tmr2.o
 .reginfo       0x0000000000000000       0x18 build/pic32mz2048efm/production/_ext/323810894/plib_tmr2.o
 .MIPS.abiflags
                0x0000000000000000       0x18 build/pic32mz2048efm/production/_ext/323810894/plib_tmr2.o
 .text.TMR2_Stop
                0x0000000000000000       0x14 build/pic32mz2048efm/production/_ext/323810894/plib_tmr2.o
 .text.TMR2_PeriodGet
                0x0000000000000000       0x10 build/pic32mz2048efm/production/_ext/323810894/plib_tmr2.o
 .text.TMR2_CounterGet
                0x0000000000000000       0x10 build/pic32mz2048efm/production/_ext/323810894/plib_tmr2.o
 .text.TMR2_InterruptEnable
                0x0000000000000000       0x14 build/pic32mz2048efm/production/_ext/323810894/plib_tmr2.o
 .text.TMR2_InterruptDisable
                0x0000000000000000       0x14 build/pic32mz2048efm/production/_ext/323810894/plib_tmr2.o
 .text          0x0000000000000000        0x0 build/pic32mz2048efm/production/_ext/323810894/plib_tmr3.o
 .data          0x0000000000000000        0x0 build/pic32mz2048efm/production/_ext/323810894/plib_tmr3.o
 .bss           0x0000000000000000        0x0 build/pic32mz2048efm/production/_ext/323810894/plib_tmr3.o
 .reginfo       0x0000000000000000       0x18 build/pic32mz2048efm/production/_ext/323810894/plib_tmr3.o
 .MIPS.abiflags
                0x0000000000000000       0x18 build/pic32mz2048efm/production/_ext/323810894/plib_tmr3.o
 .text.TMR3_PeriodGet
                0x0000000000000000       0x10 build/pic32mz2048efm/production/_ext/323810894/plib_tmr3.o
 .text.TMR3_CounterGet
                0x0000000000000000       0x10 build/pic32mz2048efm/production/_ext/323810894/plib_tmr3.o
 .text.TMR3_InterruptEnable
                0x0000000000000000       0x14 build/pic32mz2048efm/production/_ext/323810894/plib_tmr3.o
 .text.TMR3_InterruptDisable
                0x0000000000000000       0x14 build/pic32mz2048efm/production/_ext/323810894/plib_tmr3.o
 .text          0x0000000000000000        0x0 build/pic32mz2048efm/production/_ext/1448221497/plib_uart5.o
 .data          0x0000000000000000        0x0 build/pic32mz2048efm/production/_ext/1448221497/plib_uart5.o
 .bss           0x0000000000000000        0x0 build/pic32mz2048efm/production/_ext/1448221497/plib_uart5.o
 .reginfo       0x0000000000000000       0x18 build/pic32mz2048efm/production/_ext/1448221497/plib_uart5.o
 .MIPS.abiflags
                0x0000000000000000       0x18 build/pic32mz2048efm/production/_ext/1448221497/plib_uart5.o
 .text.UART5_ErrorClear
                0x0000000000000000       0x64 build/pic32mz2048efm/production/_ext/1448221497/plib_uart5.o
 .text.UART5_SerialSetup
                0x0000000000000000      0x118 build/pic32mz2048efm/production/_ext/1448221497/plib_uart5.o
 .text.UART5_AutoBaudQuery
                0x0000000000000000       0x10 build/pic32mz2048efm/production/_ext/1448221497/plib_uart5.o
 .text.UART5_AutoBaudSet
                0x0000000000000000       0x18 build/pic32mz2048efm/production/_ext/1448221497/plib_uart5.o
 .text.UART5_Read
                0x0000000000000000       0xc0 build/pic32mz2048efm/production/_ext/1448221497/plib_uart5.o
 .text.UART5_ErrorGet
                0x0000000000000000       0x44 build/pic32mz2048efm/production/_ext/1448221497/plib_uart5.o
 .text.UART5_WriteByte
                0x0000000000000000       0x20 build/pic32mz2048efm/production/_ext/1448221497/plib_uart5.o
 .text.UART5_TransmitterIsReady
                0x0000000000000000       0x14 build/pic32mz2048efm/production/_ext/1448221497/plib_uart5.o
 .text.UART5_TransmitComplete
                0x0000000000000000       0x10 build/pic32mz2048efm/production/_ext/1448221497/plib_uart5.o
 .text.UART5_ReadByte
                0x0000000000000000       0x10 build/pic32mz2048efm/production/_ext/1448221497/plib_uart5.o
 .text.UART5_ReceiverIsReady
                0x0000000000000000       0x10 build/pic32mz2048efm/production/_ext/1448221497/plib_uart5.o
 .text          0x0000000000000000        0x0 build/pic32mz2048efm/production/_ext/1448221497/plib_uart6.o
 .data          0x0000000000000000        0x0 build/pic32mz2048efm/production/_ext/1448221497/plib_uart6.o
 .reginfo       0x0000000000000000       0x18 build/pic32mz2048efm/production/_ext/1448221497/plib_uart6.o
 .MIPS.abiflags
                0x0000000000000000       0x18 build/pic32mz2048efm/production/_ext/1448221497/plib_uart6.o
 .text.UART6_SerialSetup
                0x0000000000000000      0x128 build/pic32mz2048efm/production/_ext/1448221497/plib_uart6.o
 .text.UART6_AutoBaudQuery
                0x0000000000000000       0x10 build/pic32mz2048efm/production/_ext/1448221497/plib_uart6.o
 .text.UART6_AutoBaudSet
                0x0000000000000000       0x18 build/pic32mz2048efm/production/_ext/1448221497/plib_uart6.o
 .text.UART6_ErrorGet
                0x0000000000000000       0x18 build/pic32mz2048efm/production/_ext/1448221497/plib_uart6.o
 .text.UART6_ReadIsBusy
                0x0000000000000000        0xc build/pic32mz2048efm/production/_ext/1448221497/plib_uart6.o
 .text.UART6_ReadCountGet
                0x0000000000000000        0xc build/pic32mz2048efm/production/_ext/1448221497/plib_uart6.o
 .text.UART6_ReadAbort
                0x0000000000000000       0x3c build/pic32mz2048efm/production/_ext/1448221497/plib_uart6.o
 .text.UART6_WriteIsBusy
                0x0000000000000000        0xc build/pic32mz2048efm/production/_ext/1448221497/plib_uart6.o
 .text.UART6_WriteCountGet
                0x0000000000000000        0xc build/pic32mz2048efm/production/_ext/1448221497/plib_uart6.o
 .text          0x0000000000000000        0x0 build/pic32mz2048efm/production/_ext/1448221497/plib_uart3.o
 .data          0x0000000000000000        0x0 build/pic32mz2048efm/production/_ext/1448221497/plib_uart3.o
 .reginfo       0x0000000000000000       0x18 build/pic32mz2048efm/production/_ext/1448221497/plib_uart3.o
 .MIPS.abiflags
                0x0000000000000000       0x18 build/pic32mz2048efm/production/_ext/1448221497/plib_uart3.o
 .text.UART3_SerialSetup
                0x0000000000000000      0x128 build/pic32mz2048efm/production/_ext/1448221497/plib_uart3.o
 .text.UART3_AutoBaudQuery
                0x0000000000000000       0x10 build/pic32mz2048efm/production/_ext/1448221497/plib_uart3.o
 .text.UART3_AutoBaudSet
                0x0000000000000000       0x18 build/pic32mz2048efm/production/_ext/1448221497/plib_uart3.o
 .text.UART3_Read
                0x0000000000000000       0x90 build/pic32mz2048efm/production/_ext/1448221497/plib_uart3.o
 .text.UART3_Write
                0x0000000000000000       0xbc build/pic32mz2048efm/production/_ext/1448221497/plib_uart3.o
 .text.UART3_ErrorGet
                0x0000000000000000       0x18 build/pic32mz2048efm/production/_ext/1448221497/plib_uart3.o
 .text.UART3_ReadCallbackRegister
                0x0000000000000000       0x14 build/pic32mz2048efm/production/_ext/1448221497/plib_uart3.o
 .text.UART3_ReadIsBusy
                0x0000000000000000        0xc build/pic32mz2048efm/production/_ext/1448221497/plib_uart3.o
 .text.UART3_ReadCountGet
                0x0000000000000000        0xc build/pic32mz2048efm/production/_ext/1448221497/plib_uart3.o
 .text.UART3_ReadAbort
                0x0000000000000000       0x3c build/pic32mz2048efm/production/_ext/1448221497/plib_uart3.o
 .text.UART3_WriteCallbackRegister
                0x0000000000000000       0x14 build/pic32mz2048efm/production/_ext/1448221497/plib_uart3.o
 .text.UART3_WriteIsBusy
                0x0000000000000000        0xc build/pic32mz2048efm/production/_ext/1448221497/plib_uart3.o
 .text.UART3_WriteCountGet
                0x0000000000000000        0xc build/pic32mz2048efm/production/_ext/1448221497/plib_uart3.o
 .text          0x0000000000000000        0x0 build/pic32mz2048efm/production/_ext/1448221497/plib_uart1.o
 .data          0x0000000000000000        0x0 build/pic32mz2048efm/production/_ext/1448221497/plib_uart1.o
 .reginfo       0x0000000000000000       0x18 build/pic32mz2048efm/production/_ext/1448221497/plib_uart1.o
 .MIPS.abiflags
                0x0000000000000000       0x18 build/pic32mz2048efm/production/_ext/1448221497/plib_uart1.o
 .text.UART1_SerialSetup
                0x0000000000000000      0x128 build/pic32mz2048efm/production/_ext/1448221497/plib_uart1.o
 .text.UART1_AutoBaudQuery
                0x0000000000000000       0x10 build/pic32mz2048efm/production/_ext/1448221497/plib_uart1.o
 .text.UART1_AutoBaudSet
                0x0000000000000000       0x18 build/pic32mz2048efm/production/_ext/1448221497/plib_uart1.o
 .text.UART1_Read
                0x0000000000000000       0x90 build/pic32mz2048efm/production/_ext/1448221497/plib_uart1.o
 .text.UART1_Write
                0x0000000000000000       0xbc build/pic32mz2048efm/production/_ext/1448221497/plib_uart1.o
 .text.UART1_ErrorGet
                0x0000000000000000       0x18 build/pic32mz2048efm/production/_ext/1448221497/plib_uart1.o
 .text.UART1_ReadCallbackRegister
                0x0000000000000000       0x14 build/pic32mz2048efm/production/_ext/1448221497/plib_uart1.o
 .text.UART1_ReadIsBusy
                0x0000000000000000        0xc build/pic32mz2048efm/production/_ext/1448221497/plib_uart1.o
 .text.UART1_ReadCountGet
                0x0000000000000000        0xc build/pic32mz2048efm/production/_ext/1448221497/plib_uart1.o
 .text.UART1_ReadAbort
                0x0000000000000000       0x3c build/pic32mz2048efm/production/_ext/1448221497/plib_uart1.o
 .text.UART1_WriteCallbackRegister
                0x0000000000000000       0x14 build/pic32mz2048efm/production/_ext/1448221497/plib_uart1.o
 .text.UART1_WriteIsBusy
                0x0000000000000000        0xc build/pic32mz2048efm/production/_ext/1448221497/plib_uart1.o
 .text.UART1_WriteCountGet
                0x0000000000000000        0xc build/pic32mz2048efm/production/_ext/1448221497/plib_uart1.o
 .text          0x0000000000000000        0x0 build/pic32mz2048efm/production/_ext/1448221497/plib_uart2.o
 .data          0x0000000000000000        0x0 build/pic32mz2048efm/production/_ext/1448221497/plib_uart2.o
 .reginfo       0x0000000000000000       0x18 build/pic32mz2048efm/production/_ext/1448221497/plib_uart2.o
 .MIPS.abiflags
                0x0000000000000000       0x18 build/pic32mz2048efm/production/_ext/1448221497/plib_uart2.o
 .text.UART2_SerialSetup
                0x0000000000000000      0x128 build/pic32mz2048efm/production/_ext/1448221497/plib_uart2.o
 .text.UART2_AutoBaudQuery
                0x0000000000000000       0x10 build/pic32mz2048efm/production/_ext/1448221497/plib_uart2.o
 .text.UART2_AutoBaudSet
                0x0000000000000000       0x18 build/pic32mz2048efm/production/_ext/1448221497/plib_uart2.o
 .text.UART2_ErrorGet
                0x0000000000000000       0x18 build/pic32mz2048efm/production/_ext/1448221497/plib_uart2.o
 .text.UART2_ReadIsBusy
                0x0000000000000000        0xc build/pic32mz2048efm/production/_ext/1448221497/plib_uart2.o
 .text.UART2_ReadCountGet
                0x0000000000000000        0xc build/pic32mz2048efm/production/_ext/1448221497/plib_uart2.o
 .text.UART2_ReadAbort
                0x0000000000000000       0x3c build/pic32mz2048efm/production/_ext/1448221497/plib_uart2.o
 .text.UART2_WriteCountGet
                0x0000000000000000        0xc build/pic32mz2048efm/production/_ext/1448221497/plib_uart2.o
 .text          0x0000000000000000        0x0 build/pic32mz2048efm/production/_ext/323813500/plib_wdt.o
 .data          0x0000000000000000        0x0 build/pic32mz2048efm/production/_ext/323813500/plib_wdt.o
 .bss           0x0000000000000000        0x0 build/pic32mz2048efm/production/_ext/323813500/plib_wdt.o
 .reginfo       0x0000000000000000       0x18 build/pic32mz2048efm/production/_ext/323813500/plib_wdt.o
 .MIPS.abiflags
                0x0000000000000000       0x18 build/pic32mz2048efm/production/_ext/323813500/plib_wdt.o
 .text.WDT_Enable
                0x0000000000000000       0x1c build/pic32mz2048efm/production/_ext/323813500/plib_wdt.o
 .text.WDT_Disable
                0x0000000000000000       0x18 build/pic32mz2048efm/production/_ext/323813500/plib_wdt.o
 .text.WDT_WindowEnable
                0x0000000000000000       0x1c build/pic32mz2048efm/production/_ext/323813500/plib_wdt.o
 .text.WDT_WindowDisable
                0x0000000000000000       0x18 build/pic32mz2048efm/production/_ext/323813500/plib_wdt.o
 .text.WDT_Clear
                0x0000000000000000       0x18 build/pic32mz2048efm/production/_ext/323813500/plib_wdt.o
 .text          0x0000000000000000        0x0 build/pic32mz2048efm/production/_ext/1212781247/xc32_monitor.o
 .data          0x0000000000000000        0x0 build/pic32mz2048efm/production/_ext/1212781247/xc32_monitor.o
 .bss           0x0000000000000000        0x0 build/pic32mz2048efm/production/_ext/1212781247/xc32_monitor.o
 .reginfo       0x0000000000000000       0x18 build/pic32mz2048efm/production/_ext/1212781247/xc32_monitor.o
 .MIPS.abiflags
                0x0000000000000000       0x18 build/pic32mz2048efm/production/_ext/1212781247/xc32_monitor.o
 .text._mon_getc
                0x0000000000000000       0x30 build/pic32mz2048efm/production/_ext/1212781247/xc32_monitor.o
 .text          0x0000000000000000        0x0 build/pic32mz2048efm/production/_ext/191419926/sys_cache.o
 .data          0x0000000000000000        0x0 build/pic32mz2048efm/production/_ext/191419926/sys_cache.o
 .bss           0x0000000000000000        0x0 build/pic32mz2048efm/production/_ext/191419926/sys_cache.o
 .reginfo       0x0000000000000000       0x18 build/pic32mz2048efm/production/_ext/191419926/sys_cache.o
 .MIPS.abiflags
                0x0000000000000000       0x18 build/pic32mz2048efm/production/_ext/191419926/sys_cache.o
 .text.SYS_CACHE_EnableCaches
                0x0000000000000000       0x1c build/pic32mz2048efm/production/_ext/191419926/sys_cache.o
 .text.SYS_CACHE_DisableCaches
                0x0000000000000000       0x1c build/pic32mz2048efm/production/_ext/191419926/sys_cache.o
 .text.SYS_CACHE_EnableICache
                0x0000000000000000       0x1c build/pic32mz2048efm/production/_ext/191419926/sys_cache.o
 .text.SYS_CACHE_DisableICache
                0x0000000000000000       0x1c build/pic32mz2048efm/production/_ext/191419926/sys_cache.o
 .text.SYS_CACHE_EnableDCache
                0x0000000000000000       0x1c build/pic32mz2048efm/production/_ext/191419926/sys_cache.o
 .text.SYS_CACHE_DisableDCache
                0x0000000000000000       0x1c build/pic32mz2048efm/production/_ext/191419926/sys_cache.o
 .text.SYS_CACHE_CleanDCache
                0x0000000000000000       0x1c build/pic32mz2048efm/production/_ext/191419926/sys_cache.o
 .text.SYS_CACHE_CleanInvalidateDCache
                0x0000000000000000       0x38 build/pic32mz2048efm/production/_ext/191419926/sys_cache.o
 .text.SYS_CACHE_InvalidateICache
                0x0000000000000000       0x38 build/pic32mz2048efm/production/_ext/191419926/sys_cache.o
 .text.SYS_CACHE_InvalidateDCache
                0x0000000000000000       0x38 build/pic32mz2048efm/production/_ext/191419926/sys_cache.o
 .text.SYS_CACHE_CleanInvalidateDCache_by_Addr
                0x0000000000000000       0x4c build/pic32mz2048efm/production/_ext/191419926/sys_cache.o
 .text          0x0000000000000000        0x0 build/pic32mz2048efm/production/_ext/1336113504/sys_dma.o
 .data          0x0000000000000000        0x0 build/pic32mz2048efm/production/_ext/1336113504/sys_dma.o
 .bss           0x0000000000000000        0x0 build/pic32mz2048efm/production/_ext/1336113504/sys_dma.o
 .reginfo       0x0000000000000000       0x18 build/pic32mz2048efm/production/_ext/1336113504/sys_dma.o
 .MIPS.abiflags
                0x0000000000000000       0x18 build/pic32mz2048efm/production/_ext/1336113504/sys_dma.o
 .text.SYS_DMA_AddressingModeSetup
                0x0000000000000000        0x8 build/pic32mz2048efm/production/_ext/1336113504/sys_dma.o
 .text.SYS_DMA_DataWidthSetup
                0x0000000000000000        0x8 build/pic32mz2048efm/production/_ext/1336113504/sys_dma.o
 .text.SYS_DMA_ChannelTransfer
                0x0000000000000000        0x8 build/pic32mz2048efm/production/_ext/1336113504/sys_dma.o
 .text          0x0000000000000000        0x0 build/pic32mz2048efm/production/_ext/1225530592/ff.o
 .data          0x0000000000000000        0x0 build/pic32mz2048efm/production/_ext/1225530592/ff.o
 .reginfo       0x0000000000000000       0x18 build/pic32mz2048efm/production/_ext/1225530592/ff.o
 .MIPS.abiflags
                0x0000000000000000       0x18 build/pic32mz2048efm/production/_ext/1225530592/ff.o
 .text          0x0000000000000000        0x0 build/pic32mz2048efm/production/_ext/1225530592/ffunicode.o
 .data          0x0000000000000000        0x0 build/pic32mz2048efm/production/_ext/1225530592/ffunicode.o
 .bss           0x0000000000000000        0x0 build/pic32mz2048efm/production/_ext/1225530592/ffunicode.o
 .reginfo       0x0000000000000000       0x18 build/pic32mz2048efm/production/_ext/1225530592/ffunicode.o
 .MIPS.abiflags
                0x0000000000000000       0x18 build/pic32mz2048efm/production/_ext/1225530592/ffunicode.o
 .text          0x0000000000000000        0x0 build/pic32mz2048efm/production/_ext/1545496361/diskio.o
 .data          0x0000000000000000        0x0 build/pic32mz2048efm/production/_ext/1545496361/diskio.o
 .bss           0x0000000000000000        0x0 build/pic32mz2048efm/production/_ext/1545496361/diskio.o
 .reginfo       0x0000000000000000       0x18 build/pic32mz2048efm/production/_ext/1545496361/diskio.o
 .MIPS.abiflags
                0x0000000000000000       0x18 build/pic32mz2048efm/production/_ext/1545496361/diskio.o
 .text          0x0000000000000000        0x0 build/pic32mz2048efm/production/_ext/1538077638/sys_fs.o
 .data          0x0000000000000000        0x0 build/pic32mz2048efm/production/_ext/1538077638/sys_fs.o
 .reginfo       0x0000000000000000       0x18 build/pic32mz2048efm/production/_ext/1538077638/sys_fs.o
 .MIPS.abiflags
                0x0000000000000000       0x18 build/pic32mz2048efm/production/_ext/1538077638/sys_fs.o
 .rodata.str1.4
                0x0000000000000000        0x8 build/pic32mz2048efm/production/_ext/1538077638/sys_fs.o
 .text.SYS_FS_GetDisk
                0x0000000000000000      0x160 build/pic32mz2048efm/production/_ext/1538077638/sys_fs.o
 .text.SYS_FS_Mount
                0x0000000000000000      0x268 build/pic32mz2048efm/production/_ext/1538077638/sys_fs.o
 .text.SYS_FS_Unmount
                0x0000000000000000      0x154 build/pic32mz2048efm/production/_ext/1538077638/sys_fs.o
 .text.SYS_FS_FileOpen
                0x0000000000000000      0x1f4 build/pic32mz2048efm/production/_ext/1538077638/sys_fs.o
 .text.SYS_FS_FileClose
                0x0000000000000000       0xc8 build/pic32mz2048efm/production/_ext/1538077638/sys_fs.o
 .text.SYS_FS_FileNameGet
                0x0000000000000000       0x84 build/pic32mz2048efm/production/_ext/1538077638/sys_fs.o
 .text.SYS_FS_FileRead
                0x0000000000000000       0xc8 build/pic32mz2048efm/production/_ext/1538077638/sys_fs.o
 .text.SYS_FS_FileSeek
                0x0000000000000000      0x174 build/pic32mz2048efm/production/_ext/1538077638/sys_fs.o
 .text.SYS_FS_FileTell
                0x0000000000000000       0xc0 build/pic32mz2048efm/production/_ext/1538077638/sys_fs.o
 .text.SYS_FS_FileSize
                0x0000000000000000       0xc0 build/pic32mz2048efm/production/_ext/1538077638/sys_fs.o
 .text.SYS_FS_FileEOF
                0x0000000000000000       0xb0 build/pic32mz2048efm/production/_ext/1538077638/sys_fs.o
 .text.SYS_FS_FileStat
                0x0000000000000000       0xdc build/pic32mz2048efm/production/_ext/1538077638/sys_fs.o
 .text.SYS_FS_Error
                0x0000000000000000        0x8 build/pic32mz2048efm/production/_ext/1538077638/sys_fs.o
 .text.SYS_FS_FileError
                0x0000000000000000       0x30 build/pic32mz2048efm/production/_ext/1538077638/sys_fs.o
 .text.SYS_FS_DirOpen
                0x0000000000000000      0x15c build/pic32mz2048efm/production/_ext/1538077638/sys_fs.o
 .text.SYS_FS_DirClose
                0x0000000000000000       0xc8 build/pic32mz2048efm/production/_ext/1538077638/sys_fs.o
 .text.SYS_FS_DirRead
                0x0000000000000000       0xc8 build/pic32mz2048efm/production/_ext/1538077638/sys_fs.o
 .text.SYS_FS_DirRewind
                0x0000000000000000       0xc4 build/pic32mz2048efm/production/_ext/1538077638/sys_fs.o
 .text.SYS_FS_DirSearch
                0x0000000000000000      0x260 build/pic32mz2048efm/production/_ext/1538077638/sys_fs.o
 .text.SYS_FS_FileStringGet
                0x0000000000000000       0xec build/pic32mz2048efm/production/_ext/1538077638/sys_fs.o
 .text.SYS_FS_DirectoryChange
                0x0000000000000000       0xc8 build/pic32mz2048efm/production/_ext/1538077638/sys_fs.o
 .text.SYS_FS_CurrentWorkingDirectoryGet
                0x0000000000000000      0x1c8 build/pic32mz2048efm/production/_ext/1538077638/sys_fs.o
 .text.SYS_FS_CurrentDriveGet
                0x0000000000000000       0x7c build/pic32mz2048efm/production/_ext/1538077638/sys_fs.o
 .text.SYS_FS_DriveLabelGet
                0x0000000000000000       0xf8 build/pic32mz2048efm/production/_ext/1538077638/sys_fs.o
 .text.SYS_FS_FileWrite
                0x0000000000000000       0xcc build/pic32mz2048efm/production/_ext/1538077638/sys_fs.o
 .text.SYS_FS_FileSync
                0x0000000000000000       0xc0 build/pic32mz2048efm/production/_ext/1538077638/sys_fs.o
 .text.SYS_FS_FileTruncate
                0x0000000000000000       0xb4 build/pic32mz2048efm/production/_ext/1538077638/sys_fs.o
 .text.SYS_FS_FileCharacterPut
                0x0000000000000000       0xd8 build/pic32mz2048efm/production/_ext/1538077638/sys_fs.o
 .text.SYS_FS_FileStringPut
                0x0000000000000000       0xd4 build/pic32mz2048efm/production/_ext/1538077638/sys_fs.o
 .text.SYS_FS_FilePrintf
                0x0000000000000000       0xe8 build/pic32mz2048efm/production/_ext/1538077638/sys_fs.o
 .text.SYS_FS_FileTestError
                0x0000000000000000       0xb0 build/pic32mz2048efm/production/_ext/1538077638/sys_fs.o
 .text.SYS_FS_DirectoryMake
                0x0000000000000000       0xc8 build/pic32mz2048efm/production/_ext/1538077638/sys_fs.o
 .text.SYS_FS_FileDirectoryRemove
                0x0000000000000000       0xc8 build/pic32mz2048efm/production/_ext/1538077638/sys_fs.o
 .text.SYS_FS_FileDirectoryModeSet
                0x0000000000000000       0xe8 build/pic32mz2048efm/production/_ext/1538077638/sys_fs.o
 .text.SYS_FS_FileDirectoryTimeSet
                0x0000000000000000       0xec build/pic32mz2048efm/production/_ext/1538077638/sys_fs.o
 .text.SYS_FS_FileDirectoryRenameMove
                0x0000000000000000      0x104 build/pic32mz2048efm/production/_ext/1538077638/sys_fs.o
 .text.SYS_FS_CurrentDriveSet
                0x0000000000000000       0xe0 build/pic32mz2048efm/production/_ext/1538077638/sys_fs.o
 .text.SYS_FS_DriveLabelSet
                0x0000000000000000      0x114 build/pic32mz2048efm/production/_ext/1538077638/sys_fs.o
 .text.SYS_FS_DriveFormat
                0x0000000000000000       0xcc build/pic32mz2048efm/production/_ext/1538077638/sys_fs.o
 .text.SYS_FS_DrivePartition
                0x0000000000000000       0xc0 build/pic32mz2048efm/production/_ext/1538077638/sys_fs.o
 .text.SYS_FS_DriveSectorGet
                0x0000000000000000      0x108 build/pic32mz2048efm/production/_ext/1538077638/sys_fs.o
 .text          0x0000000000000000        0x0 build/pic32mz2048efm/production/_ext/1538077638/sys_fs_media_manager.o
 .reginfo       0x0000000000000000       0x18 build/pic32mz2048efm/production/_ext/1538077638/sys_fs_media_manager.o
 .MIPS.abiflags
                0x0000000000000000       0x18 build/pic32mz2048efm/production/_ext/1538077638/sys_fs_media_manager.o
 .text.SYS_FS_MEDIA_MANAGER_DeRegister
                0x0000000000000000       0x18 build/pic32mz2048efm/production/_ext/1538077638/sys_fs_media_manager.o
 .text.SYS_FS_MEDIA_MANAGER_Read
                0x0000000000000000       0xc4 build/pic32mz2048efm/production/_ext/1538077638/sys_fs_media_manager.o
 .text.SYS_FS_MEDIA_MANAGER_AddressGet
                0x0000000000000000       0x3c build/pic32mz2048efm/production/_ext/1538077638/sys_fs_media_manager.o
 .text.SYS_FS_MEDIA_MANAGER_CommandStatusGet
                0x0000000000000000       0x50 build/pic32mz2048efm/production/_ext/1538077638/sys_fs_media_manager.o
 .text.SYS_FS_MEDIA_MANAGER_MediaStatusGet
                0x0000000000000000       0xb4 build/pic32mz2048efm/production/_ext/1538077638/sys_fs_media_manager.o
 .text.SYS_FS_MEDIA_MANAGER_VolumePropertyGet
                0x0000000000000000       0x74 build/pic32mz2048efm/production/_ext/1538077638/sys_fs_media_manager.o
 .text          0x0000000000000000        0x0 build/pic32mz2048efm/production/_ext/1538077638/sys_fs_fat_interface.o
 .data          0x0000000000000000        0x0 build/pic32mz2048efm/production/_ext/1538077638/sys_fs_fat_interface.o
 .bss           0x0000000000000000        0x0 build/pic32mz2048efm/production/_ext/1538077638/sys_fs_fat_interface.o
 .reginfo       0x0000000000000000       0x18 build/pic32mz2048efm/production/_ext/1538077638/sys_fs_fat_interface.o
 .MIPS.abiflags
                0x0000000000000000       0x18 build/pic32mz2048efm/production/_ext/1538077638/sys_fs_fat_interface.o
 .text.FATFS_getfree
                0x0000000000000000       0x1c build/pic32mz2048efm/production/_ext/1538077638/sys_fs_fat_interface.o
 .text          0x0000000000000000        0x0 build/pic32mz2048efm/production/_ext/2145297452/sys_int.o
 .data          0x0000000000000000        0x0 build/pic32mz2048efm/production/_ext/2145297452/sys_int.o
 .bss           0x0000000000000000        0x0 build/pic32mz2048efm/production/_ext/2145297452/sys_int.o
 .reginfo       0x0000000000000000       0x18 build/pic32mz2048efm/production/_ext/2145297452/sys_int.o
 .MIPS.abiflags
                0x0000000000000000       0x18 build/pic32mz2048efm/production/_ext/2145297452/sys_int.o
 .text.SYS_INT_Enable
                0x0000000000000000       0x1c build/pic32mz2048efm/production/_ext/2145297452/sys_int.o
 .text          0x0000000000000000        0x0 build/pic32mz2048efm/production/_ext/519320518/sys_time.o
 .data          0x0000000000000000        0x0 build/pic32mz2048efm/production/_ext/519320518/sys_time.o
 .reginfo       0x0000000000000000       0x18 build/pic32mz2048efm/production/_ext/519320518/sys_time.o
 .MIPS.abiflags
                0x0000000000000000       0x18 build/pic32mz2048efm/production/_ext/519320518/sys_time.o
 .text.SYS_TIME_Deinitialize
                0x0000000000000000       0x8c build/pic32mz2048efm/production/_ext/519320518/sys_time.o
 .text.SYS_TIME_Status
                0x0000000000000000       0x24 build/pic32mz2048efm/production/_ext/519320518/sys_time.o
 .text.SYS_TIME_FrequencyGet
                0x0000000000000000        0xc build/pic32mz2048efm/production/_ext/519320518/sys_time.o
 .text.SYS_TIME_Counter64Get
                0x0000000000000000       0x5c build/pic32mz2048efm/production/_ext/519320518/sys_time.o
 .text.SYS_TIME_CounterGet
                0x0000000000000000       0x1c build/pic32mz2048efm/production/_ext/519320518/sys_time.o
 .text.SYS_TIME_CounterSet
                0x0000000000000000       0x48 build/pic32mz2048efm/production/_ext/519320518/sys_time.o
 .text.SYS_TIME_CountToUS
                0x0000000000000000       0x84 build/pic32mz2048efm/production/_ext/519320518/sys_time.o
 .text.SYS_TIME_CountToMS
                0x0000000000000000       0x64 build/pic32mz2048efm/production/_ext/519320518/sys_time.o
 .text.SYS_TIME_USToCount
                0x0000000000000000       0x38 build/pic32mz2048efm/production/_ext/519320518/sys_time.o
 .text.SYS_TIME_MSToCount
                0x0000000000000000       0x34 build/pic32mz2048efm/production/_ext/519320518/sys_time.o
 .text.SYS_TIME_TimerCreate
                0x0000000000000000       0x30 build/pic32mz2048efm/production/_ext/519320518/sys_time.o
 .text.SYS_TIME_TimerReload
                0x0000000000000000       0xfc build/pic32mz2048efm/production/_ext/519320518/sys_time.o
 .text.SYS_TIME_TimerStop
                0x0000000000000000       0x88 build/pic32mz2048efm/production/_ext/519320518/sys_time.o
 .text.SYS_TIME_TimerCounterGet
                0x0000000000000000       0xc4 build/pic32mz2048efm/production/_ext/519320518/sys_time.o
 .text.SYS_TIME_TimerPeriodHasExpired
                0x0000000000000000       0x5c build/pic32mz2048efm/production/_ext/519320518/sys_time.o
 .text.SYS_TIME_DelayUS
                0x0000000000000000       0xa0 build/pic32mz2048efm/production/_ext/519320518/sys_time.o
 .text.SYS_TIME_DelayMS
                0x0000000000000000       0x9c build/pic32mz2048efm/production/_ext/519320518/sys_time.o
 .text.SYS_TIME_DelayIsComplete
                0x0000000000000000       0x48 build/pic32mz2048efm/production/_ext/519320518/sys_time.o
 .text.SYS_TIME_CallbackRegisterUS
                0x0000000000000000       0xb0 build/pic32mz2048efm/production/_ext/519320518/sys_time.o
 .text          0x0000000000000000        0x0 build/pic32mz2048efm/production/_ext/196169617/usb_device.o
 .data          0x0000000000000000        0x0 build/pic32mz2048efm/production/_ext/196169617/usb_device.o
 .reginfo       0x0000000000000000       0x18 build/pic32mz2048efm/production/_ext/196169617/usb_device.o
 .MIPS.abiflags
                0x0000000000000000       0x18 build/pic32mz2048efm/production/_ext/196169617/usb_device.o
 .text.USB_DEVICE_Status
                0x0000000000000000       0x44 build/pic32mz2048efm/production/_ext/196169617/usb_device.o
 .text.USB_DEVICE_Deinitialize
                0x0000000000000000       0x40 build/pic32mz2048efm/production/_ext/196169617/usb_device.o
 .text.USB_DEVICE_Open
                0x0000000000000000       0x58 build/pic32mz2048efm/production/_ext/196169617/usb_device.o
 .text._USB_DEVICE_EventHandler
                0x0000000000000000      0x208 build/pic32mz2048efm/production/_ext/196169617/usb_device.o
 .text.USB_DEVICE_Attach
                0x0000000000000000       0x48 build/pic32mz2048efm/production/_ext/196169617/usb_device.o
 .text.USB_DEVICE_Detach
                0x0000000000000000       0x50 build/pic32mz2048efm/production/_ext/196169617/usb_device.o
 .text.USB_DEVICE_EndpointIsEnabled
                0x0000000000000000       0x44 build/pic32mz2048efm/production/_ext/196169617/usb_device.o
 .text.USB_DEVICE_EndpointStall
                0x0000000000000000       0x3c build/pic32mz2048efm/production/_ext/196169617/usb_device.o
 .text.USB_DEVICE_EndpointStallClear
                0x0000000000000000       0x3c build/pic32mz2048efm/production/_ext/196169617/usb_device.o
 .text.USB_DEVICE_EndpointIsStalled
                0x0000000000000000       0x44 build/pic32mz2048efm/production/_ext/196169617/usb_device.o
 .text.USB_DEVICE_IsSuspended
                0x0000000000000000       0x2c build/pic32mz2048efm/production/_ext/196169617/usb_device.o
 .text.USB_DEVICE_StateGet
                0x0000000000000000       0x2c build/pic32mz2048efm/production/_ext/196169617/usb_device.o
 .text.USB_DEVICE_Close
                0x0000000000000000       0x2c build/pic32mz2048efm/production/_ext/196169617/usb_device.o
 .text.USB_DEVICE_ClientStatusGet
                0x0000000000000000       0x28 build/pic32mz2048efm/production/_ext/196169617/usb_device.o
 .text.USB_DEVICE_EventHandlerSet
                0x0000000000000000       0x58 build/pic32mz2048efm/production/_ext/196169617/usb_device.o
 .text.USB_DEVICE_ActiveConfigurationGet
                0x0000000000000000       0x28 build/pic32mz2048efm/production/_ext/196169617/usb_device.o
 .text.USB_DEVICE_ActiveSpeedGet
                0x0000000000000000       0x2c build/pic32mz2048efm/production/_ext/196169617/usb_device.o
 .text.USB_DEVICE_ControlReceive
                0x0000000000000000       0x48 build/pic32mz2048efm/production/_ext/196169617/usb_device.o
 .text.USB_DEVICE_PowerStateSet
                0x0000000000000000       0x38 build/pic32mz2048efm/production/_ext/196169617/usb_device.o
 .text.USB_DEVICE_RemoteWakeupStatusGet
                0x0000000000000000       0x28 build/pic32mz2048efm/production/_ext/196169617/usb_device.o
 .text.USB_DEVICE_RemoteWakeupStop
                0x0000000000000000       0x34 build/pic32mz2048efm/production/_ext/196169617/usb_device.o
 .text.USB_DEVICE_RemoteWakeupStart
                0x0000000000000000       0x34 build/pic32mz2048efm/production/_ext/196169617/usb_device.o
 .text.USB_DEVICE_IRPSubmit
                0x0000000000000000       0x54 build/pic32mz2048efm/production/_ext/196169617/usb_device.o
 .text.USB_DEVICE_IRPCancel
                0x0000000000000000       0x44 build/pic32mz2048efm/production/_ext/196169617/usb_device.o
 .text._USB_DEVICE_EndpointMutexCreateFunction
                0x0000000000000000       0x1c build/pic32mz2048efm/production/_ext/196169617/usb_device.o
 .text._USB_DEVICE_EndpointMutexDeleteFunction
                0x0000000000000000        0x8 build/pic32mz2048efm/production/_ext/196169617/usb_device.o
 .text._USB_DEVICE_GetStringDescriptorRequestProcessAdvanced
                0x0000000000000000       0xac build/pic32mz2048efm/production/_ext/196169617/usb_device.o
 .text          0x0000000000000000        0x0 build/pic32mz2048efm/production/_ext/196169617/usb_device_cdc.o
 .data          0x0000000000000000        0x0 build/pic32mz2048efm/production/_ext/196169617/usb_device_cdc.o
 .reginfo       0x0000000000000000       0x18 build/pic32mz2048efm/production/_ext/196169617/usb_device_cdc.o
 .MIPS.abiflags
                0x0000000000000000       0x18 build/pic32mz2048efm/production/_ext/196169617/usb_device_cdc.o
 .text._USB_DEVICE_CDC_SerialStateSendIRPCallback
                0x0000000000000000       0xc0 build/pic32mz2048efm/production/_ext/196169617/usb_device_cdc.o
 .text._USB_DEVICE_CDC_ReadIRPCallback
                0x0000000000000000       0xc0 build/pic32mz2048efm/production/_ext/196169617/usb_device_cdc.o
 .text._USB_DEVICE_CDC_WriteIRPCallback
                0x0000000000000000       0xc0 build/pic32mz2048efm/production/_ext/196169617/usb_device_cdc.o
 .text.USB_DEVICE_CDC_Read
                0x0000000000000000      0x1ac build/pic32mz2048efm/production/_ext/196169617/usb_device_cdc.o
 .text.USB_DEVICE_CDC_Write
                0x0000000000000000      0x1c8 build/pic32mz2048efm/production/_ext/196169617/usb_device_cdc.o
 .text.USB_DEVICE_CDC_EventHandlerSet
                0x0000000000000000       0x38 build/pic32mz2048efm/production/_ext/196169617/usb_device_cdc.o
 .text.USB_DEVICE_CDC_ReadPacketSizeGet
                0x0000000000000000       0x1c build/pic32mz2048efm/production/_ext/196169617/usb_device_cdc.o
 .text.USB_DEVICE_CDC_WritePacketSizeGet
                0x0000000000000000       0x1c build/pic32mz2048efm/production/_ext/196169617/usb_device_cdc.o
 .text.USB_DEVICE_CDC_SerialStateNotificationSend
                0x0000000000000000      0x1d4 build/pic32mz2048efm/production/_ext/196169617/usb_device_cdc.o
 .text          0x0000000000000000        0x0 build/pic32mz2048efm/production/_ext/196169617/usb_device_cdc_acm.o
 .data          0x0000000000000000        0x0 build/pic32mz2048efm/production/_ext/196169617/usb_device_cdc_acm.o
 .bss           0x0000000000000000        0x0 build/pic32mz2048efm/production/_ext/196169617/usb_device_cdc_acm.o
 .reginfo       0x0000000000000000       0x18 build/pic32mz2048efm/production/_ext/196169617/usb_device_cdc_acm.o
 .MIPS.abiflags
                0x0000000000000000       0x18 build/pic32mz2048efm/production/_ext/196169617/usb_device_cdc_acm.o
 .text          0x0000000000000000        0x0 build/pic32mz2048efm/production/_ext/2011215161/usb_device_init_data.o
 .data          0x0000000000000000        0x0 build/pic32mz2048efm/production/_ext/2011215161/usb_device_init_data.o
 .bss           0x0000000000000000        0x0 build/pic32mz2048efm/production/_ext/2011215161/usb_device_init_data.o
 .reginfo       0x0000000000000000       0x18 build/pic32mz2048efm/production/_ext/2011215161/usb_device_init_data.o
 .MIPS.abiflags
                0x0000000000000000       0x18 build/pic32mz2048efm/production/_ext/2011215161/usb_device_init_data.o
 .text          0x0000000000000000        0x0 build/pic32mz2048efm/production/_ext/2011215161/tasks.o
 .data          0x0000000000000000        0x0 build/pic32mz2048efm/production/_ext/2011215161/tasks.o
 .bss           0x0000000000000000        0x0 build/pic32mz2048efm/production/_ext/2011215161/tasks.o
 .reginfo       0x0000000000000000       0x18 build/pic32mz2048efm/production/_ext/2011215161/tasks.o
 .MIPS.abiflags
                0x0000000000000000       0x18 build/pic32mz2048efm/production/_ext/2011215161/tasks.o
 .text          0x0000000000000000        0x0 build/pic32mz2048efm/production/_ext/2011215161/initialization.o
 .data          0x0000000000000000        0x0 build/pic32mz2048efm/production/_ext/2011215161/initialization.o
 .reginfo       0x0000000000000000       0x18 build/pic32mz2048efm/production/_ext/2011215161/initialization.o
 .MIPS.abiflags
                0x0000000000000000       0x18 build/pic32mz2048efm/production/_ext/2011215161/initialization.o
 .text          0x0000000000000000        0x0 build/pic32mz2048efm/production/_ext/2011215161/interrupts.o
 .data          0x0000000000000000        0x0 build/pic32mz2048efm/production/_ext/2011215161/interrupts.o
 .bss           0x0000000000000000        0x0 build/pic32mz2048efm/production/_ext/2011215161/interrupts.o
 .reginfo       0x0000000000000000       0x18 build/pic32mz2048efm/production/_ext/2011215161/interrupts.o
 .MIPS.abiflags
                0x0000000000000000       0x18 build/pic32mz2048efm/production/_ext/2011215161/interrupts.o
 .text          0x0000000000000000        0x0 build/pic32mz2048efm/production/_ext/2011215161/exceptions.o
 .data          0x0000000000000000        0x0 build/pic32mz2048efm/production/_ext/2011215161/exceptions.o
 .bss           0x0000000000000000        0x0 build/pic32mz2048efm/production/_ext/2011215161/exceptions.o
 .reginfo       0x0000000000000000       0x18 build/pic32mz2048efm/production/_ext/2011215161/exceptions.o
 .MIPS.abiflags
                0x0000000000000000       0x18 build/pic32mz2048efm/production/_ext/2011215161/exceptions.o
 .text          0x0000000000000000        0x0 build/pic32mz2048efm/production/_ext/858502545/figaro_gpr_fit.o
 .data          0x0000000000000000        0x0 build/pic32mz2048efm/production/_ext/858502545/figaro_gpr_fit.o
 .bss           0x0000000000000000        0x0 build/pic32mz2048efm/production/_ext/858502545/figaro_gpr_fit.o
 .reginfo       0x0000000000000000       0x18 build/pic32mz2048efm/production/_ext/858502545/figaro_gpr_fit.o
 .MIPS.abiflags
                0x0000000000000000       0x18 build/pic32mz2048efm/production/_ext/858502545/figaro_gpr_fit.o
 .text.figaro_hill_func
                0x0000000000000000      0x118 build/pic32mz2048efm/production/_ext/858502545/figaro_gpr_fit.o
 .text.figaro_imaginary_hill_func_fit
                0x0000000000000000      0x188 build/pic32mz2048efm/production/_ext/858502545/figaro_gpr_fit.o
 .text.figaro_imaginary_hill_func_fit_default
                0x0000000000000000       0xa0 build/pic32mz2048efm/production/_ext/858502545/figaro_gpr_fit.o
 .text.dotProduct
                0x0000000000000000       0x44 build/pic32mz2048efm/production/_ext/858502545/figaro_gpr_fit.o
 .text.predFigaroGPRImag6Param
                0x0000000000000000       0xa0 build/pic32mz2048efm/production/_ext/858502545/figaro_gpr_fit.o
 .text.predFigaroGPRR2Param
                0x0000000000000000       0x78 build/pic32mz2048efm/production/_ext/858502545/figaro_gpr_fit.o
 .text.figaro_r_t_rh_calibration_realimag
                0x0000000000000000       0x50 build/pic32mz2048efm/production/_ext/858502545/figaro_gpr_fit.o
 .text.convert_polar_to_realimag
                0x0000000000000000       0xd4 build/pic32mz2048efm/production/_ext/858502545/figaro_gpr_fit.o
 .text.figaro_r_t_rh_calibration_error
                0x0000000000000000       0xe8 build/pic32mz2048efm/production/_ext/858502545/figaro_gpr_fit.o
 .text.figaro_r_t_rh_calibration
                0x0000000000000000       0x50 build/pic32mz2048efm/production/_ext/858502545/figaro_gpr_fit.o
 .text.convert_T_RH_to_AH
                0x0000000000000000       0x78 build/pic32mz2048efm/production/_ext/858502545/figaro_gpr_fit.o
 .text.figaro_r_ah_calibration_realimag_error
                0x0000000000000000       0xa0 build/pic32mz2048efm/production/_ext/858502545/figaro_gpr_fit.o
 .text.figaro_r_ah_calibration_realimag
                0x0000000000000000       0x50 build/pic32mz2048efm/production/_ext/858502545/figaro_gpr_fit.o
 .text.figaro_r_ah_calibration_error
                0x0000000000000000       0xec build/pic32mz2048efm/production/_ext/858502545/figaro_gpr_fit.o
 .text.figaro_r_ah_calibration
                0x0000000000000000       0x50 build/pic32mz2048efm/production/_ext/858502545/figaro_gpr_fit.o
 .text          0x0000000000000000        0x0 build/pic32mz2048efm/production/_ext/858502545/figaro_gpr_params.o
 .bss           0x0000000000000000        0x0 build/pic32mz2048efm/production/_ext/858502545/figaro_gpr_params.o
 .reginfo       0x0000000000000000       0x18 build/pic32mz2048efm/production/_ext/858502545/figaro_gpr_params.o
 .MIPS.abiflags
                0x0000000000000000       0x18 build/pic32mz2048efm/production/_ext/858502545/figaro_gpr_params.o
 .text          0x0000000000000000        0x0 build/pic32mz2048efm/production/_ext/858502545/mpfit.o
 .data          0x0000000000000000        0x0 build/pic32mz2048efm/production/_ext/858502545/mpfit.o
 .bss           0x0000000000000000        0x0 build/pic32mz2048efm/production/_ext/858502545/mpfit.o
 .reginfo       0x0000000000000000       0x18 build/pic32mz2048efm/production/_ext/858502545/mpfit.o
 .MIPS.abiflags
                0x0000000000000000       0x18 build/pic32mz2048efm/production/_ext/858502545/mpfit.o
 .text          0x0000000000000000        0x0 build/pic32mz2048efm/production/_ext/1230022092/BodyImpedance.o
 .bss           0x0000000000000000        0x0 build/pic32mz2048efm/production/_ext/1230022092/BodyImpedance.o
 .reginfo       0x0000000000000000       0x18 build/pic32mz2048efm/production/_ext/1230022092/BodyImpedance.o
 .MIPS.abiflags
                0x0000000000000000       0x18 build/pic32mz2048efm/production/_ext/1230022092/BodyImpedance.o
 .text          0x0000000000000000        0x0 build/pic32mz2048efm/production/_ext/1230022092/ad5940.o
 .data          0x0000000000000000        0x0 build/pic32mz2048efm/production/_ext/1230022092/ad5940.o
 .reginfo       0x0000000000000000       0x18 build/pic32mz2048efm/production/_ext/1230022092/ad5940.o
 .MIPS.abiflags
                0x0000000000000000       0x18 build/pic32mz2048efm/production/_ext/1230022092/ad5940.o
 .text.AD5940_ADCCode2Volt
                0x0000000000000000       0x94 build/pic32mz2048efm/production/_ext/1230022092/ad5940.o
 .text.AD5940_ComplexDivFloat
                0x0000000000000000       0x40 build/pic32mz2048efm/production/_ext/1230022092/ad5940.o
 .text.AD5940_ComplexMulFloat
                0x0000000000000000       0x30 build/pic32mz2048efm/production/_ext/1230022092/ad5940.o
 .text.AD5940_ComplexAddFloat
                0x0000000000000000       0x28 build/pic32mz2048efm/production/_ext/1230022092/ad5940.o
 .text.AD5940_ComplexSubFloat
                0x0000000000000000       0x28 build/pic32mz2048efm/production/_ext/1230022092/ad5940.o
 .text.AD5940_ComplexMulInt
                0x0000000000000000       0x48 build/pic32mz2048efm/production/_ext/1230022092/ad5940.o
 .text.AD5940_GetFreqParameters
                0x0000000000000000      0x338 build/pic32mz2048efm/production/_ext/1230022092/ad5940.o
 .text.AD5940_LPModeCtrlS
                0x0000000000000000       0xc4 build/pic32mz2048efm/production/_ext/1230022092/ad5940.o
 .text.__AD5940_ReferenceON
                0x0000000000000000       0x54 build/pic32mz2048efm/production/_ext/1230022092/ad5940.o
 .text.AD5940_HSRTIACfgS
                0x0000000000000000       0x3c build/pic32mz2048efm/production/_ext/1230022092/ad5940.o
 .text.AD5940_WGDACCodeS
                0x0000000000000000       0x24 build/pic32mz2048efm/production/_ext/1230022092/ad5940.o
 .text.AD5940_LPDACWriteS
                0x0000000000000000       0x2c build/pic32mz2048efm/production/_ext/1230022092/ad5940.o
 .text.AD5940_ReadAfeResult
                0x0000000000000000       0xc0 build/pic32mz2048efm/production/_ext/1230022092/ad5940.o
 .text.AD5940_ADCPowerCtrlS
                0x0000000000000000       0x48 build/pic32mz2048efm/production/_ext/1230022092/ad5940.o
 .text.AD5940_ADCConvtCtrlS
                0x0000000000000000       0x48 build/pic32mz2048efm/production/_ext/1230022092/ad5940.o
 .text.AD5940_ADCRepeatCfgS
                0x0000000000000000       0x20 build/pic32mz2048efm/production/_ext/1230022092/ad5940.o
 .text.AD5940_FIFOGetCfg
                0x0000000000000000       0x74 build/pic32mz2048efm/production/_ext/1230022092/ad5940.o
 .text.AD5940_FIFOThrshSet
                0x0000000000000000       0x20 build/pic32mz2048efm/production/_ext/1230022092/ad5940.o
 .text.AD5940_SEQGetCfg
                0x0000000000000000       0x60 build/pic32mz2048efm/production/_ext/1230022092/ad5940.o
 .text.AD5940_SEQCtrlS
                0x0000000000000000       0x48 build/pic32mz2048efm/production/_ext/1230022092/ad5940.o
 .text.AD5940_SEQHaltS
                0x0000000000000000       0x20 build/pic32mz2048efm/production/_ext/1230022092/ad5940.o
 .text.AD5940_SEQInfoGet
                0x0000000000000000       0xc0 build/pic32mz2048efm/production/_ext/1230022092/ad5940.o
 .text.AD5940_SEQTimeOutRd
                0x0000000000000000       0x1c build/pic32mz2048efm/production/_ext/1230022092/ad5940.o
 .text.AD5940_SEQGpioTrigCfg
                0x0000000000000000      0x118 build/pic32mz2048efm/production/_ext/1230022092/ad5940.o
 .text.AD5940_WUPTTime
                0x0000000000000000      0x12c build/pic32mz2048efm/production/_ext/1230022092/ad5940.o
 .text.AD5940_HPModeEn
                0x0000000000000000       0xac build/pic32mz2048efm/production/_ext/1230022092/ad5940.o
 .text.AD5940_INTCGetCfg
                0x0000000000000000       0x30 build/pic32mz2048efm/production/_ext/1230022092/ad5940.o
 .text.__AD5940_TakeMeasurement
                0x0000000000000000       0xa4 build/pic32mz2048efm/production/_ext/1230022092/ad5940.o
 .text.AD5940_INTCGetFlag
                0x0000000000000000       0x28 build/pic32mz2048efm/production/_ext/1230022092/ad5940.o
 .text.AD5940_AGPIOIn
                0x0000000000000000       0x1c build/pic32mz2048efm/production/_ext/1230022092/ad5940.o
 .text.AD5940_AGPIOSet
                0x0000000000000000       0x20 build/pic32mz2048efm/production/_ext/1230022092/ad5940.o
 .text.AD5940_AGPIOClr
                0x0000000000000000       0x20 build/pic32mz2048efm/production/_ext/1230022092/ad5940.o
 .text.AD5940_AGPIOToggle
                0x0000000000000000       0x20 build/pic32mz2048efm/production/_ext/1230022092/ad5940.o
 .text.AD5940_LPModeEnS
                0x0000000000000000       0x44 build/pic32mz2048efm/production/_ext/1230022092/ad5940.o
 .text.AD5940_LPModeClkS
                0x0000000000000000       0x20 build/pic32mz2048efm/production/_ext/1230022092/ad5940.o
 .text.AD5940_ShutDownS
                0x0000000000000000       0x50 build/pic32mz2048efm/production/_ext/1230022092/ad5940.o
 .text.AD5940_GetADIID
                0x0000000000000000       0x1c build/pic32mz2048efm/production/_ext/1230022092/ad5940.o
 .text.AD5940_GetChipID
                0x0000000000000000       0x1c build/pic32mz2048efm/production/_ext/1230022092/ad5940.o
 .text.AD5940_SoftRst
                0x0000000000000000       0x2c build/pic32mz2048efm/production/_ext/1230022092/ad5940.o
 .text.AD5940_ADCPGACal
                0x0000000000000000      0x400 build/pic32mz2048efm/production/_ext/1230022092/ad5940.o
 .text.AD5940_LPTIAOffsetCal
                0x0000000000000000      0x240 build/pic32mz2048efm/production/_ext/1230022092/ad5940.o
 .text.AD5940_HSTIAOffsetCal
                0x0000000000000000        0x8 build/pic32mz2048efm/production/_ext/1230022092/ad5940.o
 .text.AD5940_LPRtiaCal
                0x0000000000000000      0x99c build/pic32mz2048efm/production/_ext/1230022092/ad5940.o
 .text.AD5940_HSDACCal
                0x0000000000000000      0x334 build/pic32mz2048efm/production/_ext/1230022092/ad5940.o
 .text.AD5940_LPDACCal
                0x0000000000000000      0x474 build/pic32mz2048efm/production/_ext/1230022092/ad5940.o
 .text.AD5940_LFOSCMeasure
                0x0000000000000000      0x2cc build/pic32mz2048efm/production/_ext/1230022092/ad5940.o
 .text          0x0000000000000000        0x0 build/pic32mz2048efm/production/_ext/1230022092/pic32Port.o
 .data          0x0000000000000000        0x0 build/pic32mz2048efm/production/_ext/1230022092/pic32Port.o
 .bss           0x0000000000000000        0x0 build/pic32mz2048efm/production/_ext/1230022092/pic32Port.o
 .reginfo       0x0000000000000000       0x18 build/pic32mz2048efm/production/_ext/1230022092/pic32Port.o
 .MIPS.abiflags
                0x0000000000000000       0x18 build/pic32mz2048efm/production/_ext/1230022092/pic32Port.o
 .text.delay_ms
                0x0000000000000000       0x2c build/pic32mz2048efm/production/_ext/1230022092/pic32Port.o
 .text          0x0000000000000000        0x0 build/pic32mz2048efm/production/_ext/1230022092/ad5940main.o
 .data          0x0000000000000000        0x0 build/pic32mz2048efm/production/_ext/1230022092/ad5940main.o
 .reginfo       0x0000000000000000       0x18 build/pic32mz2048efm/production/_ext/1230022092/ad5940main.o
 .MIPS.abiflags
                0x0000000000000000       0x18 build/pic32mz2048efm/production/_ext/1230022092/ad5940main.o
 .text          0x0000000000000000        0x0 build/pic32mz2048efm/production/_ext/1360937237/app.o
 .data          0x0000000000000000        0x0 build/pic32mz2048efm/production/_ext/1360937237/app.o
 .reginfo       0x0000000000000000       0x18 build/pic32mz2048efm/production/_ext/1360937237/app.o
 .MIPS.abiflags
                0x0000000000000000       0x18 build/pic32mz2048efm/production/_ext/1360937237/app.o
 .text          0x0000000000000000        0x0 build/pic32mz2048efm/production/_ext/1360937237/main.o
 .data          0x0000000000000000        0x0 build/pic32mz2048efm/production/_ext/1360937237/main.o
 .bss           0x0000000000000000        0x0 build/pic32mz2048efm/production/_ext/1360937237/main.o
 .reginfo       0x0000000000000000       0x18 build/pic32mz2048efm/production/_ext/1360937237/main.o
 .MIPS.abiflags
                0x0000000000000000       0x18 build/pic32mz2048efm/production/_ext/1360937237/main.o
 .text          0x0000000000000000        0x0 build/pic32mz2048efm/production/_ext/1360937237/communication.o
 .data          0x0000000000000000        0x0 build/pic32mz2048efm/production/_ext/1360937237/communication.o
 .reginfo       0x0000000000000000       0x18 build/pic32mz2048efm/production/_ext/1360937237/communication.o
 .MIPS.abiflags
                0x0000000000000000       0x18 build/pic32mz2048efm/production/_ext/1360937237/communication.o
 .text.uart6_comHandlingDone
                0x0000000000000000       0x18 build/pic32mz2048efm/production/_ext/1360937237/communication.o
 .text.uart6Busy
                0x0000000000000000       0x14 build/pic32mz2048efm/production/_ext/1360937237/communication.o
 .text.uart2_comHandlingDone
                0x0000000000000000       0x18 build/pic32mz2048efm/production/_ext/1360937237/communication.o
 .text.sendBufferUart2
                0x0000000000000000       0x24 build/pic32mz2048efm/production/_ext/1360937237/communication.o
 .text.uart2Busy
                0x0000000000000000       0x14 build/pic32mz2048efm/production/_ext/1360937237/communication.o
 .text          0x0000000000000000        0x0 build/pic32mz2048efm/production/_ext/1360937237/eeprom.o
 .data          0x0000000000000000        0x0 build/pic32mz2048efm/production/_ext/1360937237/eeprom.o
 .reginfo       0x0000000000000000       0x18 build/pic32mz2048efm/production/_ext/1360937237/eeprom.o
 .MIPS.abiflags
                0x0000000000000000       0x18 build/pic32mz2048efm/production/_ext/1360937237/eeprom.o
 .text.eepromClearBuffer
                0x0000000000000000       0x3c build/pic32mz2048efm/production/_ext/1360937237/eeprom.o
 .text.eepromTasks
                0x0000000000000000      0x258 build/pic32mz2048efm/production/_ext/1360937237/eeprom.o
 .text.ram2eeprom
                0x0000000000000000       0x10 build/pic32mz2048efm/production/_ext/1360937237/eeprom.o
 .text.eeprom2ram
                0x0000000000000000       0x10 build/pic32mz2048efm/production/_ext/1360937237/eeprom.o
 .text          0x0000000000000000        0x0 build/pic32mz2048efm/production/_ext/1360937237/mdot.o
 .data          0x0000000000000000        0x0 build/pic32mz2048efm/production/_ext/1360937237/mdot.o
 .reginfo       0x0000000000000000       0x18 build/pic32mz2048efm/production/_ext/1360937237/mdot.o
 .MIPS.abiflags
                0x0000000000000000       0x18 build/pic32mz2048efm/production/_ext/1360937237/mdot.o
 .text.mDotSetEcho
                0x0000000000000000        0x8 build/pic32mz2048efm/production/_ext/1360937237/mdot.o
 .text.checkMDotResponse
                0x0000000000000000       0x78 build/pic32mz2048efm/production/_ext/1360937237/mdot.o
 .text.getMdotMessage
                0x0000000000000000       0x28 build/pic32mz2048efm/production/_ext/1360937237/mdot.o
 .text.testMessageGA
                0x0000000000000000       0x48 build/pic32mz2048efm/production/_ext/1360937237/mdot.o
 .text          0x0000000000000000        0x0 build/pic32mz2048efm/production/_ext/1360937237/messaging.o
 .data          0x0000000000000000        0x0 build/pic32mz2048efm/production/_ext/1360937237/messaging.o
 .reginfo       0x0000000000000000       0x18 build/pic32mz2048efm/production/_ext/1360937237/messaging.o
 .MIPS.abiflags
                0x0000000000000000       0x18 build/pic32mz2048efm/production/_ext/1360937237/messaging.o
 .text.initPayload
                0x0000000000000000      0x110 build/pic32mz2048efm/production/_ext/1360937237/messaging.o
 .text.parameterUpdate2Bytes
                0x0000000000000000       0xb0 build/pic32mz2048efm/production/_ext/1360937237/messaging.o
 .text.firmwareUpdate2Bytes
                0x0000000000000000       0x58 build/pic32mz2048efm/production/_ext/1360937237/messaging.o
 .text.commisioning2Bytes
                0x0000000000000000      0x160 build/pic32mz2048efm/production/_ext/1360937237/messaging.o
 .text.decommission2Bytes
                0x0000000000000000       0x64 build/pic32mz2048efm/production/_ext/1360937237/messaging.o
 .text          0x0000000000000000        0x0 build/pic32mz2048efm/production/_ext/1360937237/nmea.o
 .data          0x0000000000000000        0x0 build/pic32mz2048efm/production/_ext/1360937237/nmea.o
 .reginfo       0x0000000000000000       0x18 build/pic32mz2048efm/production/_ext/1360937237/nmea.o
 .MIPS.abiflags
                0x0000000000000000       0x18 build/pic32mz2048efm/production/_ext/1360937237/nmea.o
 .text.hexchar2int
                0x0000000000000000       0x54 build/pic32mz2048efm/production/_ext/1360937237/nmea.o
 .text.hex2int  0x0000000000000000       0x40 build/pic32mz2048efm/production/_ext/1360937237/nmea.o
 .text.checksumOK
                0x0000000000000000       0x88 build/pic32mz2048efm/production/_ext/1360937237/nmea.o
 .text.createUBXframe
                0x0000000000000000       0xa4 build/pic32mz2048efm/production/_ext/1360937237/nmea.o
 .text.initGPSdata
                0x0000000000000000       0x64 build/pic32mz2048efm/production/_ext/1360937237/nmea.o
 .text          0x0000000000000000        0x0 build/pic32mz2048efm/production/_ext/1360937237/stringbuffer.o
 .data          0x0000000000000000        0x0 build/pic32mz2048efm/production/_ext/1360937237/stringbuffer.o
 .bss           0x0000000000000000        0x0 build/pic32mz2048efm/production/_ext/1360937237/stringbuffer.o
 .reginfo       0x0000000000000000       0x18 build/pic32mz2048efm/production/_ext/1360937237/stringbuffer.o
 .MIPS.abiflags
                0x0000000000000000       0x18 build/pic32mz2048efm/production/_ext/1360937237/stringbuffer.o
 .text          0x0000000000000000        0x0 build/pic32mz2048efm/production/_ext/1360937237/time_keeping.o
 .data          0x0000000000000000        0x0 build/pic32mz2048efm/production/_ext/1360937237/time_keeping.o
 .reginfo       0x0000000000000000       0x18 build/pic32mz2048efm/production/_ext/1360937237/time_keeping.o
 .MIPS.abiflags
                0x0000000000000000       0x18 build/pic32mz2048efm/production/_ext/1360937237/time_keeping.o
 .text.syncGPStime
                0x0000000000000000        0xc build/pic32mz2048efm/production/_ext/1360937237/time_keeping.o
 .text          0x0000000000000000        0x0 build/pic32mz2048efm/production/_ext/1360937237/console.o
 .data          0x0000000000000000        0x0 build/pic32mz2048efm/production/_ext/1360937237/console.o
 .bss           0x0000000000000000        0x0 build/pic32mz2048efm/production/_ext/1360937237/console.o
 .reginfo       0x0000000000000000       0x18 build/pic32mz2048efm/production/_ext/1360937237/console.o
 .MIPS.abiflags
                0x0000000000000000       0x18 build/pic32mz2048efm/production/_ext/1360937237/console.o
 .rodata.str1.4
                0x0000000000000000        0x8 build/pic32mz2048efm/production/_ext/1360937237/console.o
 .text.printConsole
                0x0000000000000000       0x68 build/pic32mz2048efm/production/_ext/1360937237/console.o
 .text.printConsole2
                0x0000000000000000       0x4c build/pic32mz2048efm/production/_ext/1360937237/console.o
 .text          0x0000000000000000        0x0 build/pic32mz2048efm/production/_ext/1360937237/auxillary_sensors.o
 .data          0x0000000000000000        0x0 build/pic32mz2048efm/production/_ext/1360937237/auxillary_sensors.o
 .reginfo       0x0000000000000000       0x18 build/pic32mz2048efm/production/_ext/1360937237/auxillary_sensors.o
 .MIPS.abiflags
                0x0000000000000000       0x18 build/pic32mz2048efm/production/_ext/1360937237/auxillary_sensors.o
 .text          0x0000000000000000        0x0 /tmp/ccrPvX7l.o
 .data          0x0000000000000000        0x0 /tmp/ccrPvX7l.o
 .bss           0x0000000000000000        0x0 /tmp/ccrPvX7l.o
 .reginfo       0x0000000000000000       0x18 /tmp/ccrPvX7l.o
 .MIPS.abiflags
                0x0000000000000000       0x18 /tmp/ccrPvX7l.o
 .text          0x0000000000000000        0x0 /tmp/cc7YmRsm.o
 .data          0x0000000000000000        0x0 /tmp/cc7YmRsm.o
 .bss           0x0000000000000000        0x0 /tmp/cc7YmRsm.o
 .reginfo       0x0000000000000000       0x18 /tmp/cc7YmRsm.o
 .MIPS.abiflags
                0x0000000000000000       0x18 /tmp/cc7YmRsm.o
 .text          0x0000000000000000        0x0 /tmp/ccnC5Jjm.o
 .data          0x0000000000000000        0x0 /tmp/ccnC5Jjm.o
 .bss           0x0000000000000000        0x0 /tmp/ccnC5Jjm.o
 .reginfo       0x0000000000000000       0x18 /tmp/ccnC5Jjm.o
 .MIPS.abiflags
                0x0000000000000000       0x18 /tmp/ccnC5Jjm.o
 .text          0x0000000000000000        0x0 /tmp/ccqBJATo.o
 .data          0x0000000000000000        0x0 /tmp/ccqBJATo.o
 .bss           0x0000000000000000        0x0 /tmp/ccqBJATo.o
 .reginfo       0x0000000000000000       0x18 /tmp/ccqBJATo.o
 .MIPS.abiflags
                0x0000000000000000       0x18 /tmp/ccqBJATo.o
 .discard       0x0000000000000000        0x4 /tmp/ccqBJATo.o
 .data          0x0000000000000000        0x0 /opt/microchip/xc32/v3.01/bin/bin/../../lib/gcc/pic32mx/8.3.1/../../../../pic32mx/lib/fpu64/pic32_software_reset.o
 .bss           0x0000000000000000        0x0 /opt/microchip/xc32/v3.01/bin/bin/../../lib/gcc/pic32mx/8.3.1/../../../../pic32mx/lib/fpu64/pic32_software_reset.o
 .reginfo       0x0000000000000000       0x18 /opt/microchip/xc32/v3.01/bin/bin/../../lib/gcc/pic32mx/8.3.1/../../../../pic32mx/lib/fpu64/pic32_software_reset.o
 .MIPS.abiflags
                0x0000000000000000       0x18 /opt/microchip/xc32/v3.01/bin/bin/../../lib/gcc/pic32mx/8.3.1/../../../../pic32mx/lib/fpu64/pic32_software_reset.o
 .xc_stack_usage.hdr
                0x0000000000000000        0xe /opt/microchip/xc32/v3.01/bin/bin/../../lib/gcc/pic32mx/8.3.1/../../../../pic32mx/lib/fpu64/pic32_software_reset.o
 .xc_stack_usage
                0x0000000000000000       0x24 /opt/microchip/xc32/v3.01/bin/bin/../../lib/gcc/pic32mx/8.3.1/../../../../pic32mx/lib/fpu64/pic32_software_reset.o
 .data          0x0000000000000000        0x0 /opt/microchip/xc32/v3.01/bin/bin/../../lib/gcc/pic32mx/8.3.1/fpu64/libgcc.a(_udivdi3.o)
 .bss           0x0000000000000000        0x0 /opt/microchip/xc32/v3.01/bin/bin/../../lib/gcc/pic32mx/8.3.1/fpu64/libgcc.a(_udivdi3.o)
 .reginfo       0x0000000000000000       0x18 /opt/microchip/xc32/v3.01/bin/bin/../../lib/gcc/pic32mx/8.3.1/fpu64/libgcc.a(_udivdi3.o)
 .MIPS.abiflags
                0x0000000000000000       0x18 /opt/microchip/xc32/v3.01/bin/bin/../../lib/gcc/pic32mx/8.3.1/fpu64/libgcc.a(_udivdi3.o)
 .xc_stack_usage
                0x0000000000000000       0x17 /opt/microchip/xc32/v3.01/bin/bin/../../lib/gcc/pic32mx/8.3.1/fpu64/libgcc.a(_udivdi3.o)
 .xc_stack_usage.hdr
                0x0000000000000000        0xe /opt/microchip/xc32/v3.01/bin/bin/../../lib/gcc/pic32mx/8.3.1/fpu64/libgcc.a(_udivdi3.o)
 .data          0x0000000000000000        0x0 /opt/microchip/xc32/v3.01/bin/bin/../../lib/gcc/pic32mx/8.3.1/../../../../pic32mx/lib/fpu64/libpic32.a(memcmp.o)
 .bss           0x0000000000000000        0x0 /opt/microchip/xc32/v3.01/bin/bin/../../lib/gcc/pic32mx/8.3.1/../../../../pic32mx/lib/fpu64/libpic32.a(memcmp.o)
 .reginfo       0x0000000000000000       0x18 /opt/microchip/xc32/v3.01/bin/bin/../../lib/gcc/pic32mx/8.3.1/../../../../pic32mx/lib/fpu64/libpic32.a(memcmp.o)
 .MIPS.abiflags
                0x0000000000000000       0x18 /opt/microchip/xc32/v3.01/bin/bin/../../lib/gcc/pic32mx/8.3.1/../../../../pic32mx/lib/fpu64/libpic32.a(memcmp.o)
 .xc_stack_usage.hdr
                0x0000000000000000        0xe /opt/microchip/xc32/v3.01/bin/bin/../../lib/gcc/pic32mx/8.3.1/../../../../pic32mx/lib/fpu64/libpic32.a(memcmp.o)
 .xc_stack_usage
                0x0000000000000000       0x14 /opt/microchip/xc32/v3.01/bin/bin/../../lib/gcc/pic32mx/8.3.1/../../../../pic32mx/lib/fpu64/libpic32.a(memcmp.o)
 .data          0x0000000000000000        0x0 /opt/microchip/xc32/v3.01/bin/bin/../../lib/gcc/pic32mx/8.3.1/../../../../pic32mx/lib/fpu64/libpic32.a(memcpy.o)
 .bss           0x0000000000000000        0x0 /opt/microchip/xc32/v3.01/bin/bin/../../lib/gcc/pic32mx/8.3.1/../../../../pic32mx/lib/fpu64/libpic32.a(memcpy.o)
 .reginfo       0x0000000000000000       0x18 /opt/microchip/xc32/v3.01/bin/bin/../../lib/gcc/pic32mx/8.3.1/../../../../pic32mx/lib/fpu64/libpic32.a(memcpy.o)
 .MIPS.abiflags
                0x0000000000000000       0x18 /opt/microchip/xc32/v3.01/bin/bin/../../lib/gcc/pic32mx/8.3.1/../../../../pic32mx/lib/fpu64/libpic32.a(memcpy.o)
 .xc_stack_usage.hdr
                0x0000000000000000        0xe /opt/microchip/xc32/v3.01/bin/bin/../../lib/gcc/pic32mx/8.3.1/../../../../pic32mx/lib/fpu64/libpic32.a(memcpy.o)
 .xc_stack_usage
                0x0000000000000000       0x14 /opt/microchip/xc32/v3.01/bin/bin/../../lib/gcc/pic32mx/8.3.1/../../../../pic32mx/lib/fpu64/libpic32.a(memcpy.o)
 .data          0x0000000000000000        0x0 /opt/microchip/xc32/v3.01/bin/bin/../../lib/gcc/pic32mx/8.3.1/../../../../pic32mx/lib/fpu64/libpic32.a(memset.o)
 .bss           0x0000000000000000        0x0 /opt/microchip/xc32/v3.01/bin/bin/../../lib/gcc/pic32mx/8.3.1/../../../../pic32mx/lib/fpu64/libpic32.a(memset.o)
 .reginfo       0x0000000000000000       0x18 /opt/microchip/xc32/v3.01/bin/bin/../../lib/gcc/pic32mx/8.3.1/../../../../pic32mx/lib/fpu64/libpic32.a(memset.o)
 .MIPS.abiflags
                0x0000000000000000       0x18 /opt/microchip/xc32/v3.01/bin/bin/../../lib/gcc/pic32mx/8.3.1/../../../../pic32mx/lib/fpu64/libpic32.a(memset.o)
 .xc_stack_usage.hdr
                0x0000000000000000        0xe /opt/microchip/xc32/v3.01/bin/bin/../../lib/gcc/pic32mx/8.3.1/../../../../pic32mx/lib/fpu64/libpic32.a(memset.o)
 .xc_stack_usage
                0x0000000000000000       0x14 /opt/microchip/xc32/v3.01/bin/bin/../../lib/gcc/pic32mx/8.3.1/../../../../pic32mx/lib/fpu64/libpic32.a(memset.o)
 .text          0x0000000000000000      0x120 /opt/microchip/xc32/v3.01/bin/bin/../../lib/gcc/pic32mx/8.3.1/../../../../pic32mx/lib/fpu64/libpic32.a(strcmp.o)
 .data          0x0000000000000000        0x0 /opt/microchip/xc32/v3.01/bin/bin/../../lib/gcc/pic32mx/8.3.1/../../../../pic32mx/lib/fpu64/libpic32.a(strcmp.o)
 .bss           0x0000000000000000        0x0 /opt/microchip/xc32/v3.01/bin/bin/../../lib/gcc/pic32mx/8.3.1/../../../../pic32mx/lib/fpu64/libpic32.a(strcmp.o)
 .reginfo       0x0000000000000000       0x18 /opt/microchip/xc32/v3.01/bin/bin/../../lib/gcc/pic32mx/8.3.1/../../../../pic32mx/lib/fpu64/libpic32.a(strcmp.o)
 .MIPS.abiflags
                0x0000000000000000       0x18 /opt/microchip/xc32/v3.01/bin/bin/../../lib/gcc/pic32mx/8.3.1/../../../../pic32mx/lib/fpu64/libpic32.a(strcmp.o)
 .comment       0x0000000000000000       0x1a /opt/microchip/xc32/v3.01/bin/bin/../../lib/gcc/pic32mx/8.3.1/../../../../pic32mx/lib/fpu64/libpic32.a(strcmp.o)
 .xc_stack_usage.hdr
                0x0000000000000000        0xe /opt/microchip/xc32/v3.01/bin/bin/../../lib/gcc/pic32mx/8.3.1/../../../../pic32mx/lib/fpu64/libpic32.a(strcmp.o)
 .xc_stack_usage
                0x0000000000000000       0x14 /opt/microchip/xc32/v3.01/bin/bin/../../lib/gcc/pic32mx/8.3.1/../../../../pic32mx/lib/fpu64/libpic32.a(strcmp.o)
 .data          0x0000000000000000        0x0 /opt/microchip/xc32/v3.01/bin/bin/../../lib/gcc/pic32mx/8.3.1/../../../../pic32mx/lib/fpu64/libpic32.a(strcpy.o)
 .bss           0x0000000000000000        0x0 /opt/microchip/xc32/v3.01/bin/bin/../../lib/gcc/pic32mx/8.3.1/../../../../pic32mx/lib/fpu64/libpic32.a(strcpy.o)
 .reginfo       0x0000000000000000       0x18 /opt/microchip/xc32/v3.01/bin/bin/../../lib/gcc/pic32mx/8.3.1/../../../../pic32mx/lib/fpu64/libpic32.a(strcpy.o)
 .MIPS.abiflags
                0x0000000000000000       0x18 /opt/microchip/xc32/v3.01/bin/bin/../../lib/gcc/pic32mx/8.3.1/../../../../pic32mx/lib/fpu64/libpic32.a(strcpy.o)
 .xc_stack_usage.hdr
                0x0000000000000000        0xe /opt/microchip/xc32/v3.01/bin/bin/../../lib/gcc/pic32mx/8.3.1/../../../../pic32mx/lib/fpu64/libpic32.a(strcpy.o)
 .xc_stack_usage
                0x0000000000000000       0x14 /opt/microchip/xc32/v3.01/bin/bin/../../lib/gcc/pic32mx/8.3.1/../../../../pic32mx/lib/fpu64/libpic32.a(strcpy.o)
 .data          0x0000000000000000        0x0 /opt/microchip/xc32/v3.01/bin/bin/../../lib/gcc/pic32mx/8.3.1/../../../../pic32mx/lib/fpu64/libpic32.a(strlen.o)
 .bss           0x0000000000000000        0x0 /opt/microchip/xc32/v3.01/bin/bin/../../lib/gcc/pic32mx/8.3.1/../../../../pic32mx/lib/fpu64/libpic32.a(strlen.o)
 .reginfo       0x0000000000000000       0x18 /opt/microchip/xc32/v3.01/bin/bin/../../lib/gcc/pic32mx/8.3.1/../../../../pic32mx/lib/fpu64/libpic32.a(strlen.o)
 .MIPS.abiflags
                0x0000000000000000       0x18 /opt/microchip/xc32/v3.01/bin/bin/../../lib/gcc/pic32mx/8.3.1/../../../../pic32mx/lib/fpu64/libpic32.a(strlen.o)
 .xc_stack_usage.hdr
                0x0000000000000000        0xe /opt/microchip/xc32/v3.01/bin/bin/../../lib/gcc/pic32mx/8.3.1/../../../../pic32mx/lib/fpu64/libpic32.a(strlen.o)
 .xc_stack_usage
                0x0000000000000000       0x14 /opt/microchip/xc32/v3.01/bin/bin/../../lib/gcc/pic32mx/8.3.1/../../../../pic32mx/lib/fpu64/libpic32.a(strlen.o)
 .text          0x0000000000000000        0x0 /opt/microchip/xc32/v3.01/bin/bin/../../lib/gcc/pic32mx/8.3.1/../../../../pic32mx/lib/fpu64/libpic32.a(default-on-reset.o)
 .data          0x0000000000000000        0x0 /opt/microchip/xc32/v3.01/bin/bin/../../lib/gcc/pic32mx/8.3.1/../../../../pic32mx/lib/fpu64/libpic32.a(default-on-reset.o)
 .bss           0x0000000000000000        0x0 /opt/microchip/xc32/v3.01/bin/bin/../../lib/gcc/pic32mx/8.3.1/../../../../pic32mx/lib/fpu64/libpic32.a(default-on-reset.o)
 .reginfo       0x0000000000000000       0x18 /opt/microchip/xc32/v3.01/bin/bin/../../lib/gcc/pic32mx/8.3.1/../../../../pic32mx/lib/fpu64/libpic32.a(default-on-reset.o)
 .MIPS.abiflags
                0x0000000000000000       0x18 /opt/microchip/xc32/v3.01/bin/bin/../../lib/gcc/pic32mx/8.3.1/../../../../pic32mx/lib/fpu64/libpic32.a(default-on-reset.o)
 .xc_stack_usage
                0x0000000000000000       0x17 /opt/microchip/xc32/v3.01/bin/bin/../../lib/gcc/pic32mx/8.3.1/../../../../pic32mx/lib/fpu64/libpic32.a(default-on-reset.o)
 .xc_stack_usage.hdr
                0x0000000000000000        0xe /opt/microchip/xc32/v3.01/bin/bin/../../lib/gcc/pic32mx/8.3.1/../../../../pic32mx/lib/fpu64/libpic32.a(default-on-reset.o)
 .text          0x0000000000000000        0x0 /opt/microchip/xc32/v3.01/bin/bin/../../lib/gcc/pic32mx/8.3.1/../../../../pic32mx/lib/fpu64/libpic32.a(default-on-bootstrap.o)
 .data          0x0000000000000000        0x0 /opt/microchip/xc32/v3.01/bin/bin/../../lib/gcc/pic32mx/8.3.1/../../../../pic32mx/lib/fpu64/libpic32.a(default-on-bootstrap.o)
 .bss           0x0000000000000000        0x0 /opt/microchip/xc32/v3.01/bin/bin/../../lib/gcc/pic32mx/8.3.1/../../../../pic32mx/lib/fpu64/libpic32.a(default-on-bootstrap.o)
 .reginfo       0x0000000000000000       0x18 /opt/microchip/xc32/v3.01/bin/bin/../../lib/gcc/pic32mx/8.3.1/../../../../pic32mx/lib/fpu64/libpic32.a(default-on-bootstrap.o)
 .MIPS.abiflags
                0x0000000000000000       0x18 /opt/microchip/xc32/v3.01/bin/bin/../../lib/gcc/pic32mx/8.3.1/../../../../pic32mx/lib/fpu64/libpic32.a(default-on-bootstrap.o)
 .xc_stack_usage
                0x0000000000000000       0x1b /opt/microchip/xc32/v3.01/bin/bin/../../lib/gcc/pic32mx/8.3.1/../../../../pic32mx/lib/fpu64/libpic32.a(default-on-bootstrap.o)
 .xc_stack_usage.hdr
                0x0000000000000000        0xe /opt/microchip/xc32/v3.01/bin/bin/../../lib/gcc/pic32mx/8.3.1/../../../../pic32mx/lib/fpu64/libpic32.a(default-on-bootstrap.o)
 .data          0x0000000000000000        0x0 /opt/microchip/xc32/v3.01/bin/bin/../../lib/gcc/pic32mx/8.3.1/../../../../pic32mx/lib/fpu64/libpic32.a(default-nmi-handler.o)
 .bss           0x0000000000000000        0x0 /opt/microchip/xc32/v3.01/bin/bin/../../lib/gcc/pic32mx/8.3.1/../../../../pic32mx/lib/fpu64/libpic32.a(default-nmi-handler.o)
 .reginfo       0x0000000000000000       0x18 /opt/microchip/xc32/v3.01/bin/bin/../../lib/gcc/pic32mx/8.3.1/../../../../pic32mx/lib/fpu64/libpic32.a(default-nmi-handler.o)
 .MIPS.abiflags
                0x0000000000000000       0x18 /opt/microchip/xc32/v3.01/bin/bin/../../lib/gcc/pic32mx/8.3.1/../../../../pic32mx/lib/fpu64/libpic32.a(default-nmi-handler.o)
 .xc_stack_usage.hdr
                0x0000000000000000        0xe /opt/microchip/xc32/v3.01/bin/bin/../../lib/gcc/pic32mx/8.3.1/../../../../pic32mx/lib/fpu64/libpic32.a(default-nmi-handler.o)
 .xc_stack_usage
                0x0000000000000000       0x1a /opt/microchip/xc32/v3.01/bin/bin/../../lib/gcc/pic32mx/8.3.1/../../../../pic32mx/lib/fpu64/libpic32.a(default-nmi-handler.o)
 .data          0x0000000000000000        0x0 /opt/microchip/xc32/v3.01/bin/bin/../../lib/gcc/pic32mx/8.3.1/../../../../pic32mx/lib/fpu64/libpic32.a(pic32_data_init.o)
 .bss           0x0000000000000000        0x0 /opt/microchip/xc32/v3.01/bin/bin/../../lib/gcc/pic32mx/8.3.1/../../../../pic32mx/lib/fpu64/libpic32.a(pic32_data_init.o)
 .reginfo       0x0000000000000000       0x18 /opt/microchip/xc32/v3.01/bin/bin/../../lib/gcc/pic32mx/8.3.1/../../../../pic32mx/lib/fpu64/libpic32.a(pic32_data_init.o)
 .MIPS.abiflags
                0x0000000000000000       0x18 /opt/microchip/xc32/v3.01/bin/bin/../../lib/gcc/pic32mx/8.3.1/../../../../pic32mx/lib/fpu64/libpic32.a(pic32_data_init.o)
 .xc_stack_usage.hdr
                0x0000000000000000        0xe /opt/microchip/xc32/v3.01/bin/bin/../../lib/gcc/pic32mx/8.3.1/../../../../pic32mx/lib/fpu64/libpic32.a(pic32_data_init.o)
 .xc_stack_usage
                0x0000000000000000       0x1f /opt/microchip/xc32/v3.01/bin/bin/../../lib/gcc/pic32mx/8.3.1/../../../../pic32mx/lib/fpu64/libpic32.a(pic32_data_init.o)
 .text          0x0000000000000000        0x0 /opt/microchip/xc32/v3.01/bin/bin/../../lib/gcc/pic32mx/8.3.1/../../../../pic32mx/lib/fpu64/libpic32.a(pic32_init_cache.o)
 .data          0x0000000000000000        0x0 /opt/microchip/xc32/v3.01/bin/bin/../../lib/gcc/pic32mx/8.3.1/../../../../pic32mx/lib/fpu64/libpic32.a(pic32_init_cache.o)
 .bss           0x0000000000000000        0x0 /opt/microchip/xc32/v3.01/bin/bin/../../lib/gcc/pic32mx/8.3.1/../../../../pic32mx/lib/fpu64/libpic32.a(pic32_init_cache.o)
 .reginfo       0x0000000000000000       0x18 /opt/microchip/xc32/v3.01/bin/bin/../../lib/gcc/pic32mx/8.3.1/../../../../pic32mx/lib/fpu64/libpic32.a(pic32_init_cache.o)
 .MIPS.abiflags
                0x0000000000000000       0x18 /opt/microchip/xc32/v3.01/bin/bin/../../lib/gcc/pic32mx/8.3.1/../../../../pic32mx/lib/fpu64/libpic32.a(pic32_init_cache.o)
 .cache_init.pic32_size_cache
                0x0000000000000000       0x58 /opt/microchip/xc32/v3.01/bin/bin/../../lib/gcc/pic32mx/8.3.1/../../../../pic32mx/lib/fpu64/libpic32.a(pic32_init_cache.o)
 .xc_stack_usage.hdr
                0x0000000000000000        0xe /opt/microchip/xc32/v3.01/bin/bin/../../lib/gcc/pic32mx/8.3.1/../../../../pic32mx/lib/fpu64/libpic32.a(pic32_init_cache.o)
 .xc_stack_usage
                0x0000000000000000       0x5a /opt/microchip/xc32/v3.01/bin/bin/../../lib/gcc/pic32mx/8.3.1/../../../../pic32mx/lib/fpu64/libpic32.a(pic32_init_cache.o)
 .text          0x0000000000000000        0x0 /opt/microchip/xc32/v3.01/bin/bin/../../lib/gcc/pic32mx/8.3.1/../../../../pic32mx/lib/fpu64/libpic32.a(pic32_init_tlb_ebi_sqi.o)
 .data          0x0000000000000000        0x0 /opt/microchip/xc32/v3.01/bin/bin/../../lib/gcc/pic32mx/8.3.1/../../../../pic32mx/lib/fpu64/libpic32.a(pic32_init_tlb_ebi_sqi.o)
 .bss           0x0000000000000000        0x0 /opt/microchip/xc32/v3.01/bin/bin/../../lib/gcc/pic32mx/8.3.1/../../../../pic32mx/lib/fpu64/libpic32.a(pic32_init_tlb_ebi_sqi.o)
 .reginfo       0x0000000000000000       0x18 /opt/microchip/xc32/v3.01/bin/bin/../../lib/gcc/pic32mx/8.3.1/../../../../pic32mx/lib/fpu64/libpic32.a(pic32_init_tlb_ebi_sqi.o)
 .MIPS.abiflags
                0x0000000000000000       0x18 /opt/microchip/xc32/v3.01/bin/bin/../../lib/gcc/pic32mx/8.3.1/../../../../pic32mx/lib/fpu64/libpic32.a(pic32_init_tlb_ebi_sqi.o)
 .xc_stack_usage.hdr
                0x0000000000000000        0xe /opt/microchip/xc32/v3.01/bin/bin/../../lib/gcc/pic32mx/8.3.1/../../../../pic32mx/lib/fpu64/libpic32.a(pic32_init_tlb_ebi_sqi.o)
 .xc_stack_usage
                0x0000000000000000       0x26 /opt/microchip/xc32/v3.01/bin/bin/../../lib/gcc/pic32mx/8.3.1/../../../../pic32mx/lib/fpu64/libpic32.a(pic32_init_tlb_ebi_sqi.o)
 .text          0x0000000000000000        0x0 /opt/microchip/xc32/v3.01/bin/bin/../../lib/gcc/pic32mx/8.3.1/../../../../pic32mx/lib/fpu64/libpic32.a(general-exception.o)
 .data          0x0000000000000000        0x0 /opt/microchip/xc32/v3.01/bin/bin/../../lib/gcc/pic32mx/8.3.1/../../../../pic32mx/lib/fpu64/libpic32.a(general-exception.o)
 .bss           0x0000000000000000        0x0 /opt/microchip/xc32/v3.01/bin/bin/../../lib/gcc/pic32mx/8.3.1/../../../../pic32mx/lib/fpu64/libpic32.a(general-exception.o)
 .reginfo       0x0000000000000000       0x18 /opt/microchip/xc32/v3.01/bin/bin/../../lib/gcc/pic32mx/8.3.1/../../../../pic32mx/lib/fpu64/libpic32.a(general-exception.o)
 .MIPS.abiflags
                0x0000000000000000       0x18 /opt/microchip/xc32/v3.01/bin/bin/../../lib/gcc/pic32mx/8.3.1/../../../../pic32mx/lib/fpu64/libpic32.a(general-exception.o)
 .xc_stack_usage.hdr
                0x0000000000000000        0xe /opt/microchip/xc32/v3.01/bin/bin/../../lib/gcc/pic32mx/8.3.1/../../../../pic32mx/lib/fpu64/libpic32.a(general-exception.o)
 .xc_stack_usage
                0x0000000000000000       0x28 /opt/microchip/xc32/v3.01/bin/bin/../../lib/gcc/pic32mx/8.3.1/../../../../pic32mx/lib/fpu64/libpic32.a(general-exception.o)
 .text          0x0000000000000000        0x0 /opt/microchip/xc32/v3.01/bin/bin/../../lib/gcc/pic32mx/8.3.1/../../../../pic32mx/lib/fpu64/libpic32.a(cache-err-exception.o)
 .data          0x0000000000000000        0x0 /opt/microchip/xc32/v3.01/bin/bin/../../lib/gcc/pic32mx/8.3.1/../../../../pic32mx/lib/fpu64/libpic32.a(cache-err-exception.o)
 .bss           0x0000000000000000        0x0 /opt/microchip/xc32/v3.01/bin/bin/../../lib/gcc/pic32mx/8.3.1/../../../../pic32mx/lib/fpu64/libpic32.a(cache-err-exception.o)
 .reginfo       0x0000000000000000       0x18 /opt/microchip/xc32/v3.01/bin/bin/../../lib/gcc/pic32mx/8.3.1/../../../../pic32mx/lib/fpu64/libpic32.a(cache-err-exception.o)
 .MIPS.abiflags
                0x0000000000000000       0x18 /opt/microchip/xc32/v3.01/bin/bin/../../lib/gcc/pic32mx/8.3.1/../../../../pic32mx/lib/fpu64/libpic32.a(cache-err-exception.o)
 .xc_stack_usage.hdr
                0x0000000000000000        0xe /opt/microchip/xc32/v3.01/bin/bin/../../lib/gcc/pic32mx/8.3.1/../../../../pic32mx/lib/fpu64/libpic32.a(cache-err-exception.o)
 .xc_stack_usage
                0x0000000000000000       0x2a /opt/microchip/xc32/v3.01/bin/bin/../../lib/gcc/pic32mx/8.3.1/../../../../pic32mx/lib/fpu64/libpic32.a(cache-err-exception.o)
 .text          0x0000000000000000        0x0 /opt/microchip/xc32/v3.01/bin/bin/../../lib/gcc/pic32mx/8.3.1/../../../../pic32mx/lib/fpu64/libpic32.a(simple-tlb-refill-exception.o)
 .data          0x0000000000000000        0x0 /opt/microchip/xc32/v3.01/bin/bin/../../lib/gcc/pic32mx/8.3.1/../../../../pic32mx/lib/fpu64/libpic32.a(simple-tlb-refill-exception.o)
 .bss           0x0000000000000000        0x0 /opt/microchip/xc32/v3.01/bin/bin/../../lib/gcc/pic32mx/8.3.1/../../../../pic32mx/lib/fpu64/libpic32.a(simple-tlb-refill-exception.o)
 .reginfo       0x0000000000000000       0x18 /opt/microchip/xc32/v3.01/bin/bin/../../lib/gcc/pic32mx/8.3.1/../../../../pic32mx/lib/fpu64/libpic32.a(simple-tlb-refill-exception.o)
 .MIPS.abiflags
                0x0000000000000000       0x18 /opt/microchip/xc32/v3.01/bin/bin/../../lib/gcc/pic32mx/8.3.1/../../../../pic32mx/lib/fpu64/libpic32.a(simple-tlb-refill-exception.o)
 .xc_stack_usage.hdr
                0x0000000000000000        0xe /opt/microchip/xc32/v3.01/bin/bin/../../lib/gcc/pic32mx/8.3.1/../../../../pic32mx/lib/fpu64/libpic32.a(simple-tlb-refill-exception.o)
 .xc_stack_usage
                0x0000000000000000       0x32 /opt/microchip/xc32/v3.01/bin/bin/../../lib/gcc/pic32mx/8.3.1/../../../../pic32mx/lib/fpu64/libpic32.a(simple-tlb-refill-exception.o)
 .text          0x0000000000000000        0x0 /opt/microchip/xc32/v3.01/bin/bin/../../lib/gcc/pic32mx/8.3.1/../../../../pic32mx/lib/fpu64/libpic32.a(defaultinterrupt.o)
 .data          0x0000000000000000        0x0 /opt/microchip/xc32/v3.01/bin/bin/../../lib/gcc/pic32mx/8.3.1/../../../../pic32mx/lib/fpu64/libpic32.a(defaultinterrupt.o)
 .bss           0x0000000000000000        0x0 /opt/microchip/xc32/v3.01/bin/bin/../../lib/gcc/pic32mx/8.3.1/../../../../pic32mx/lib/fpu64/libpic32.a(defaultinterrupt.o)
 .reginfo       0x0000000000000000       0x18 /opt/microchip/xc32/v3.01/bin/bin/../../lib/gcc/pic32mx/8.3.1/../../../../pic32mx/lib/fpu64/libpic32.a(defaultinterrupt.o)
 .MIPS.abiflags
                0x0000000000000000       0x18 /opt/microchip/xc32/v3.01/bin/bin/../../lib/gcc/pic32mx/8.3.1/../../../../pic32mx/lib/fpu64/libpic32.a(defaultinterrupt.o)
 .xc_stack_usage
                0x0000000000000000       0x1f /opt/microchip/xc32/v3.01/bin/bin/../../lib/gcc/pic32mx/8.3.1/../../../../pic32mx/lib/fpu64/libpic32.a(defaultinterrupt.o)
 .xc_stack_usage.hdr
                0x0000000000000000        0xe /opt/microchip/xc32/v3.01/bin/bin/../../lib/gcc/pic32mx/8.3.1/../../../../pic32mx/lib/fpu64/libpic32.a(defaultinterrupt.o)
 .text          0x0000000000000000        0x0 /opt/microchip/xc32/v3.01/bin/bin/../../lib/gcc/pic32mx/8.3.1/../../../../pic32mx/lib/fpu64/libc.a(_iob.o)
 .reginfo       0x0000000000000000       0x18 /opt/microchip/xc32/v3.01/bin/bin/../../lib/gcc/pic32mx/8.3.1/../../../../pic32mx/lib/fpu64/libc.a(_iob.o)
 .MIPS.abiflags
                0x0000000000000000       0x18 /opt/microchip/xc32/v3.01/bin/bin/../../lib/gcc/pic32mx/8.3.1/../../../../pic32mx/lib/fpu64/libc.a(_iob.o)
 .xc_stack_usage.hdr
                0x0000000000000000        0xe /opt/microchip/xc32/v3.01/bin/bin/../../lib/gcc/pic32mx/8.3.1/../../../../pic32mx/lib/fpu64/libc.a(_iob.o)
 .text          0x0000000000000000        0x0 /opt/microchip/xc32/v3.01/bin/bin/../../lib/gcc/pic32mx/8.3.1/../../../../pic32mx/lib/fpu64/libc.a(malloc.o)
 .data          0x0000000000000000        0x0 /opt/microchip/xc32/v3.01/bin/bin/../../lib/gcc/pic32mx/8.3.1/../../../../pic32mx/lib/fpu64/libc.a(malloc.o)
 .reginfo       0x0000000000000000       0x18 /opt/microchip/xc32/v3.01/bin/bin/../../lib/gcc/pic32mx/8.3.1/../../../../pic32mx/lib/fpu64/libc.a(malloc.o)
 .MIPS.abiflags
                0x0000000000000000       0x18 /opt/microchip/xc32/v3.01/bin/bin/../../lib/gcc/pic32mx/8.3.1/../../../../pic32mx/lib/fpu64/libc.a(malloc.o)
 .xc_stack_usage
                0x0000000000000000       0x3b /opt/microchip/xc32/v3.01/bin/bin/../../lib/gcc/pic32mx/8.3.1/../../../../pic32mx/lib/fpu64/libc.a(malloc.o)
 .text.realloc  0x0000000000000000      0x108 /opt/microchip/xc32/v3.01/bin/bin/../../lib/gcc/pic32mx/8.3.1/../../../../pic32mx/lib/fpu64/libc.a(malloc.o)
 .xc_stack_usage.hdr
                0x0000000000000000        0xe /opt/microchip/xc32/v3.01/bin/bin/../../lib/gcc/pic32mx/8.3.1/../../../../pic32mx/lib/fpu64/libc.a(malloc.o)
 .text          0x0000000000000000        0x0 /opt/microchip/xc32/v3.01/bin/bin/../../lib/gcc/pic32mx/8.3.1/../../../../pic32mx/lib/fpu64/libc.a(memmove.o)
 .data          0x0000000000000000        0x0 /opt/microchip/xc32/v3.01/bin/bin/../../lib/gcc/pic32mx/8.3.1/../../../../pic32mx/lib/fpu64/libc.a(memmove.o)
 .bss           0x0000000000000000        0x0 /opt/microchip/xc32/v3.01/bin/bin/../../lib/gcc/pic32mx/8.3.1/../../../../pic32mx/lib/fpu64/libc.a(memmove.o)
 .reginfo       0x0000000000000000       0x18 /opt/microchip/xc32/v3.01/bin/bin/../../lib/gcc/pic32mx/8.3.1/../../../../pic32mx/lib/fpu64/libc.a(memmove.o)
 .MIPS.abiflags
                0x0000000000000000       0x18 /opt/microchip/xc32/v3.01/bin/bin/../../lib/gcc/pic32mx/8.3.1/../../../../pic32mx/lib/fpu64/libc.a(memmove.o)
 .xc_stack_usage
                0x0000000000000000       0x15 /opt/microchip/xc32/v3.01/bin/bin/../../lib/gcc/pic32mx/8.3.1/../../../../pic32mx/lib/fpu64/libc.a(memmove.o)
 .xc_stack_usage.hdr
                0x0000000000000000        0xe /opt/microchip/xc32/v3.01/bin/bin/../../lib/gcc/pic32mx/8.3.1/../../../../pic32mx/lib/fpu64/libc.a(memmove.o)
 .text          0x0000000000000000        0x0 /opt/microchip/xc32/v3.01/bin/bin/../../lib/gcc/pic32mx/8.3.1/../../../../pic32mx/lib/fpu64/libc.a(puts.o)
 .data          0x0000000000000000        0x0 /opt/microchip/xc32/v3.01/bin/bin/../../lib/gcc/pic32mx/8.3.1/../../../../pic32mx/lib/fpu64/libc.a(puts.o)
 .bss           0x0000000000000000        0x0 /opt/microchip/xc32/v3.01/bin/bin/../../lib/gcc/pic32mx/8.3.1/../../../../pic32mx/lib/fpu64/libc.a(puts.o)
 .reginfo       0x0000000000000000       0x18 /opt/microchip/xc32/v3.01/bin/bin/../../lib/gcc/pic32mx/8.3.1/../../../../pic32mx/lib/fpu64/libc.a(puts.o)
 .MIPS.abiflags
                0x0000000000000000       0x18 /opt/microchip/xc32/v3.01/bin/bin/../../lib/gcc/pic32mx/8.3.1/../../../../pic32mx/lib/fpu64/libc.a(puts.o)
 .xc_stack_usage
                0x0000000000000000       0x25 /opt/microchip/xc32/v3.01/bin/bin/../../lib/gcc/pic32mx/8.3.1/../../../../pic32mx/lib/fpu64/libc.a(puts.o)
 .xc_stack_usage.hdr
                0x0000000000000000        0xe /opt/microchip/xc32/v3.01/bin/bin/../../lib/gcc/pic32mx/8.3.1/../../../../pic32mx/lib/fpu64/libc.a(puts.o)
 .text          0x0000000000000000        0x0 /opt/microchip/xc32/v3.01/bin/bin/../../lib/gcc/pic32mx/8.3.1/../../../../pic32mx/lib/fpu64/libc.a(setbuf.o)
 .data          0x0000000000000000        0x0 /opt/microchip/xc32/v3.01/bin/bin/../../lib/gcc/pic32mx/8.3.1/../../../../pic32mx/lib/fpu64/libc.a(setbuf.o)
 .bss           0x0000000000000000        0x0 /opt/microchip/xc32/v3.01/bin/bin/../../lib/gcc/pic32mx/8.3.1/../../../../pic32mx/lib/fpu64/libc.a(setbuf.o)
 .reginfo       0x0000000000000000       0x18 /opt/microchip/xc32/v3.01/bin/bin/../../lib/gcc/pic32mx/8.3.1/../../../../pic32mx/lib/fpu64/libc.a(setbuf.o)
 .MIPS.abiflags
                0x0000000000000000       0x18 /opt/microchip/xc32/v3.01/bin/bin/../../lib/gcc/pic32mx/8.3.1/../../../../pic32mx/lib/fpu64/libc.a(setbuf.o)
 .xc_stack_usage
                0x0000000000000000       0x29 /opt/microchip/xc32/v3.01/bin/bin/../../lib/gcc/pic32mx/8.3.1/../../../../pic32mx/lib/fpu64/libc.a(setbuf.o)
 .xc_stack_usage.hdr
                0x0000000000000000        0xe /opt/microchip/xc32/v3.01/bin/bin/../../lib/gcc/pic32mx/8.3.1/../../../../pic32mx/lib/fpu64/libc.a(setbuf.o)
 .text          0x0000000000000000        0x0 /opt/microchip/xc32/v3.01/bin/bin/../../lib/gcc/pic32mx/8.3.1/../../../../pic32mx/lib/fpu64/libc.a(strchr.o)
 .data          0x0000000000000000        0x0 /opt/microchip/xc32/v3.01/bin/bin/../../lib/gcc/pic32mx/8.3.1/../../../../pic32mx/lib/fpu64/libc.a(strchr.o)
 .bss           0x0000000000000000        0x0 /opt/microchip/xc32/v3.01/bin/bin/../../lib/gcc/pic32mx/8.3.1/../../../../pic32mx/lib/fpu64/libc.a(strchr.o)
 .reginfo       0x0000000000000000       0x18 /opt/microchip/xc32/v3.01/bin/bin/../../lib/gcc/pic32mx/8.3.1/../../../../pic32mx/lib/fpu64/libc.a(strchr.o)
 .MIPS.abiflags
                0x0000000000000000       0x18 /opt/microchip/xc32/v3.01/bin/bin/../../lib/gcc/pic32mx/8.3.1/../../../../pic32mx/lib/fpu64/libc.a(strchr.o)
 .xc_stack_usage
                0x0000000000000000       0x14 /opt/microchip/xc32/v3.01/bin/bin/../../lib/gcc/pic32mx/8.3.1/../../../../pic32mx/lib/fpu64/libc.a(strchr.o)
 .xc_stack_usage.hdr
                0x0000000000000000        0xe /opt/microchip/xc32/v3.01/bin/bin/../../lib/gcc/pic32mx/8.3.1/../../../../pic32mx/lib/fpu64/libc.a(strchr.o)
 .text          0x0000000000000000        0x0 /opt/microchip/xc32/v3.01/bin/bin/../../lib/gcc/pic32mx/8.3.1/../../../../pic32mx/lib/fpu64/libc.a(strncmp.o)
 .data          0x0000000000000000        0x0 /opt/microchip/xc32/v3.01/bin/bin/../../lib/gcc/pic32mx/8.3.1/../../../../pic32mx/lib/fpu64/libc.a(strncmp.o)
 .bss           0x0000000000000000        0x0 /opt/microchip/xc32/v3.01/bin/bin/../../lib/gcc/pic32mx/8.3.1/../../../../pic32mx/lib/fpu64/libc.a(strncmp.o)
 .reginfo       0x0000000000000000       0x18 /opt/microchip/xc32/v3.01/bin/bin/../../lib/gcc/pic32mx/8.3.1/../../../../pic32mx/lib/fpu64/libc.a(strncmp.o)
 .MIPS.abiflags
                0x0000000000000000       0x18 /opt/microchip/xc32/v3.01/bin/bin/../../lib/gcc/pic32mx/8.3.1/../../../../pic32mx/lib/fpu64/libc.a(strncmp.o)
 .xc_stack_usage
                0x0000000000000000       0x15 /opt/microchip/xc32/v3.01/bin/bin/../../lib/gcc/pic32mx/8.3.1/../../../../pic32mx/lib/fpu64/libc.a(strncmp.o)
 .xc_stack_usage.hdr
                0x0000000000000000        0xe /opt/microchip/xc32/v3.01/bin/bin/../../lib/gcc/pic32mx/8.3.1/../../../../pic32mx/lib/fpu64/libc.a(strncmp.o)
 .text          0x0000000000000000        0x0 /opt/microchip/xc32/v3.01/bin/bin/../../lib/gcc/pic32mx/8.3.1/../../../../pic32mx/lib/fpu64/libc.a(strncpy.o)
 .data          0x0000000000000000        0x0 /opt/microchip/xc32/v3.01/bin/bin/../../lib/gcc/pic32mx/8.3.1/../../../../pic32mx/lib/fpu64/libc.a(strncpy.o)
 .bss           0x0000000000000000        0x0 /opt/microchip/xc32/v3.01/bin/bin/../../lib/gcc/pic32mx/8.3.1/../../../../pic32mx/lib/fpu64/libc.a(strncpy.o)
 .reginfo       0x0000000000000000       0x18 /opt/microchip/xc32/v3.01/bin/bin/../../lib/gcc/pic32mx/8.3.1/../../../../pic32mx/lib/fpu64/libc.a(strncpy.o)
 .MIPS.abiflags
                0x0000000000000000       0x18 /opt/microchip/xc32/v3.01/bin/bin/../../lib/gcc/pic32mx/8.3.1/../../../../pic32mx/lib/fpu64/libc.a(strncpy.o)
 .xc_stack_usage
                0x0000000000000000       0x15 /opt/microchip/xc32/v3.01/bin/bin/../../lib/gcc/pic32mx/8.3.1/../../../../pic32mx/lib/fpu64/libc.a(strncpy.o)
 .text.strncpy  0x0000000000000000       0x44 /opt/microchip/xc32/v3.01/bin/bin/../../lib/gcc/pic32mx/8.3.1/../../../../pic32mx/lib/fpu64/libc.a(strncpy.o)
 .xc_stack_usage.hdr
                0x0000000000000000        0xe /opt/microchip/xc32/v3.01/bin/bin/../../lib/gcc/pic32mx/8.3.1/../../../../pic32mx/lib/fpu64/libc.a(strncpy.o)
 .text          0x0000000000000000        0x0 /opt/microchip/xc32/v3.01/bin/bin/../../lib/gcc/pic32mx/8.3.1/../../../../pic32mx/lib/fpu64/libc.a(strtol.o)
 .data          0x0000000000000000        0x0 /opt/microchip/xc32/v3.01/bin/bin/../../lib/gcc/pic32mx/8.3.1/../../../../pic32mx/lib/fpu64/libc.a(strtol.o)
 .bss           0x0000000000000000        0x0 /opt/microchip/xc32/v3.01/bin/bin/../../lib/gcc/pic32mx/8.3.1/../../../../pic32mx/lib/fpu64/libc.a(strtol.o)
 .reginfo       0x0000000000000000       0x18 /opt/microchip/xc32/v3.01/bin/bin/../../lib/gcc/pic32mx/8.3.1/../../../../pic32mx/lib/fpu64/libc.a(strtol.o)
 .MIPS.abiflags
                0x0000000000000000       0x18 /opt/microchip/xc32/v3.01/bin/bin/../../lib/gcc/pic32mx/8.3.1/../../../../pic32mx/lib/fpu64/libc.a(strtol.o)
 .xc_stack_usage
                0x0000000000000000       0x29 /opt/microchip/xc32/v3.01/bin/bin/../../lib/gcc/pic32mx/8.3.1/../../../../pic32mx/lib/fpu64/libc.a(strtol.o)
 .xc_stack_usage.hdr
                0x0000000000000000        0xe /opt/microchip/xc32/v3.01/bin/bin/../../lib/gcc/pic32mx/8.3.1/../../../../pic32mx/lib/fpu64/libc.a(strtol.o)
 .text          0x0000000000000000        0x0 /opt/microchip/xc32/v3.01/bin/bin/../../lib/gcc/pic32mx/8.3.1/../../../../pic32mx/lib/fpu64/libc.a(printf_cdgGnopsuxX.eo)
 .data          0x0000000000000000        0x0 /opt/microchip/xc32/v3.01/bin/bin/../../lib/gcc/pic32mx/8.3.1/../../../../pic32mx/lib/fpu64/libc.a(printf_cdgGnopsuxX.eo)
 .bss           0x0000000000000000        0x0 /opt/microchip/xc32/v3.01/bin/bin/../../lib/gcc/pic32mx/8.3.1/../../../../pic32mx/lib/fpu64/libc.a(printf_cdgGnopsuxX.eo)
 .reginfo       0x0000000000000000       0x18 /opt/microchip/xc32/v3.01/bin/bin/../../lib/gcc/pic32mx/8.3.1/../../../../pic32mx/lib/fpu64/libc.a(printf_cdgGnopsuxX.eo)
 .MIPS.abiflags
                0x0000000000000000       0x18 /opt/microchip/xc32/v3.01/bin/bin/../../lib/gcc/pic32mx/8.3.1/../../../../pic32mx/lib/fpu64/libc.a(printf_cdgGnopsuxX.eo)
 .xc_stack_usage
                0x0000000000000000       0x21 /opt/microchip/xc32/v3.01/bin/bin/../../lib/gcc/pic32mx/8.3.1/../../../../pic32mx/lib/fpu64/libc.a(printf_cdgGnopsuxX.eo)
 .xc_stack_usage.hdr
                0x0000000000000000        0xe /opt/microchip/xc32/v3.01/bin/bin/../../lib/gcc/pic32mx/8.3.1/../../../../pic32mx/lib/fpu64/libc.a(printf_cdgGnopsuxX.eo)
 .text          0x0000000000000000        0x0 /opt/microchip/xc32/v3.01/bin/bin/../../lib/gcc/pic32mx/8.3.1/../../../../pic32mx/lib/fpu64/libc.a(sprintf_cdnopsuxX.eo)
 .data          0x0000000000000000        0x0 /opt/microchip/xc32/v3.01/bin/bin/../../lib/gcc/pic32mx/8.3.1/../../../../pic32mx/lib/fpu64/libc.a(sprintf_cdnopsuxX.eo)
 .bss           0x0000000000000000        0x0 /opt/microchip/xc32/v3.01/bin/bin/../../lib/gcc/pic32mx/8.3.1/../../../../pic32mx/lib/fpu64/libc.a(sprintf_cdnopsuxX.eo)
 .reginfo       0x0000000000000000       0x18 /opt/microchip/xc32/v3.01/bin/bin/../../lib/gcc/pic32mx/8.3.1/../../../../pic32mx/lib/fpu64/libc.a(sprintf_cdnopsuxX.eo)
 .MIPS.abiflags
                0x0000000000000000       0x18 /opt/microchip/xc32/v3.01/bin/bin/../../lib/gcc/pic32mx/8.3.1/../../../../pic32mx/lib/fpu64/libc.a(sprintf_cdnopsuxX.eo)
 .xc_stack_usage
                0x0000000000000000       0x20 /opt/microchip/xc32/v3.01/bin/bin/../../lib/gcc/pic32mx/8.3.1/../../../../pic32mx/lib/fpu64/libc.a(sprintf_cdnopsuxX.eo)
 .xc_stack_usage.hdr
                0x0000000000000000        0xe /opt/microchip/xc32/v3.01/bin/bin/../../lib/gcc/pic32mx/8.3.1/../../../../pic32mx/lib/fpu64/libc.a(sprintf_cdnopsuxX.eo)
 .text          0x0000000000000000        0x0 /opt/microchip/xc32/v3.01/bin/bin/../../lib/gcc/pic32mx/8.3.1/../../../../pic32mx/lib/fpu64/libc.a(sprintf_fF.eo)
 .data          0x0000000000000000        0x0 /opt/microchip/xc32/v3.01/bin/bin/../../lib/gcc/pic32mx/8.3.1/../../../../pic32mx/lib/fpu64/libc.a(sprintf_fF.eo)
 .bss           0x0000000000000000        0x0 /opt/microchip/xc32/v3.01/bin/bin/../../lib/gcc/pic32mx/8.3.1/../../../../pic32mx/lib/fpu64/libc.a(sprintf_fF.eo)
 .reginfo       0x0000000000000000       0x18 /opt/microchip/xc32/v3.01/bin/bin/../../lib/gcc/pic32mx/8.3.1/../../../../pic32mx/lib/fpu64/libc.a(sprintf_fF.eo)
 .MIPS.abiflags
                0x0000000000000000       0x18 /opt/microchip/xc32/v3.01/bin/bin/../../lib/gcc/pic32mx/8.3.1/../../../../pic32mx/lib/fpu64/libc.a(sprintf_fF.eo)
 .xc_stack_usage
                0x0000000000000000       0x19 /opt/microchip/xc32/v3.01/bin/bin/../../lib/gcc/pic32mx/8.3.1/../../../../pic32mx/lib/fpu64/libc.a(sprintf_fF.eo)
 .xc_stack_usage.hdr
                0x0000000000000000        0xe /opt/microchip/xc32/v3.01/bin/bin/../../lib/gcc/pic32mx/8.3.1/../../../../pic32mx/lib/fpu64/libc.a(sprintf_fF.eo)
 .text          0x0000000000000000        0x0 /opt/microchip/xc32/v3.01/bin/bin/../../lib/gcc/pic32mx/8.3.1/../../../../pic32mx/lib/fpu64/libc.a(_fputc_simple.o)
 .data          0x0000000000000000        0x0 /opt/microchip/xc32/v3.01/bin/bin/../../lib/gcc/pic32mx/8.3.1/../../../../pic32mx/lib/fpu64/libc.a(_fputc_simple.o)
 .bss           0x0000000000000000        0x0 /opt/microchip/xc32/v3.01/bin/bin/../../lib/gcc/pic32mx/8.3.1/../../../../pic32mx/lib/fpu64/libc.a(_fputc_simple.o)
 .reginfo       0x0000000000000000       0x18 /opt/microchip/xc32/v3.01/bin/bin/../../lib/gcc/pic32mx/8.3.1/../../../../pic32mx/lib/fpu64/libc.a(_fputc_simple.o)
 .MIPS.abiflags
                0x0000000000000000       0x18 /opt/microchip/xc32/v3.01/bin/bin/../../lib/gcc/pic32mx/8.3.1/../../../../pic32mx/lib/fpu64/libc.a(_fputc_simple.o)
 .xc_stack_usage
                0x0000000000000000       0x13 /opt/microchip/xc32/v3.01/bin/bin/../../lib/gcc/pic32mx/8.3.1/../../../../pic32mx/lib/fpu64/libc.a(_fputc_simple.o)
 .xc_stack_usage.hdr
                0x0000000000000000        0xe /opt/microchip/xc32/v3.01/bin/bin/../../lib/gcc/pic32mx/8.3.1/../../../../pic32mx/lib/fpu64/libc.a(_fputc_simple.o)
 .text          0x0000000000000000        0x0 /opt/microchip/xc32/v3.01/bin/bin/../../lib/gcc/pic32mx/8.3.1/../../../../pic32mx/lib/fpu64/libc.a(buf.o)
 .data          0x0000000000000000        0x0 /opt/microchip/xc32/v3.01/bin/bin/../../lib/gcc/pic32mx/8.3.1/../../../../pic32mx/lib/fpu64/libc.a(buf.o)
 .reginfo       0x0000000000000000       0x18 /opt/microchip/xc32/v3.01/bin/bin/../../lib/gcc/pic32mx/8.3.1/../../../../pic32mx/lib/fpu64/libc.a(buf.o)
 .MIPS.abiflags
                0x0000000000000000       0x18 /opt/microchip/xc32/v3.01/bin/bin/../../lib/gcc/pic32mx/8.3.1/../../../../pic32mx/lib/fpu64/libc.a(buf.o)
 .xc_stack_usage
                0x0000000000000000       0x2c /opt/microchip/xc32/v3.01/bin/bin/../../lib/gcc/pic32mx/8.3.1/../../../../pic32mx/lib/fpu64/libc.a(buf.o)
 .xc_stack_usage.hdr
                0x0000000000000000        0xe /opt/microchip/xc32/v3.01/bin/bin/../../lib/gcc/pic32mx/8.3.1/../../../../pic32mx/lib/fpu64/libc.a(buf.o)
 .text          0x0000000000000000        0x0 /opt/microchip/xc32/v3.01/bin/bin/../../lib/gcc/pic32mx/8.3.1/../../../../pic32mx/lib/fpu64/libc.a(ctype.o)
 .data          0x0000000000000000        0x0 /opt/microchip/xc32/v3.01/bin/bin/../../lib/gcc/pic32mx/8.3.1/../../../../pic32mx/lib/fpu64/libc.a(ctype.o)
 .bss           0x0000000000000000        0x0 /opt/microchip/xc32/v3.01/bin/bin/../../lib/gcc/pic32mx/8.3.1/../../../../pic32mx/lib/fpu64/libc.a(ctype.o)
 .reginfo       0x0000000000000000       0x18 /opt/microchip/xc32/v3.01/bin/bin/../../lib/gcc/pic32mx/8.3.1/../../../../pic32mx/lib/fpu64/libc.a(ctype.o)
 .MIPS.abiflags
                0x0000000000000000       0x18 /opt/microchip/xc32/v3.01/bin/bin/../../lib/gcc/pic32mx/8.3.1/../../../../pic32mx/lib/fpu64/libc.a(ctype.o)
 .xc_stack_usage.hdr
                0x0000000000000000        0xe /opt/microchip/xc32/v3.01/bin/bin/../../lib/gcc/pic32mx/8.3.1/../../../../pic32mx/lib/fpu64/libc.a(ctype.o)
 .text          0x0000000000000000        0x0 /opt/microchip/xc32/v3.01/bin/bin/../../lib/gcc/pic32mx/8.3.1/../../../../pic32mx/lib/fpu64/libc.a(ctypef.o)
 .data          0x0000000000000000        0x0 /opt/microchip/xc32/v3.01/bin/bin/../../lib/gcc/pic32mx/8.3.1/../../../../pic32mx/lib/fpu64/libc.a(ctypef.o)
 .bss           0x0000000000000000        0x0 /opt/microchip/xc32/v3.01/bin/bin/../../lib/gcc/pic32mx/8.3.1/../../../../pic32mx/lib/fpu64/libc.a(ctypef.o)
 .reginfo       0x0000000000000000       0x18 /opt/microchip/xc32/v3.01/bin/bin/../../lib/gcc/pic32mx/8.3.1/../../../../pic32mx/lib/fpu64/libc.a(ctypef.o)
 .MIPS.abiflags
                0x0000000000000000       0x18 /opt/microchip/xc32/v3.01/bin/bin/../../lib/gcc/pic32mx/8.3.1/../../../../pic32mx/lib/fpu64/libc.a(ctypef.o)
 .xc_stack_usage
                0x0000000000000000      0x168 /opt/microchip/xc32/v3.01/bin/bin/../../lib/gcc/pic32mx/8.3.1/../../../../pic32mx/lib/fpu64/libc.a(ctypef.o)
 .text.tolower  0x0000000000000000       0x28 /opt/microchip/xc32/v3.01/bin/bin/../../lib/gcc/pic32mx/8.3.1/../../../../pic32mx/lib/fpu64/libc.a(ctypef.o)
 .text.isalnum  0x0000000000000000       0x18 /opt/microchip/xc32/v3.01/bin/bin/../../lib/gcc/pic32mx/8.3.1/../../../../pic32mx/lib/fpu64/libc.a(ctypef.o)
 .text.isalpha  0x0000000000000000       0x18 /opt/microchip/xc32/v3.01/bin/bin/../../lib/gcc/pic32mx/8.3.1/../../../../pic32mx/lib/fpu64/libc.a(ctypef.o)
 .text.isascii  0x0000000000000000        0x8 /opt/microchip/xc32/v3.01/bin/bin/../../lib/gcc/pic32mx/8.3.1/../../../../pic32mx/lib/fpu64/libc.a(ctypef.o)
 .text.iscntrl  0x0000000000000000       0x18 /opt/microchip/xc32/v3.01/bin/bin/../../lib/gcc/pic32mx/8.3.1/../../../../pic32mx/lib/fpu64/libc.a(ctypef.o)
 .text.isdigit  0x0000000000000000       0x18 /opt/microchip/xc32/v3.01/bin/bin/../../lib/gcc/pic32mx/8.3.1/../../../../pic32mx/lib/fpu64/libc.a(ctypef.o)
 .text.isgraph  0x0000000000000000       0x18 /opt/microchip/xc32/v3.01/bin/bin/../../lib/gcc/pic32mx/8.3.1/../../../../pic32mx/lib/fpu64/libc.a(ctypef.o)
 .text.islower  0x0000000000000000       0x18 /opt/microchip/xc32/v3.01/bin/bin/../../lib/gcc/pic32mx/8.3.1/../../../../pic32mx/lib/fpu64/libc.a(ctypef.o)
 .text.isprint  0x0000000000000000       0x18 /opt/microchip/xc32/v3.01/bin/bin/../../lib/gcc/pic32mx/8.3.1/../../../../pic32mx/lib/fpu64/libc.a(ctypef.o)
 .text.ispunct  0x0000000000000000       0x18 /opt/microchip/xc32/v3.01/bin/bin/../../lib/gcc/pic32mx/8.3.1/../../../../pic32mx/lib/fpu64/libc.a(ctypef.o)
 .text.isspace  0x0000000000000000       0x18 /opt/microchip/xc32/v3.01/bin/bin/../../lib/gcc/pic32mx/8.3.1/../../../../pic32mx/lib/fpu64/libc.a(ctypef.o)
 .text.isupper  0x0000000000000000       0x18 /opt/microchip/xc32/v3.01/bin/bin/../../lib/gcc/pic32mx/8.3.1/../../../../pic32mx/lib/fpu64/libc.a(ctypef.o)
 .text.isxdigit
                0x0000000000000000       0x18 /opt/microchip/xc32/v3.01/bin/bin/../../lib/gcc/pic32mx/8.3.1/../../../../pic32mx/lib/fpu64/libc.a(ctypef.o)
 .text.toascii  0x0000000000000000        0x8 /opt/microchip/xc32/v3.01/bin/bin/../../lib/gcc/pic32mx/8.3.1/../../../../pic32mx/lib/fpu64/libc.a(ctypef.o)
 .text._tolower
                0x0000000000000000        0x8 /opt/microchip/xc32/v3.01/bin/bin/../../lib/gcc/pic32mx/8.3.1/../../../../pic32mx/lib/fpu64/libc.a(ctypef.o)
 .text._toupper
                0x0000000000000000        0x8 /opt/microchip/xc32/v3.01/bin/bin/../../lib/gcc/pic32mx/8.3.1/../../../../pic32mx/lib/fpu64/libc.a(ctypef.o)
 .xc_stack_usage.hdr
                0x0000000000000000        0xe /opt/microchip/xc32/v3.01/bin/bin/../../lib/gcc/pic32mx/8.3.1/../../../../pic32mx/lib/fpu64/libc.a(ctypef.o)
 .text          0x0000000000000000        0x0 /opt/microchip/xc32/v3.01/bin/bin/../../lib/gcc/pic32mx/8.3.1/../../../../pic32mx/lib/fpu64/libc.a(errno.o)
 .data          0x0000000000000000        0x0 /opt/microchip/xc32/v3.01/bin/bin/../../lib/gcc/pic32mx/8.3.1/../../../../pic32mx/lib/fpu64/libc.a(errno.o)
 .bss           0x0000000000000000        0x0 /opt/microchip/xc32/v3.01/bin/bin/../../lib/gcc/pic32mx/8.3.1/../../../../pic32mx/lib/fpu64/libc.a(errno.o)
 .reginfo       0x0000000000000000       0x18 /opt/microchip/xc32/v3.01/bin/bin/../../lib/gcc/pic32mx/8.3.1/../../../../pic32mx/lib/fpu64/libc.a(errno.o)
 .MIPS.abiflags
                0x0000000000000000       0x18 /opt/microchip/xc32/v3.01/bin/bin/../../lib/gcc/pic32mx/8.3.1/../../../../pic32mx/lib/fpu64/libc.a(errno.o)
 .xc_stack_usage.hdr
                0x0000000000000000        0xe /opt/microchip/xc32/v3.01/bin/bin/../../lib/gcc/pic32mx/8.3.1/../../../../pic32mx/lib/fpu64/libc.a(errno.o)
 .text          0x0000000000000000        0x0 /opt/microchip/xc32/v3.01/bin/bin/../../lib/gcc/pic32mx/8.3.1/../../../../pic32mx/lib/fpu64/libc.a(doprnt_cdgGnopsuxX.eo)
 .data          0x0000000000000000        0x0 /opt/microchip/xc32/v3.01/bin/bin/../../lib/gcc/pic32mx/8.3.1/../../../../pic32mx/lib/fpu64/libc.a(doprnt_cdgGnopsuxX.eo)
 .bss           0x0000000000000000        0x0 /opt/microchip/xc32/v3.01/bin/bin/../../lib/gcc/pic32mx/8.3.1/../../../../pic32mx/lib/fpu64/libc.a(doprnt_cdgGnopsuxX.eo)
 .reginfo       0x0000000000000000       0x18 /opt/microchip/xc32/v3.01/bin/bin/../../lib/gcc/pic32mx/8.3.1/../../../../pic32mx/lib/fpu64/libc.a(doprnt_cdgGnopsuxX.eo)
 .MIPS.abiflags
                0x0000000000000000       0x18 /opt/microchip/xc32/v3.01/bin/bin/../../lib/gcc/pic32mx/8.3.1/../../../../pic32mx/lib/fpu64/libc.a(doprnt_cdgGnopsuxX.eo)
 .xc_stack_usage
                0x0000000000000000       0x4a /opt/microchip/xc32/v3.01/bin/bin/../../lib/gcc/pic32mx/8.3.1/../../../../pic32mx/lib/fpu64/libc.a(doprnt_cdgGnopsuxX.eo)
 .xc_stack_usage.hdr
                0x0000000000000000        0xe /opt/microchip/xc32/v3.01/bin/bin/../../lib/gcc/pic32mx/8.3.1/../../../../pic32mx/lib/fpu64/libc.a(doprnt_cdgGnopsuxX.eo)
 .text          0x0000000000000000        0x0 /opt/microchip/xc32/v3.01/bin/bin/../../lib/gcc/pic32mx/8.3.1/../../../../pic32mx/lib/fpu64/libc.a(doprnt_cdnopsuxX.eo)
 .data          0x0000000000000000        0x0 /opt/microchip/xc32/v3.01/bin/bin/../../lib/gcc/pic32mx/8.3.1/../../../../pic32mx/lib/fpu64/libc.a(doprnt_cdnopsuxX.eo)
 .bss           0x0000000000000000        0x0 /opt/microchip/xc32/v3.01/bin/bin/../../lib/gcc/pic32mx/8.3.1/../../../../pic32mx/lib/fpu64/libc.a(doprnt_cdnopsuxX.eo)
 .reginfo       0x0000000000000000       0x18 /opt/microchip/xc32/v3.01/bin/bin/../../lib/gcc/pic32mx/8.3.1/../../../../pic32mx/lib/fpu64/libc.a(doprnt_cdnopsuxX.eo)
 .MIPS.abiflags
                0x0000000000000000       0x18 /opt/microchip/xc32/v3.01/bin/bin/../../lib/gcc/pic32mx/8.3.1/../../../../pic32mx/lib/fpu64/libc.a(doprnt_cdnopsuxX.eo)
 .xc_stack_usage
                0x0000000000000000       0x21 /opt/microchip/xc32/v3.01/bin/bin/../../lib/gcc/pic32mx/8.3.1/../../../../pic32mx/lib/fpu64/libc.a(doprnt_cdnopsuxX.eo)
 .xc_stack_usage.hdr
                0x0000000000000000        0xe /opt/microchip/xc32/v3.01/bin/bin/../../lib/gcc/pic32mx/8.3.1/../../../../pic32mx/lib/fpu64/libc.a(doprnt_cdnopsuxX.eo)
 .text          0x0000000000000000        0x0 /opt/microchip/xc32/v3.01/bin/bin/../../lib/gcc/pic32mx/8.3.1/../../../../pic32mx/lib/fpu64/libc.a(doprnt_fF.eo)
 .data          0x0000000000000000        0x0 /opt/microchip/xc32/v3.01/bin/bin/../../lib/gcc/pic32mx/8.3.1/../../../../pic32mx/lib/fpu64/libc.a(doprnt_fF.eo)
 .bss           0x0000000000000000        0x0 /opt/microchip/xc32/v3.01/bin/bin/../../lib/gcc/pic32mx/8.3.1/../../../../pic32mx/lib/fpu64/libc.a(doprnt_fF.eo)
 .reginfo       0x0000000000000000       0x18 /opt/microchip/xc32/v3.01/bin/bin/../../lib/gcc/pic32mx/8.3.1/../../../../pic32mx/lib/fpu64/libc.a(doprnt_fF.eo)
 .MIPS.abiflags
                0x0000000000000000       0x18 /opt/microchip/xc32/v3.01/bin/bin/../../lib/gcc/pic32mx/8.3.1/../../../../pic32mx/lib/fpu64/libc.a(doprnt_fF.eo)
 .xc_stack_usage
                0x0000000000000000       0x2d /opt/microchip/xc32/v3.01/bin/bin/../../lib/gcc/pic32mx/8.3.1/../../../../pic32mx/lib/fpu64/libc.a(doprnt_fF.eo)
 .xc_stack_usage.hdr
                0x0000000000000000        0xe /opt/microchip/xc32/v3.01/bin/bin/../../lib/gcc/pic32mx/8.3.1/../../../../pic32mx/lib/fpu64/libc.a(doprnt_fF.eo)
 .text          0x0000000000000000        0x0 /opt/microchip/xc32/v3.01/bin/bin/../../lib/gcc/pic32mx/8.3.1/../../../../pic32mx/lib/fpu64/libc.a(_flsbuf_simple.o)
 .data          0x0000000000000000        0x0 /opt/microchip/xc32/v3.01/bin/bin/../../lib/gcc/pic32mx/8.3.1/../../../../pic32mx/lib/fpu64/libc.a(_flsbuf_simple.o)
 .bss           0x0000000000000000        0x0 /opt/microchip/xc32/v3.01/bin/bin/../../lib/gcc/pic32mx/8.3.1/../../../../pic32mx/lib/fpu64/libc.a(_flsbuf_simple.o)
 .reginfo       0x0000000000000000       0x18 /opt/microchip/xc32/v3.01/bin/bin/../../lib/gcc/pic32mx/8.3.1/../../../../pic32mx/lib/fpu64/libc.a(_flsbuf_simple.o)
 .MIPS.abiflags
                0x0000000000000000       0x18 /opt/microchip/xc32/v3.01/bin/bin/../../lib/gcc/pic32mx/8.3.1/../../../../pic32mx/lib/fpu64/libc.a(_flsbuf_simple.o)
 .xc_stack_usage
                0x0000000000000000       0x15 /opt/microchip/xc32/v3.01/bin/bin/../../lib/gcc/pic32mx/8.3.1/../../../../pic32mx/lib/fpu64/libc.a(_flsbuf_simple.o)
 .xc_stack_usage.hdr
                0x0000000000000000        0xe /opt/microchip/xc32/v3.01/bin/bin/../../lib/gcc/pic32mx/8.3.1/../../../../pic32mx/lib/fpu64/libc.a(_flsbuf_simple.o)
 .text          0x0000000000000000        0x0 /opt/microchip/xc32/v3.01/bin/bin/../../lib/gcc/pic32mx/8.3.1/../../../../pic32mx/lib/fpu64/libc.a(ldpowers.o)
 .data          0x0000000000000000        0x0 /opt/microchip/xc32/v3.01/bin/bin/../../lib/gcc/pic32mx/8.3.1/../../../../pic32mx/lib/fpu64/libc.a(ldpowers.o)
 .bss           0x0000000000000000        0x0 /opt/microchip/xc32/v3.01/bin/bin/../../lib/gcc/pic32mx/8.3.1/../../../../pic32mx/lib/fpu64/libc.a(ldpowers.o)
 .reginfo       0x0000000000000000       0x18 /opt/microchip/xc32/v3.01/bin/bin/../../lib/gcc/pic32mx/8.3.1/../../../../pic32mx/lib/fpu64/libc.a(ldpowers.o)
 .MIPS.abiflags
                0x0000000000000000       0x18 /opt/microchip/xc32/v3.01/bin/bin/../../lib/gcc/pic32mx/8.3.1/../../../../pic32mx/lib/fpu64/libc.a(ldpowers.o)
 .xc_stack_usage.hdr
                0x0000000000000000        0xe /opt/microchip/xc32/v3.01/bin/bin/../../lib/gcc/pic32mx/8.3.1/../../../../pic32mx/lib/fpu64/libc.a(ldpowers.o)
 .text          0x0000000000000000        0x0 /opt/microchip/xc32/v3.01/bin/bin/../../lib/gcc/pic32mx/8.3.1/../../../../pic32mx/lib/fpu64/libmfd.a(s_cos.o)
 .data          0x0000000000000000        0x0 /opt/microchip/xc32/v3.01/bin/bin/../../lib/gcc/pic32mx/8.3.1/../../../../pic32mx/lib/fpu64/libmfd.a(s_cos.o)
 .bss           0x0000000000000000        0x0 /opt/microchip/xc32/v3.01/bin/bin/../../lib/gcc/pic32mx/8.3.1/../../../../pic32mx/lib/fpu64/libmfd.a(s_cos.o)
 .reginfo       0x0000000000000000       0x18 /opt/microchip/xc32/v3.01/bin/bin/../../lib/gcc/pic32mx/8.3.1/../../../../pic32mx/lib/fpu64/libmfd.a(s_cos.o)
 .MIPS.abiflags
                0x0000000000000000       0x18 /opt/microchip/xc32/v3.01/bin/bin/../../lib/gcc/pic32mx/8.3.1/../../../../pic32mx/lib/fpu64/libmfd.a(s_cos.o)
 .xc_stack_usage
                0x0000000000000000       0x13 /opt/microchip/xc32/v3.01/bin/bin/../../lib/gcc/pic32mx/8.3.1/../../../../pic32mx/lib/fpu64/libmfd.a(s_cos.o)
 .xc_stack_usage.hdr
                0x0000000000000000        0xe /opt/microchip/xc32/v3.01/bin/bin/../../lib/gcc/pic32mx/8.3.1/../../../../pic32mx/lib/fpu64/libmfd.a(s_cos.o)
 .text          0x0000000000000000        0x0 /opt/microchip/xc32/v3.01/bin/bin/../../lib/gcc/pic32mx/8.3.1/../../../../pic32mx/lib/fpu64/libmfd.a(s_fabs.o)
 .data          0x0000000000000000        0x0 /opt/microchip/xc32/v3.01/bin/bin/../../lib/gcc/pic32mx/8.3.1/../../../../pic32mx/lib/fpu64/libmfd.a(s_fabs.o)
 .bss           0x0000000000000000        0x0 /opt/microchip/xc32/v3.01/bin/bin/../../lib/gcc/pic32mx/8.3.1/../../../../pic32mx/lib/fpu64/libmfd.a(s_fabs.o)
 .reginfo       0x0000000000000000       0x18 /opt/microchip/xc32/v3.01/bin/bin/../../lib/gcc/pic32mx/8.3.1/../../../../pic32mx/lib/fpu64/libmfd.a(s_fabs.o)
 .MIPS.abiflags
                0x0000000000000000       0x18 /opt/microchip/xc32/v3.01/bin/bin/../../lib/gcc/pic32mx/8.3.1/../../../../pic32mx/lib/fpu64/libmfd.a(s_fabs.o)
 .xc_stack_usage
                0x0000000000000000       0x14 /opt/microchip/xc32/v3.01/bin/bin/../../lib/gcc/pic32mx/8.3.1/../../../../pic32mx/lib/fpu64/libmfd.a(s_fabs.o)
 .xc_stack_usage.hdr
                0x0000000000000000        0xe /opt/microchip/xc32/v3.01/bin/bin/../../lib/gcc/pic32mx/8.3.1/../../../../pic32mx/lib/fpu64/libmfd.a(s_fabs.o)
 .text          0x0000000000000000        0x0 /opt/microchip/xc32/v3.01/bin/bin/../../lib/gcc/pic32mx/8.3.1/../../../../pic32mx/lib/fpu64/libmfd.a(s_frexp.o)
 .data          0x0000000000000000        0x0 /opt/microchip/xc32/v3.01/bin/bin/../../lib/gcc/pic32mx/8.3.1/../../../../pic32mx/lib/fpu64/libmfd.a(s_frexp.o)
 .bss           0x0000000000000000        0x0 /opt/microchip/xc32/v3.01/bin/bin/../../lib/gcc/pic32mx/8.3.1/../../../../pic32mx/lib/fpu64/libmfd.a(s_frexp.o)
 .reginfo       0x0000000000000000       0x18 /opt/microchip/xc32/v3.01/bin/bin/../../lib/gcc/pic32mx/8.3.1/../../../../pic32mx/lib/fpu64/libmfd.a(s_frexp.o)
 .MIPS.abiflags
                0x0000000000000000       0x18 /opt/microchip/xc32/v3.01/bin/bin/../../lib/gcc/pic32mx/8.3.1/../../../../pic32mx/lib/fpu64/libmfd.a(s_frexp.o)
 .xc_stack_usage
                0x0000000000000000       0x15 /opt/microchip/xc32/v3.01/bin/bin/../../lib/gcc/pic32mx/8.3.1/../../../../pic32mx/lib/fpu64/libmfd.a(s_frexp.o)
 .xc_stack_usage.hdr
                0x0000000000000000        0xe /opt/microchip/xc32/v3.01/bin/bin/../../lib/gcc/pic32mx/8.3.1/../../../../pic32mx/lib/fpu64/libmfd.a(s_frexp.o)
 .text          0x0000000000000000        0x0 /opt/microchip/xc32/v3.01/bin/bin/../../lib/gcc/pic32mx/8.3.1/../../../../pic32mx/lib/fpu64/libmfd.a(s_sin.o)
 .data          0x0000000000000000        0x0 /opt/microchip/xc32/v3.01/bin/bin/../../lib/gcc/pic32mx/8.3.1/../../../../pic32mx/lib/fpu64/libmfd.a(s_sin.o)
 .bss           0x0000000000000000        0x0 /opt/microchip/xc32/v3.01/bin/bin/../../lib/gcc/pic32mx/8.3.1/../../../../pic32mx/lib/fpu64/libmfd.a(s_sin.o)
 .reginfo       0x0000000000000000       0x18 /opt/microchip/xc32/v3.01/bin/bin/../../lib/gcc/pic32mx/8.3.1/../../../../pic32mx/lib/fpu64/libmfd.a(s_sin.o)
 .MIPS.abiflags
                0x0000000000000000       0x18 /opt/microchip/xc32/v3.01/bin/bin/../../lib/gcc/pic32mx/8.3.1/../../../../pic32mx/lib/fpu64/libmfd.a(s_sin.o)
 .xc_stack_usage
                0x0000000000000000       0x13 /opt/microchip/xc32/v3.01/bin/bin/../../lib/gcc/pic32mx/8.3.1/../../../../pic32mx/lib/fpu64/libmfd.a(s_sin.o)
 .xc_stack_usage.hdr
                0x0000000000000000        0xe /opt/microchip/xc32/v3.01/bin/bin/../../lib/gcc/pic32mx/8.3.1/../../../../pic32mx/lib/fpu64/libmfd.a(s_sin.o)
 .text          0x0000000000000000        0x0 /opt/microchip/xc32/v3.01/bin/bin/../../lib/gcc/pic32mx/8.3.1/../../../../pic32mx/lib/fpu64/libmfd.a(w_atan2.o)
 .data          0x0000000000000000        0x0 /opt/microchip/xc32/v3.01/bin/bin/../../lib/gcc/pic32mx/8.3.1/../../../../pic32mx/lib/fpu64/libmfd.a(w_atan2.o)
 .bss           0x0000000000000000        0x0 /opt/microchip/xc32/v3.01/bin/bin/../../lib/gcc/pic32mx/8.3.1/../../../../pic32mx/lib/fpu64/libmfd.a(w_atan2.o)
 .reginfo       0x0000000000000000       0x18 /opt/microchip/xc32/v3.01/bin/bin/../../lib/gcc/pic32mx/8.3.1/../../../../pic32mx/lib/fpu64/libmfd.a(w_atan2.o)
 .MIPS.abiflags
                0x0000000000000000       0x18 /opt/microchip/xc32/v3.01/bin/bin/../../lib/gcc/pic32mx/8.3.1/../../../../pic32mx/lib/fpu64/libmfd.a(w_atan2.o)
 .xc_stack_usage
                0x0000000000000000       0x15 /opt/microchip/xc32/v3.01/bin/bin/../../lib/gcc/pic32mx/8.3.1/../../../../pic32mx/lib/fpu64/libmfd.a(w_atan2.o)
 .xc_stack_usage.hdr
                0x0000000000000000        0xe /opt/microchip/xc32/v3.01/bin/bin/../../lib/gcc/pic32mx/8.3.1/../../../../pic32mx/lib/fpu64/libmfd.a(w_atan2.o)
 .text          0x0000000000000000        0x0 /opt/microchip/xc32/v3.01/bin/bin/../../lib/gcc/pic32mx/8.3.1/../../../../pic32mx/lib/fpu64/libmfd.a(w_exp.o)
 .data          0x0000000000000000        0x0 /opt/microchip/xc32/v3.01/bin/bin/../../lib/gcc/pic32mx/8.3.1/../../../../pic32mx/lib/fpu64/libmfd.a(w_exp.o)
 .bss           0x0000000000000000        0x0 /opt/microchip/xc32/v3.01/bin/bin/../../lib/gcc/pic32mx/8.3.1/../../../../pic32mx/lib/fpu64/libmfd.a(w_exp.o)
 .reginfo       0x0000000000000000       0x18 /opt/microchip/xc32/v3.01/bin/bin/../../lib/gcc/pic32mx/8.3.1/../../../../pic32mx/lib/fpu64/libmfd.a(w_exp.o)
 .MIPS.abiflags
                0x0000000000000000       0x18 /opt/microchip/xc32/v3.01/bin/bin/../../lib/gcc/pic32mx/8.3.1/../../../../pic32mx/lib/fpu64/libmfd.a(w_exp.o)
 .xc_stack_usage
                0x0000000000000000       0x13 /opt/microchip/xc32/v3.01/bin/bin/../../lib/gcc/pic32mx/8.3.1/../../../../pic32mx/lib/fpu64/libmfd.a(w_exp.o)
 .xc_stack_usage.hdr
                0x0000000000000000        0xe /opt/microchip/xc32/v3.01/bin/bin/../../lib/gcc/pic32mx/8.3.1/../../../../pic32mx/lib/fpu64/libmfd.a(w_exp.o)
 .text          0x0000000000000000        0x0 /opt/microchip/xc32/v3.01/bin/bin/../../lib/gcc/pic32mx/8.3.1/../../../../pic32mx/lib/fpu64/libmfd.a(w_log.o)
 .data          0x0000000000000000        0x0 /opt/microchip/xc32/v3.01/bin/bin/../../lib/gcc/pic32mx/8.3.1/../../../../pic32mx/lib/fpu64/libmfd.a(w_log.o)
 .bss           0x0000000000000000        0x0 /opt/microchip/xc32/v3.01/bin/bin/../../lib/gcc/pic32mx/8.3.1/../../../../pic32mx/lib/fpu64/libmfd.a(w_log.o)
 .reginfo       0x0000000000000000       0x18 /opt/microchip/xc32/v3.01/bin/bin/../../lib/gcc/pic32mx/8.3.1/../../../../pic32mx/lib/fpu64/libmfd.a(w_log.o)
 .MIPS.abiflags
                0x0000000000000000       0x18 /opt/microchip/xc32/v3.01/bin/bin/../../lib/gcc/pic32mx/8.3.1/../../../../pic32mx/lib/fpu64/libmfd.a(w_log.o)
 .xc_stack_usage
                0x0000000000000000       0x13 /opt/microchip/xc32/v3.01/bin/bin/../../lib/gcc/pic32mx/8.3.1/../../../../pic32mx/lib/fpu64/libmfd.a(w_log.o)
 .text._logx    0x0000000000000000       0x78 /opt/microchip/xc32/v3.01/bin/bin/../../lib/gcc/pic32mx/8.3.1/../../../../pic32mx/lib/fpu64/libmfd.a(w_log.o)
 .xc_stack_usage.hdr
                0x0000000000000000        0xe /opt/microchip/xc32/v3.01/bin/bin/../../lib/gcc/pic32mx/8.3.1/../../../../pic32mx/lib/fpu64/libmfd.a(w_log.o)
 .text          0x0000000000000000        0x0 /opt/microchip/xc32/v3.01/bin/bin/../../lib/gcc/pic32mx/8.3.1/../../../../pic32mx/lib/fpu64/libmfd.a(w_log10.o)
 .data          0x0000000000000000        0x0 /opt/microchip/xc32/v3.01/bin/bin/../../lib/gcc/pic32mx/8.3.1/../../../../pic32mx/lib/fpu64/libmfd.a(w_log10.o)
 .bss           0x0000000000000000        0x0 /opt/microchip/xc32/v3.01/bin/bin/../../lib/gcc/pic32mx/8.3.1/../../../../pic32mx/lib/fpu64/libmfd.a(w_log10.o)
 .reginfo       0x0000000000000000       0x18 /opt/microchip/xc32/v3.01/bin/bin/../../lib/gcc/pic32mx/8.3.1/../../../../pic32mx/lib/fpu64/libmfd.a(w_log10.o)
 .MIPS.abiflags
                0x0000000000000000       0x18 /opt/microchip/xc32/v3.01/bin/bin/../../lib/gcc/pic32mx/8.3.1/../../../../pic32mx/lib/fpu64/libmfd.a(w_log10.o)
 .xc_stack_usage
                0x0000000000000000       0x15 /opt/microchip/xc32/v3.01/bin/bin/../../lib/gcc/pic32mx/8.3.1/../../../../pic32mx/lib/fpu64/libmfd.a(w_log10.o)
 .xc_stack_usage.hdr
                0x0000000000000000        0xe /opt/microchip/xc32/v3.01/bin/bin/../../lib/gcc/pic32mx/8.3.1/../../../../pic32mx/lib/fpu64/libmfd.a(w_log10.o)
 .text          0x0000000000000000        0x0 /opt/microchip/xc32/v3.01/bin/bin/../../lib/gcc/pic32mx/8.3.1/../../../../pic32mx/lib/fpu64/libmfd.a(w_pow.o)
 .data          0x0000000000000000        0x0 /opt/microchip/xc32/v3.01/bin/bin/../../lib/gcc/pic32mx/8.3.1/../../../../pic32mx/lib/fpu64/libmfd.a(w_pow.o)
 .bss           0x0000000000000000        0x0 /opt/microchip/xc32/v3.01/bin/bin/../../lib/gcc/pic32mx/8.3.1/../../../../pic32mx/lib/fpu64/libmfd.a(w_pow.o)
 .reginfo       0x0000000000000000       0x18 /opt/microchip/xc32/v3.01/bin/bin/../../lib/gcc/pic32mx/8.3.1/../../../../pic32mx/lib/fpu64/libmfd.a(w_pow.o)
 .MIPS.abiflags
                0x0000000000000000       0x18 /opt/microchip/xc32/v3.01/bin/bin/../../lib/gcc/pic32mx/8.3.1/../../../../pic32mx/lib/fpu64/libmfd.a(w_pow.o)
 .xc_stack_usage
                0x0000000000000000       0x13 /opt/microchip/xc32/v3.01/bin/bin/../../lib/gcc/pic32mx/8.3.1/../../../../pic32mx/lib/fpu64/libmfd.a(w_pow.o)
 .xc_stack_usage.hdr
                0x0000000000000000        0xe /opt/microchip/xc32/v3.01/bin/bin/../../lib/gcc/pic32mx/8.3.1/../../../../pic32mx/lib/fpu64/libmfd.a(w_pow.o)
 .text          0x0000000000000000        0x0 /opt/microchip/xc32/v3.01/bin/bin/../../lib/gcc/pic32mx/8.3.1/../../../../pic32mx/lib/fpu64/libmfd.a(pic32_w_sqrt.o)
 .data          0x0000000000000000        0x0 /opt/microchip/xc32/v3.01/bin/bin/../../lib/gcc/pic32mx/8.3.1/../../../../pic32mx/lib/fpu64/libmfd.a(pic32_w_sqrt.o)
 .bss           0x0000000000000000        0x0 /opt/microchip/xc32/v3.01/bin/bin/../../lib/gcc/pic32mx/8.3.1/../../../../pic32mx/lib/fpu64/libmfd.a(pic32_w_sqrt.o)
 .reginfo       0x0000000000000000       0x18 /opt/microchip/xc32/v3.01/bin/bin/../../lib/gcc/pic32mx/8.3.1/../../../../pic32mx/lib/fpu64/libmfd.a(pic32_w_sqrt.o)
 .MIPS.abiflags
                0x0000000000000000       0x18 /opt/microchip/xc32/v3.01/bin/bin/../../lib/gcc/pic32mx/8.3.1/../../../../pic32mx/lib/fpu64/libmfd.a(pic32_w_sqrt.o)
 .xc_stack_usage
                0x0000000000000000       0x14 /opt/microchip/xc32/v3.01/bin/bin/../../lib/gcc/pic32mx/8.3.1/../../../../pic32mx/lib/fpu64/libmfd.a(pic32_w_sqrt.o)
 .xc_stack_usage.hdr
                0x0000000000000000        0xe /opt/microchip/xc32/v3.01/bin/bin/../../lib/gcc/pic32mx/8.3.1/../../../../pic32mx/lib/fpu64/libmfd.a(pic32_w_sqrt.o)
 .data          0x0000000000000000        0x0 /opt/microchip/xc32/v3.01/bin/bin/../../lib/gcc/pic32mx/8.3.1/../../../../pic32mx/lib/fpu64/libmfd.a(sqrtfd.o)
 .bss           0x0000000000000000        0x0 /opt/microchip/xc32/v3.01/bin/bin/../../lib/gcc/pic32mx/8.3.1/../../../../pic32mx/lib/fpu64/libmfd.a(sqrtfd.o)
 .reginfo       0x0000000000000000       0x18 /opt/microchip/xc32/v3.01/bin/bin/../../lib/gcc/pic32mx/8.3.1/../../../../pic32mx/lib/fpu64/libmfd.a(sqrtfd.o)
 .MIPS.abiflags
                0x0000000000000000       0x18 /opt/microchip/xc32/v3.01/bin/bin/../../lib/gcc/pic32mx/8.3.1/../../../../pic32mx/lib/fpu64/libmfd.a(sqrtfd.o)
 .text          0x0000000000000000        0x0 /opt/microchip/xc32/v3.01/bin/bin/../../lib/gcc/pic32mx/8.3.1/../../../../pic32mx/lib/fpu64/libmfd.a(strtod.o)
 .data          0x0000000000000000        0x0 /opt/microchip/xc32/v3.01/bin/bin/../../lib/gcc/pic32mx/8.3.1/../../../../pic32mx/lib/fpu64/libmfd.a(strtod.o)
 .bss           0x0000000000000000        0x0 /opt/microchip/xc32/v3.01/bin/bin/../../lib/gcc/pic32mx/8.3.1/../../../../pic32mx/lib/fpu64/libmfd.a(strtod.o)
 .reginfo       0x0000000000000000       0x18 /opt/microchip/xc32/v3.01/bin/bin/../../lib/gcc/pic32mx/8.3.1/../../../../pic32mx/lib/fpu64/libmfd.a(strtod.o)
 .MIPS.abiflags
                0x0000000000000000       0x18 /opt/microchip/xc32/v3.01/bin/bin/../../lib/gcc/pic32mx/8.3.1/../../../../pic32mx/lib/fpu64/libmfd.a(strtod.o)
 .xc_stack_usage
                0x0000000000000000       0x14 /opt/microchip/xc32/v3.01/bin/bin/../../lib/gcc/pic32mx/8.3.1/../../../../pic32mx/lib/fpu64/libmfd.a(strtod.o)
 .xc_stack_usage.hdr
                0x0000000000000000        0xe /opt/microchip/xc32/v3.01/bin/bin/../../lib/gcc/pic32mx/8.3.1/../../../../pic32mx/lib/fpu64/libmfd.a(strtod.o)
 .text          0x0000000000000000        0x0 /opt/microchip/xc32/v3.01/bin/bin/../../lib/gcc/pic32mx/8.3.1/../../../../pic32mx/lib/fpu64/libmfd.a(e_atan2.o)
 .data          0x0000000000000000        0x0 /opt/microchip/xc32/v3.01/bin/bin/../../lib/gcc/pic32mx/8.3.1/../../../../pic32mx/lib/fpu64/libmfd.a(e_atan2.o)
 .bss           0x0000000000000000        0x0 /opt/microchip/xc32/v3.01/bin/bin/../../lib/gcc/pic32mx/8.3.1/../../../../pic32mx/lib/fpu64/libmfd.a(e_atan2.o)
 .reginfo       0x0000000000000000       0x18 /opt/microchip/xc32/v3.01/bin/bin/../../lib/gcc/pic32mx/8.3.1/../../../../pic32mx/lib/fpu64/libmfd.a(e_atan2.o)
 .MIPS.abiflags
                0x0000000000000000       0x18 /opt/microchip/xc32/v3.01/bin/bin/../../lib/gcc/pic32mx/8.3.1/../../../../pic32mx/lib/fpu64/libmfd.a(e_atan2.o)
 .xc_stack_usage
                0x0000000000000000       0x1d /opt/microchip/xc32/v3.01/bin/bin/../../lib/gcc/pic32mx/8.3.1/../../../../pic32mx/lib/fpu64/libmfd.a(e_atan2.o)
 .xc_stack_usage.hdr
                0x0000000000000000        0xe /opt/microchip/xc32/v3.01/bin/bin/../../lib/gcc/pic32mx/8.3.1/../../../../pic32mx/lib/fpu64/libmfd.a(e_atan2.o)
 .text          0x0000000000000000        0x0 /opt/microchip/xc32/v3.01/bin/bin/../../lib/gcc/pic32mx/8.3.1/../../../../pic32mx/lib/fpu64/libmfd.a(e_exp.o)
 .data          0x0000000000000000        0x0 /opt/microchip/xc32/v3.01/bin/bin/../../lib/gcc/pic32mx/8.3.1/../../../../pic32mx/lib/fpu64/libmfd.a(e_exp.o)
 .bss           0x0000000000000000        0x0 /opt/microchip/xc32/v3.01/bin/bin/../../lib/gcc/pic32mx/8.3.1/../../../../pic32mx/lib/fpu64/libmfd.a(e_exp.o)
 .reginfo       0x0000000000000000       0x18 /opt/microchip/xc32/v3.01/bin/bin/../../lib/gcc/pic32mx/8.3.1/../../../../pic32mx/lib/fpu64/libmfd.a(e_exp.o)
 .MIPS.abiflags
                0x0000000000000000       0x18 /opt/microchip/xc32/v3.01/bin/bin/../../lib/gcc/pic32mx/8.3.1/../../../../pic32mx/lib/fpu64/libmfd.a(e_exp.o)
 .xc_stack_usage
                0x0000000000000000       0x1b /opt/microchip/xc32/v3.01/bin/bin/../../lib/gcc/pic32mx/8.3.1/../../../../pic32mx/lib/fpu64/libmfd.a(e_exp.o)
 .xc_stack_usage.hdr
                0x0000000000000000        0xe /opt/microchip/xc32/v3.01/bin/bin/../../lib/gcc/pic32mx/8.3.1/../../../../pic32mx/lib/fpu64/libmfd.a(e_exp.o)
 .text          0x0000000000000000        0x0 /opt/microchip/xc32/v3.01/bin/bin/../../lib/gcc/pic32mx/8.3.1/../../../../pic32mx/lib/fpu64/libmfd.a(e_log.o)
 .data          0x0000000000000000        0x0 /opt/microchip/xc32/v3.01/bin/bin/../../lib/gcc/pic32mx/8.3.1/../../../../pic32mx/lib/fpu64/libmfd.a(e_log.o)
 .bss           0x0000000000000000        0x0 /opt/microchip/xc32/v3.01/bin/bin/../../lib/gcc/pic32mx/8.3.1/../../../../pic32mx/lib/fpu64/libmfd.a(e_log.o)
 .reginfo       0x0000000000000000       0x18 /opt/microchip/xc32/v3.01/bin/bin/../../lib/gcc/pic32mx/8.3.1/../../../../pic32mx/lib/fpu64/libmfd.a(e_log.o)
 .MIPS.abiflags
                0x0000000000000000       0x18 /opt/microchip/xc32/v3.01/bin/bin/../../lib/gcc/pic32mx/8.3.1/../../../../pic32mx/lib/fpu64/libmfd.a(e_log.o)
 .xc_stack_usage
                0x0000000000000000       0x1b /opt/microchip/xc32/v3.01/bin/bin/../../lib/gcc/pic32mx/8.3.1/../../../../pic32mx/lib/fpu64/libmfd.a(e_log.o)
 .xc_stack_usage.hdr
                0x0000000000000000        0xe /opt/microchip/xc32/v3.01/bin/bin/../../lib/gcc/pic32mx/8.3.1/../../../../pic32mx/lib/fpu64/libmfd.a(e_log.o)
 .text          0x0000000000000000        0x0 /opt/microchip/xc32/v3.01/bin/bin/../../lib/gcc/pic32mx/8.3.1/../../../../pic32mx/lib/fpu64/libmfd.a(e_log10.o)
 .data          0x0000000000000000        0x0 /opt/microchip/xc32/v3.01/bin/bin/../../lib/gcc/pic32mx/8.3.1/../../../../pic32mx/lib/fpu64/libmfd.a(e_log10.o)
 .bss           0x0000000000000000        0x0 /opt/microchip/xc32/v3.01/bin/bin/../../lib/gcc/pic32mx/8.3.1/../../../../pic32mx/lib/fpu64/libmfd.a(e_log10.o)
 .reginfo       0x0000000000000000       0x18 /opt/microchip/xc32/v3.01/bin/bin/../../lib/gcc/pic32mx/8.3.1/../../../../pic32mx/lib/fpu64/libmfd.a(e_log10.o)
 .MIPS.abiflags
                0x0000000000000000       0x18 /opt/microchip/xc32/v3.01/bin/bin/../../lib/gcc/pic32mx/8.3.1/../../../../pic32mx/lib/fpu64/libmfd.a(e_log10.o)
 .xc_stack_usage
                0x0000000000000000       0x1d /opt/microchip/xc32/v3.01/bin/bin/../../lib/gcc/pic32mx/8.3.1/../../../../pic32mx/lib/fpu64/libmfd.a(e_log10.o)
 .xc_stack_usage.hdr
                0x0000000000000000        0xe /opt/microchip/xc32/v3.01/bin/bin/../../lib/gcc/pic32mx/8.3.1/../../../../pic32mx/lib/fpu64/libmfd.a(e_log10.o)
 .text          0x0000000000000000        0x0 /opt/microchip/xc32/v3.01/bin/bin/../../lib/gcc/pic32mx/8.3.1/../../../../pic32mx/lib/fpu64/libmfd.a(e_pow.o)
 .data          0x0000000000000000        0x0 /opt/microchip/xc32/v3.01/bin/bin/../../lib/gcc/pic32mx/8.3.1/../../../../pic32mx/lib/fpu64/libmfd.a(e_pow.o)
 .bss           0x0000000000000000        0x0 /opt/microchip/xc32/v3.01/bin/bin/../../lib/gcc/pic32mx/8.3.1/../../../../pic32mx/lib/fpu64/libmfd.a(e_pow.o)
 .reginfo       0x0000000000000000       0x18 /opt/microchip/xc32/v3.01/bin/bin/../../lib/gcc/pic32mx/8.3.1/../../../../pic32mx/lib/fpu64/libmfd.a(e_pow.o)
 .MIPS.abiflags
                0x0000000000000000       0x18 /opt/microchip/xc32/v3.01/bin/bin/../../lib/gcc/pic32mx/8.3.1/../../../../pic32mx/lib/fpu64/libmfd.a(e_pow.o)
 .xc_stack_usage
                0x0000000000000000       0x1b /opt/microchip/xc32/v3.01/bin/bin/../../lib/gcc/pic32mx/8.3.1/../../../../pic32mx/lib/fpu64/libmfd.a(e_pow.o)
 .xc_stack_usage.hdr
                0x0000000000000000        0xe /opt/microchip/xc32/v3.01/bin/bin/../../lib/gcc/pic32mx/8.3.1/../../../../pic32mx/lib/fpu64/libmfd.a(e_pow.o)
 .text          0x0000000000000000        0x0 /opt/microchip/xc32/v3.01/bin/bin/../../lib/gcc/pic32mx/8.3.1/../../../../pic32mx/lib/fpu64/libmfd.a(e_rem_pio2.o)
 .data          0x0000000000000000        0x0 /opt/microchip/xc32/v3.01/bin/bin/../../lib/gcc/pic32mx/8.3.1/../../../../pic32mx/lib/fpu64/libmfd.a(e_rem_pio2.o)
 .bss           0x0000000000000000        0x0 /opt/microchip/xc32/v3.01/bin/bin/../../lib/gcc/pic32mx/8.3.1/../../../../pic32mx/lib/fpu64/libmfd.a(e_rem_pio2.o)
 .reginfo       0x0000000000000000       0x18 /opt/microchip/xc32/v3.01/bin/bin/../../lib/gcc/pic32mx/8.3.1/../../../../pic32mx/lib/fpu64/libmfd.a(e_rem_pio2.o)
 .MIPS.abiflags
                0x0000000000000000       0x18 /opt/microchip/xc32/v3.01/bin/bin/../../lib/gcc/pic32mx/8.3.1/../../../../pic32mx/lib/fpu64/libmfd.a(e_rem_pio2.o)
 .xc_stack_usage
                0x0000000000000000       0x20 /opt/microchip/xc32/v3.01/bin/bin/../../lib/gcc/pic32mx/8.3.1/../../../../pic32mx/lib/fpu64/libmfd.a(e_rem_pio2.o)
 .xc_stack_usage.hdr
                0x0000000000000000        0xe /opt/microchip/xc32/v3.01/bin/bin/../../lib/gcc/pic32mx/8.3.1/../../../../pic32mx/lib/fpu64/libmfd.a(e_rem_pio2.o)
 .text          0x0000000000000000        0x0 /opt/microchip/xc32/v3.01/bin/bin/../../lib/gcc/pic32mx/8.3.1/../../../../pic32mx/lib/fpu64/libmfd.a(k_cos.o)
 .data          0x0000000000000000        0x0 /opt/microchip/xc32/v3.01/bin/bin/../../lib/gcc/pic32mx/8.3.1/../../../../pic32mx/lib/fpu64/libmfd.a(k_cos.o)
 .bss           0x0000000000000000        0x0 /opt/microchip/xc32/v3.01/bin/bin/../../lib/gcc/pic32mx/8.3.1/../../../../pic32mx/lib/fpu64/libmfd.a(k_cos.o)
 .reginfo       0x0000000000000000       0x18 /opt/microchip/xc32/v3.01/bin/bin/../../lib/gcc/pic32mx/8.3.1/../../../../pic32mx/lib/fpu64/libmfd.a(k_cos.o)
 .MIPS.abiflags
                0x0000000000000000       0x18 /opt/microchip/xc32/v3.01/bin/bin/../../lib/gcc/pic32mx/8.3.1/../../../../pic32mx/lib/fpu64/libmfd.a(k_cos.o)
 .xc_stack_usage
                0x0000000000000000       0x1a /opt/microchip/xc32/v3.01/bin/bin/../../lib/gcc/pic32mx/8.3.1/../../../../pic32mx/lib/fpu64/libmfd.a(k_cos.o)
 .xc_stack_usage.hdr
                0x0000000000000000        0xe /opt/microchip/xc32/v3.01/bin/bin/../../lib/gcc/pic32mx/8.3.1/../../../../pic32mx/lib/fpu64/libmfd.a(k_cos.o)
 .text          0x0000000000000000        0x0 /opt/microchip/xc32/v3.01/bin/bin/../../lib/gcc/pic32mx/8.3.1/../../../../pic32mx/lib/fpu64/libmfd.a(k_sin.o)
 .data          0x0000000000000000        0x0 /opt/microchip/xc32/v3.01/bin/bin/../../lib/gcc/pic32mx/8.3.1/../../../../pic32mx/lib/fpu64/libmfd.a(k_sin.o)
 .bss           0x0000000000000000        0x0 /opt/microchip/xc32/v3.01/bin/bin/../../lib/gcc/pic32mx/8.3.1/../../../../pic32mx/lib/fpu64/libmfd.a(k_sin.o)
 .reginfo       0x0000000000000000       0x18 /opt/microchip/xc32/v3.01/bin/bin/../../lib/gcc/pic32mx/8.3.1/../../../../pic32mx/lib/fpu64/libmfd.a(k_sin.o)
 .MIPS.abiflags
                0x0000000000000000       0x18 /opt/microchip/xc32/v3.01/bin/bin/../../lib/gcc/pic32mx/8.3.1/../../../../pic32mx/lib/fpu64/libmfd.a(k_sin.o)
 .xc_stack_usage
                0x0000000000000000       0x1a /opt/microchip/xc32/v3.01/bin/bin/../../lib/gcc/pic32mx/8.3.1/../../../../pic32mx/lib/fpu64/libmfd.a(k_sin.o)
 .xc_stack_usage.hdr
                0x0000000000000000        0xe /opt/microchip/xc32/v3.01/bin/bin/../../lib/gcc/pic32mx/8.3.1/../../../../pic32mx/lib/fpu64/libmfd.a(k_sin.o)
 .text          0x0000000000000000        0x0 /opt/microchip/xc32/v3.01/bin/bin/../../lib/gcc/pic32mx/8.3.1/../../../../pic32mx/lib/fpu64/libmfd.a(k_standard.o)
 .data          0x0000000000000000        0x0 /opt/microchip/xc32/v3.01/bin/bin/../../lib/gcc/pic32mx/8.3.1/../../../../pic32mx/lib/fpu64/libmfd.a(k_standard.o)
 .bss           0x0000000000000000        0x0 /opt/microchip/xc32/v3.01/bin/bin/../../lib/gcc/pic32mx/8.3.1/../../../../pic32mx/lib/fpu64/libmfd.a(k_standard.o)
 .reginfo       0x0000000000000000       0x18 /opt/microchip/xc32/v3.01/bin/bin/../../lib/gcc/pic32mx/8.3.1/../../../../pic32mx/lib/fpu64/libmfd.a(k_standard.o)
 .MIPS.abiflags
                0x0000000000000000       0x18 /opt/microchip/xc32/v3.01/bin/bin/../../lib/gcc/pic32mx/8.3.1/../../../../pic32mx/lib/fpu64/libmfd.a(k_standard.o)
 .xc_stack_usage
                0x0000000000000000       0x1f /opt/microchip/xc32/v3.01/bin/bin/../../lib/gcc/pic32mx/8.3.1/../../../../pic32mx/lib/fpu64/libmfd.a(k_standard.o)
 .xc_stack_usage.hdr
                0x0000000000000000        0xe /opt/microchip/xc32/v3.01/bin/bin/../../lib/gcc/pic32mx/8.3.1/../../../../pic32mx/lib/fpu64/libmfd.a(k_standard.o)
 .text          0x0000000000000000        0x0 /opt/microchip/xc32/v3.01/bin/bin/../../lib/gcc/pic32mx/8.3.1/../../../../pic32mx/lib/fpu64/libmfd.a(s_atan.o)
 .data          0x0000000000000000        0x0 /opt/microchip/xc32/v3.01/bin/bin/../../lib/gcc/pic32mx/8.3.1/../../../../pic32mx/lib/fpu64/libmfd.a(s_atan.o)
 .bss           0x0000000000000000        0x0 /opt/microchip/xc32/v3.01/bin/bin/../../lib/gcc/pic32mx/8.3.1/../../../../pic32mx/lib/fpu64/libmfd.a(s_atan.o)
 .reginfo       0x0000000000000000       0x18 /opt/microchip/xc32/v3.01/bin/bin/../../lib/gcc/pic32mx/8.3.1/../../../../pic32mx/lib/fpu64/libmfd.a(s_atan.o)
 .MIPS.abiflags
                0x0000000000000000       0x18 /opt/microchip/xc32/v3.01/bin/bin/../../lib/gcc/pic32mx/8.3.1/../../../../pic32mx/lib/fpu64/libmfd.a(s_atan.o)
 .xc_stack_usage
                0x0000000000000000       0x14 /opt/microchip/xc32/v3.01/bin/bin/../../lib/gcc/pic32mx/8.3.1/../../../../pic32mx/lib/fpu64/libmfd.a(s_atan.o)
 .xc_stack_usage.hdr
                0x0000000000000000        0xe /opt/microchip/xc32/v3.01/bin/bin/../../lib/gcc/pic32mx/8.3.1/../../../../pic32mx/lib/fpu64/libmfd.a(s_atan.o)
 .text          0x0000000000000000        0x0 /opt/microchip/xc32/v3.01/bin/bin/../../lib/gcc/pic32mx/8.3.1/../../../../pic32mx/lib/fpu64/libmfd.a(s_rint.o)
 .data          0x0000000000000000        0x0 /opt/microchip/xc32/v3.01/bin/bin/../../lib/gcc/pic32mx/8.3.1/../../../../pic32mx/lib/fpu64/libmfd.a(s_rint.o)
 .bss           0x0000000000000000        0x0 /opt/microchip/xc32/v3.01/bin/bin/../../lib/gcc/pic32mx/8.3.1/../../../../pic32mx/lib/fpu64/libmfd.a(s_rint.o)
 .reginfo       0x0000000000000000       0x18 /opt/microchip/xc32/v3.01/bin/bin/../../lib/gcc/pic32mx/8.3.1/../../../../pic32mx/lib/fpu64/libmfd.a(s_rint.o)
 .MIPS.abiflags
                0x0000000000000000       0x18 /opt/microchip/xc32/v3.01/bin/bin/../../lib/gcc/pic32mx/8.3.1/../../../../pic32mx/lib/fpu64/libmfd.a(s_rint.o)
 .xc_stack_usage
                0x0000000000000000       0x12 /opt/microchip/xc32/v3.01/bin/bin/../../lib/gcc/pic32mx/8.3.1/../../../../pic32mx/lib/fpu64/libmfd.a(s_rint.o)
 .xc_stack_usage.hdr
                0x0000000000000000        0xe /opt/microchip/xc32/v3.01/bin/bin/../../lib/gcc/pic32mx/8.3.1/../../../../pic32mx/lib/fpu64/libmfd.a(s_rint.o)
 .text          0x0000000000000000        0x0 /opt/microchip/xc32/v3.01/bin/bin/../../lib/gcc/pic32mx/8.3.1/../../../../pic32mx/lib/fpu64/libmfd.a(s_scalbn.o)
 .data          0x0000000000000000        0x0 /opt/microchip/xc32/v3.01/bin/bin/../../lib/gcc/pic32mx/8.3.1/../../../../pic32mx/lib/fpu64/libmfd.a(s_scalbn.o)
 .bss           0x0000000000000000        0x0 /opt/microchip/xc32/v3.01/bin/bin/../../lib/gcc/pic32mx/8.3.1/../../../../pic32mx/lib/fpu64/libmfd.a(s_scalbn.o)
 .reginfo       0x0000000000000000       0x18 /opt/microchip/xc32/v3.01/bin/bin/../../lib/gcc/pic32mx/8.3.1/../../../../pic32mx/lib/fpu64/libmfd.a(s_scalbn.o)
 .MIPS.abiflags
                0x0000000000000000       0x18 /opt/microchip/xc32/v3.01/bin/bin/../../lib/gcc/pic32mx/8.3.1/../../../../pic32mx/lib/fpu64/libmfd.a(s_scalbn.o)
 .xc_stack_usage
                0x0000000000000000       0x2c /opt/microchip/xc32/v3.01/bin/bin/../../lib/gcc/pic32mx/8.3.1/../../../../pic32mx/lib/fpu64/libmfd.a(s_scalbn.o)
 .xc_stack_usage.hdr
                0x0000000000000000        0xe /opt/microchip/xc32/v3.01/bin/bin/../../lib/gcc/pic32mx/8.3.1/../../../../pic32mx/lib/fpu64/libmfd.a(s_scalbn.o)
 .data          0x0000000000000000        0x0 /opt/microchip/xc32/v3.01/bin/bin/../../lib/gcc/pic32mx/8.3.1/fpu64/libgcc.a(_lshrdi3.o)
 .bss           0x0000000000000000        0x0 /opt/microchip/xc32/v3.01/bin/bin/../../lib/gcc/pic32mx/8.3.1/fpu64/libgcc.a(_lshrdi3.o)
 .reginfo       0x0000000000000000       0x18 /opt/microchip/xc32/v3.01/bin/bin/../../lib/gcc/pic32mx/8.3.1/fpu64/libgcc.a(_lshrdi3.o)
 .MIPS.abiflags
                0x0000000000000000       0x18 /opt/microchip/xc32/v3.01/bin/bin/../../lib/gcc/pic32mx/8.3.1/fpu64/libgcc.a(_lshrdi3.o)
 .xc_stack_usage
                0x0000000000000000       0x17 /opt/microchip/xc32/v3.01/bin/bin/../../lib/gcc/pic32mx/8.3.1/fpu64/libgcc.a(_lshrdi3.o)
 .xc_stack_usage.hdr
                0x0000000000000000        0xe /opt/microchip/xc32/v3.01/bin/bin/../../lib/gcc/pic32mx/8.3.1/fpu64/libgcc.a(_lshrdi3.o)
 .data          0x0000000000000000        0x0 /opt/microchip/xc32/v3.01/bin/bin/../../lib/gcc/pic32mx/8.3.1/fpu64/libgcc.a(_cmpdi2.o)
 .bss           0x0000000000000000        0x0 /opt/microchip/xc32/v3.01/bin/bin/../../lib/gcc/pic32mx/8.3.1/fpu64/libgcc.a(_cmpdi2.o)
 .reginfo       0x0000000000000000       0x18 /opt/microchip/xc32/v3.01/bin/bin/../../lib/gcc/pic32mx/8.3.1/fpu64/libgcc.a(_cmpdi2.o)
 .MIPS.abiflags
                0x0000000000000000       0x18 /opt/microchip/xc32/v3.01/bin/bin/../../lib/gcc/pic32mx/8.3.1/fpu64/libgcc.a(_cmpdi2.o)
 .xc_stack_usage
                0x0000000000000000       0x16 /opt/microchip/xc32/v3.01/bin/bin/../../lib/gcc/pic32mx/8.3.1/fpu64/libgcc.a(_cmpdi2.o)
 .xc_stack_usage.hdr
                0x0000000000000000        0xe /opt/microchip/xc32/v3.01/bin/bin/../../lib/gcc/pic32mx/8.3.1/fpu64/libgcc.a(_cmpdi2.o)
 .data          0x0000000000000000        0x0 /opt/microchip/xc32/v3.01/bin/bin/../../lib/gcc/pic32mx/8.3.1/fpu64/libgcc.a(_umoddi3.o)
 .bss           0x0000000000000000        0x0 /opt/microchip/xc32/v3.01/bin/bin/../../lib/gcc/pic32mx/8.3.1/fpu64/libgcc.a(_umoddi3.o)
 .reginfo       0x0000000000000000       0x18 /opt/microchip/xc32/v3.01/bin/bin/../../lib/gcc/pic32mx/8.3.1/fpu64/libgcc.a(_umoddi3.o)
 .MIPS.abiflags
                0x0000000000000000       0x18 /opt/microchip/xc32/v3.01/bin/bin/../../lib/gcc/pic32mx/8.3.1/fpu64/libgcc.a(_umoddi3.o)
 .xc_stack_usage
                0x0000000000000000       0x17 /opt/microchip/xc32/v3.01/bin/bin/../../lib/gcc/pic32mx/8.3.1/fpu64/libgcc.a(_umoddi3.o)
 .xc_stack_usage.hdr
                0x0000000000000000        0xe /opt/microchip/xc32/v3.01/bin/bin/../../lib/gcc/pic32mx/8.3.1/fpu64/libgcc.a(_umoddi3.o)
 .text          0x0000000000000000        0x0 /opt/microchip/xc32/v3.01/bin/bin/../../lib/gcc/pic32mx/8.3.1/../../../../pic32mx/lib/fpu64/libpic32.a(sbrk.o)
 .data          0x0000000000000000        0x0 /opt/microchip/xc32/v3.01/bin/bin/../../lib/gcc/pic32mx/8.3.1/../../../../pic32mx/lib/fpu64/libpic32.a(sbrk.o)
 .reginfo       0x0000000000000000       0x18 /opt/microchip/xc32/v3.01/bin/bin/../../lib/gcc/pic32mx/8.3.1/../../../../pic32mx/lib/fpu64/libpic32.a(sbrk.o)
 .MIPS.abiflags
                0x0000000000000000       0x18 /opt/microchip/xc32/v3.01/bin/bin/../../lib/gcc/pic32mx/8.3.1/../../../../pic32mx/lib/fpu64/libpic32.a(sbrk.o)
 .xc_stack_usage
                0x0000000000000000       0x77 /opt/microchip/xc32/v3.01/bin/bin/../../lib/gcc/pic32mx/8.3.1/../../../../pic32mx/lib/fpu64/libpic32.a(sbrk.o)
 .text.getpagesize
                0x0000000000000000        0x8 /opt/microchip/xc32/v3.01/bin/bin/../../lib/gcc/pic32mx/8.3.1/../../../../pic32mx/lib/fpu64/libpic32.a(sbrk.o)
 .xc_stack_usage.hdr
                0x0000000000000000        0xe /opt/microchip/xc32/v3.01/bin/bin/../../lib/gcc/pic32mx/8.3.1/../../../../pic32mx/lib/fpu64/libpic32.a(sbrk.o)
 .text          0x0000000000000000        0x0 /opt/microchip/xc32/v3.01/bin/bin/../../lib/gcc/pic32mx/8.3.1/../../../../pic32mx/lib/fpu64/libpic32.a(write.o)
 .data          0x0000000000000000        0x0 /opt/microchip/xc32/v3.01/bin/bin/../../lib/gcc/pic32mx/8.3.1/../../../../pic32mx/lib/fpu64/libpic32.a(write.o)
 .bss           0x0000000000000000        0x0 /opt/microchip/xc32/v3.01/bin/bin/../../lib/gcc/pic32mx/8.3.1/../../../../pic32mx/lib/fpu64/libpic32.a(write.o)
 .reginfo       0x0000000000000000       0x18 /opt/microchip/xc32/v3.01/bin/bin/../../lib/gcc/pic32mx/8.3.1/../../../../pic32mx/lib/fpu64/libpic32.a(write.o)
 .MIPS.abiflags
                0x0000000000000000       0x18 /opt/microchip/xc32/v3.01/bin/bin/../../lib/gcc/pic32mx/8.3.1/../../../../pic32mx/lib/fpu64/libpic32.a(write.o)
 .xc_stack_usage
                0x0000000000000000       0x13 /opt/microchip/xc32/v3.01/bin/bin/../../lib/gcc/pic32mx/8.3.1/../../../../pic32mx/lib/fpu64/libpic32.a(write.o)
 .xc_stack_usage.hdr
                0x0000000000000000        0xe /opt/microchip/xc32/v3.01/bin/bin/../../lib/gcc/pic32mx/8.3.1/../../../../pic32mx/lib/fpu64/libpic32.a(write.o)

Memory Configuration

Name             Origin             Length             Attributes
kseg0_program_mem 0x000000009d001000 0x00000000001ff000 xr
kseg1_boot_mem   0x00000000bd000000 0x0000000000000480
kseg1_boot_mem_4B0 0x00000000bd0004b0 0x0000000000000b50
kseg0_data_mem   0x0000000080000000 0x0000000000080000 w !x
sfrs             0x00000000bf800000 0x0000000000100000
kseg2_ebi_data_mem 0x00000000c0000000 0x0000000004000000
kseg2_sqi_data_mem 0x00000000d0000000 0x0000000004000000
kseg3_ebi_data_mem 0x00000000e0000000 0x0000000004000000
kseg3_sqi_data_mem 0x00000000f0000000 0x0000000004000000
*default*        0x0000000000000000 0xffffffffffffffff

Linker script and memory map

LOAD /opt/microchip/xc32/v3.01/bin/bin/../../lib/gcc/pic32mx/8.3.1/../../../../pic32mx/lib/fpu64/debug-exception-return.o
LOAD build/pic32mz2048efm/production/_ext/1044926641/drv_sdspi.o
LOAD build/pic32mz2048efm/production/_ext/1044926641/drv_sdspi_driver_interface.o
LOAD build/pic32mz2048efm/production/_ext/1044926641/drv_sdspi_file_system.o
LOAD build/pic32mz2048efm/production/_ext/1807302558/drv_spi.o
LOAD build/pic32mz2048efm/production/_ext/1449458886/drv_usbhs.o
LOAD build/pic32mz2048efm/production/_ext/1449458886/drv_usbhs_device.o
LOAD build/pic32mz2048efm/production/_ext/1928555383/plib_cache.o
LOAD build/pic32mz2048efm/production/_ext/1928555383/plib_cache_pic32mz.o
LOAD build/pic32mz2048efm/production/_ext/323794519/plib_clk.o
LOAD build/pic32mz2048efm/production/_ext/1871117435/plib_coretimer.o
LOAD build/pic32mz2048efm/production/_ext/1447764726/plib_evic.o
LOAD build/pic32mz2048efm/production/_ext/1447818554/plib_gpio.o
LOAD build/pic32mz2048efm/production/_ext/1683951966/plib_i2c2_master.o
LOAD build/pic32mz2048efm/production/_ext/1683951966/plib_i2c4_master.o
LOAD build/pic32mz2048efm/production/_ext/1448149901/plib_rtcc.o
LOAD build/pic32mz2048efm/production/_ext/1007818685/plib_spi4_master.o
LOAD build/pic32mz2048efm/production/_ext/1007818685/plib_spi5_master.o
LOAD build/pic32mz2048efm/production/_ext/1007818685/plib_spi2_master.o
LOAD build/pic32mz2048efm/production/_ext/1007818685/plib_spi1_master.o
LOAD build/pic32mz2048efm/production/_ext/323810894/plib_tmr2.o
LOAD build/pic32mz2048efm/production/_ext/323810894/plib_tmr3.o
LOAD build/pic32mz2048efm/production/_ext/1448221497/plib_uart5.o
LOAD build/pic32mz2048efm/production/_ext/1448221497/plib_uart6.o
LOAD build/pic32mz2048efm/production/_ext/1448221497/plib_uart3.o
LOAD build/pic32mz2048efm/production/_ext/1448221497/plib_uart1.o
LOAD build/pic32mz2048efm/production/_ext/1448221497/plib_uart2.o
LOAD build/pic32mz2048efm/production/_ext/323813500/plib_wdt.o
LOAD build/pic32mz2048efm/production/_ext/1212781247/xc32_monitor.o
LOAD build/pic32mz2048efm/production/_ext/191419926/sys_cache.o
LOAD build/pic32mz2048efm/production/_ext/1336113504/sys_dma.o
LOAD build/pic32mz2048efm/production/_ext/1225530592/ff.o
LOAD build/pic32mz2048efm/production/_ext/1225530592/ffunicode.o
LOAD build/pic32mz2048efm/production/_ext/1545496361/diskio.o
LOAD build/pic32mz2048efm/production/_ext/1538077638/sys_fs.o
LOAD build/pic32mz2048efm/production/_ext/1538077638/sys_fs_media_manager.o
LOAD build/pic32mz2048efm/production/_ext/1538077638/sys_fs_fat_interface.o
LOAD build/pic32mz2048efm/production/_ext/2145297452/sys_int.o
LOAD build/pic32mz2048efm/production/_ext/519320518/sys_time.o
LOAD build/pic32mz2048efm/production/_ext/196169617/usb_device.o
LOAD build/pic32mz2048efm/production/_ext/196169617/usb_device_cdc.o
LOAD build/pic32mz2048efm/production/_ext/196169617/usb_device_cdc_acm.o
LOAD build/pic32mz2048efm/production/_ext/2011215161/usb_device_init_data.o
LOAD build/pic32mz2048efm/production/_ext/2011215161/tasks.o
LOAD build/pic32mz2048efm/production/_ext/2011215161/initialization.o
LOAD build/pic32mz2048efm/production/_ext/2011215161/interrupts.o
LOAD build/pic32mz2048efm/production/_ext/2011215161/exceptions.o
LOAD build/pic32mz2048efm/production/_ext/858502545/figaro_gpr_fit.o
LOAD build/pic32mz2048efm/production/_ext/858502545/figaro_gpr_params.o
LOAD build/pic32mz2048efm/production/_ext/858502545/mpfit.o
LOAD build/pic32mz2048efm/production/_ext/1230022092/BodyImpedance.o
LOAD build/pic32mz2048efm/production/_ext/1230022092/ad5940.o
LOAD build/pic32mz2048efm/production/_ext/1230022092/pic32Port.o
LOAD build/pic32mz2048efm/production/_ext/1230022092/ad5940main.o
LOAD build/pic32mz2048efm/production/_ext/1360937237/app.o
LOAD build/pic32mz2048efm/production/_ext/1360937237/main.o
LOAD build/pic32mz2048efm/production/_ext/1360937237/communication.o
LOAD build/pic32mz2048efm/production/_ext/1360937237/eeprom.o
LOAD build/pic32mz2048efm/production/_ext/1360937237/mdot.o
LOAD build/pic32mz2048efm/production/_ext/1360937237/messaging.o
LOAD build/pic32mz2048efm/production/_ext/1360937237/nmea.o
LOAD build/pic32mz2048efm/production/_ext/1360937237/stringbuffer.o
LOAD build/pic32mz2048efm/production/_ext/1360937237/time_keeping.o
LOAD build/pic32mz2048efm/production/_ext/1360937237/console.o
LOAD build/pic32mz2048efm/production/_ext/1360937237/auxillary_sensors.o
                0x0000000000000001                __MPLAB_BUILD = 0x1
                0x0000000000000400                PROVIDE (_min_stack_size = 0x400)
START GROUP
LOAD vector_offset_init.o
END GROUP
                0x0000000000000001                PROVIDE (_vector_spacing = 0x1)
                0x000000009d000000                PROVIDE (_ebase_address = 0x9d000000)
                0x0000000000001000                PROVIDE (_ebase_vector_offsets = 0x1000)
                0x00000000bd000000                _RESET_ADDR = 0xbd000000
                0x000000009d001000                _SIMPLE_TLB_REFILL_EXCPT_ADDR = ((_ebase_address + _ebase_vector_offsets) + 0x0)
                0x000000009d001100                _CACHE_ERR_EXCPT_ADDR = ((_ebase_address + _ebase_vector_offsets) + 0x100)
                0x000000009d001180                _GEN_EXCPT_ADDR = ((_ebase_address + _ebase_vector_offsets) + 0x180)

.reset          0x00000000bd000000      0x1c4
 *(.reset)
 .reset         0x00000000bd000000       0x18 /tmp/ccrPvX7l.o
                0x00000000bd000000                _reset
 *(.reset.startup)
 .reset.startup
                0x00000000bd000018      0x1ac /tmp/ccrPvX7l.o
                0x00000000bd000018                _startup

.cache_init     0x00000000bd0004b0      0x1c0
 *(.cache_init)
 *(.cache_init.*)
 .cache_init.cache
                0x00000000bd0004b0       0xc0 /opt/microchip/xc32/v3.01/bin/bin/../../lib/gcc/pic32mx/8.3.1/../../../../pic32mx/lib/fpu64/libpic32.a(pic32_init_cache.o)
 .cache_init.pic32_init_cache
                0x00000000bd000570      0x100 /opt/microchip/xc32/v3.01/bin/bin/../../lib/gcc/pic32mx/8.3.1/../../../../pic32mx/lib/fpu64/libpic32.a(pic32_init_cache.o)
                0x00000000bd000570                __pic32_init_cache

.simple_tlb_refill_excpt
                0x000000009d001000       0x10
 *(.simple_tlb_refill_vector)
 .simple_tlb_refill_vector
                0x000000009d001000       0x10 /tmp/ccrPvX7l.o

.cache_err_excpt
                0x000000009d001100       0x10
 *(.cache_err_vector)
 .cache_err_vector
                0x000000009d001100       0x10 /tmp/ccrPvX7l.o

.app_excpt      0x000000009d001180       0x10
 *(.gen_handler)
 .gen_handler   0x000000009d001180       0x10 /tmp/ccrPvX7l.o

.vectors        0x000000009d001200      0x140
                0x000000009d001200                . = ALIGN (0x4)
                0x00000000000012f8                __vector_offset_0 = DEFINED (__vector_dispatch_0)?(. - _ebase_address):__vector_offset_default
 *(.vector_0)
                0x000000009d001200                . = ALIGN (0x4)
                0x00000000000012f8                __vector_offset_1 = DEFINED (__vector_dispatch_1)?(. - _ebase_address):__vector_offset_default
 *(.vector_1)
                0x000000009d001200                . = ALIGN (0x4)
                0x00000000000012f8                __vector_offset_2 = DEFINED (__vector_dispatch_2)?(. - _ebase_address):__vector_offset_default
 *(.vector_2)
                0x000000009d001200                . = ALIGN (0x4)
                0x00000000000012f8                __vector_offset_3 = DEFINED (__vector_dispatch_3)?(. - _ebase_address):__vector_offset_default
 *(.vector_3)
                0x000000009d001200                . = ALIGN (0x4)
                0x00000000000012f8                __vector_offset_4 = DEFINED (__vector_dispatch_4)?(. - _ebase_address):__vector_offset_default
 *(.vector_4)
                0x000000009d001200                . = ALIGN (0x4)
                0x00000000000012f8                __vector_offset_5 = DEFINED (__vector_dispatch_5)?(. - _ebase_address):__vector_offset_default
 *(.vector_5)
                0x000000009d001200                . = ALIGN (0x4)
                0x00000000000012f8                __vector_offset_6 = DEFINED (__vector_dispatch_6)?(. - _ebase_address):__vector_offset_default
 *(.vector_6)
                0x000000009d001200                . = ALIGN (0x4)
                0x00000000000012f8                __vector_offset_7 = DEFINED (__vector_dispatch_7)?(. - _ebase_address):__vector_offset_default
 *(.vector_7)
                0x000000009d001200                . = ALIGN (0x4)
                0x00000000000012f8                __vector_offset_8 = DEFINED (__vector_dispatch_8)?(. - _ebase_address):__vector_offset_default
 *(.vector_8)
                0x000000009d001200                . = ALIGN (0x4)
                0x0000000000001200                __vector_offset_9 = DEFINED (__vector_dispatch_9)?(. - _ebase_address):__vector_offset_default
 *(.vector_9)
 .vector_9      0x000000009d001200        0x8 build/pic32mz2048efm/production/_ext/2011215161/interrupts.o
                0x000000009d001200                __vector_dispatch_9
                0x000000009d001208                . = ALIGN (0x4)
                0x00000000000012f8                __vector_offset_10 = DEFINED (__vector_dispatch_10)?(. - _ebase_address):__vector_offset_default
 *(.vector_10)
                0x000000009d001208                . = ALIGN (0x4)
                0x00000000000012f8                __vector_offset_11 = DEFINED (__vector_dispatch_11)?(. - _ebase_address):__vector_offset_default
 *(.vector_11)
                0x000000009d001208                . = ALIGN (0x4)
                0x00000000000012f8                __vector_offset_12 = DEFINED (__vector_dispatch_12)?(. - _ebase_address):__vector_offset_default
 *(.vector_12)
                0x000000009d001208                . = ALIGN (0x4)
                0x00000000000012f8                __vector_offset_13 = DEFINED (__vector_dispatch_13)?(. - _ebase_address):__vector_offset_default
 *(.vector_13)
                0x000000009d001208                . = ALIGN (0x4)
                0x0000000000001208                __vector_offset_14 = DEFINED (__vector_dispatch_14)?(. - _ebase_address):__vector_offset_default
 *(.vector_14)
 .vector_14     0x000000009d001208        0x8 build/pic32mz2048efm/production/_ext/2011215161/interrupts.o
                0x000000009d001208                __vector_dispatch_14
                0x000000009d001210                . = ALIGN (0x4)
                0x00000000000012f8                __vector_offset_15 = DEFINED (__vector_dispatch_15)?(. - _ebase_address):__vector_offset_default
 *(.vector_15)
                0x000000009d001210                . = ALIGN (0x4)
                0x00000000000012f8                __vector_offset_16 = DEFINED (__vector_dispatch_16)?(. - _ebase_address):__vector_offset_default
 *(.vector_16)
                0x000000009d001210                . = ALIGN (0x4)
                0x00000000000012f8                __vector_offset_17 = DEFINED (__vector_dispatch_17)?(. - _ebase_address):__vector_offset_default
 *(.vector_17)
                0x000000009d001210                . = ALIGN (0x4)
                0x00000000000012f8                __vector_offset_18 = DEFINED (__vector_dispatch_18)?(. - _ebase_address):__vector_offset_default
 *(.vector_18)
                0x000000009d001210                . = ALIGN (0x4)
                0x00000000000012f8                __vector_offset_19 = DEFINED (__vector_dispatch_19)?(. - _ebase_address):__vector_offset_default
 *(.vector_19)
                0x000000009d001210                . = ALIGN (0x4)
                0x00000000000012f8                __vector_offset_20 = DEFINED (__vector_dispatch_20)?(. - _ebase_address):__vector_offset_default
 *(.vector_20)
                0x000000009d001210                . = ALIGN (0x4)
                0x00000000000012f8                __vector_offset_21 = DEFINED (__vector_dispatch_21)?(. - _ebase_address):__vector_offset_default
 *(.vector_21)
                0x000000009d001210                . = ALIGN (0x4)
                0x00000000000012f8                __vector_offset_22 = DEFINED (__vector_dispatch_22)?(. - _ebase_address):__vector_offset_default
 *(.vector_22)
                0x000000009d001210                . = ALIGN (0x4)
                0x00000000000012f8                __vector_offset_23 = DEFINED (__vector_dispatch_23)?(. - _ebase_address):__vector_offset_default
 *(.vector_23)
                0x000000009d001210                . = ALIGN (0x4)
                0x00000000000012f8                __vector_offset_24 = DEFINED (__vector_dispatch_24)?(. - _ebase_address):__vector_offset_default
 *(.vector_24)
                0x000000009d001210                . = ALIGN (0x4)
                0x00000000000012f8                __vector_offset_25 = DEFINED (__vector_dispatch_25)?(. - _ebase_address):__vector_offset_default
 *(.vector_25)
                0x000000009d001210                . = ALIGN (0x4)
                0x00000000000012f8                __vector_offset_26 = DEFINED (__vector_dispatch_26)?(. - _ebase_address):__vector_offset_default
 *(.vector_26)
                0x000000009d001210                . = ALIGN (0x4)
                0x00000000000012f8                __vector_offset_27 = DEFINED (__vector_dispatch_27)?(. - _ebase_address):__vector_offset_default
 *(.vector_27)
                0x000000009d001210                . = ALIGN (0x4)
                0x00000000000012f8                __vector_offset_28 = DEFINED (__vector_dispatch_28)?(. - _ebase_address):__vector_offset_default
 *(.vector_28)
                0x000000009d001210                . = ALIGN (0x4)
                0x00000000000012f8                __vector_offset_29 = DEFINED (__vector_dispatch_29)?(. - _ebase_address):__vector_offset_default
 *(.vector_29)
                0x000000009d001210                . = ALIGN (0x4)
                0x00000000000012f8                __vector_offset_30 = DEFINED (__vector_dispatch_30)?(. - _ebase_address):__vector_offset_default
 *(.vector_30)
                0x000000009d001210                . = ALIGN (0x4)
                0x00000000000012f8                __vector_offset_31 = DEFINED (__vector_dispatch_31)?(. - _ebase_address):__vector_offset_default
 *(.vector_31)
                0x000000009d001210                . = ALIGN (0x4)
                0x00000000000012f8                __vector_offset_32 = DEFINED (__vector_dispatch_32)?(. - _ebase_address):__vector_offset_default
 *(.vector_32)
                0x000000009d001210                . = ALIGN (0x4)
                0x00000000000012f8                __vector_offset_33 = DEFINED (__vector_dispatch_33)?(. - _ebase_address):__vector_offset_default
 *(.vector_33)
                0x000000009d001210                . = ALIGN (0x4)
                0x00000000000012f8                __vector_offset_34 = DEFINED (__vector_dispatch_34)?(. - _ebase_address):__vector_offset_default
 *(.vector_34)
                0x000000009d001210                . = ALIGN (0x4)
                0x00000000000012f8                __vector_offset_35 = DEFINED (__vector_dispatch_35)?(. - _ebase_address):__vector_offset_default
 *(.vector_35)
                0x000000009d001210                . = ALIGN (0x4)
                0x00000000000012f8                __vector_offset_36 = DEFINED (__vector_dispatch_36)?(. - _ebase_address):__vector_offset_default
 *(.vector_36)
                0x000000009d001210                . = ALIGN (0x4)
                0x00000000000012f8                __vector_offset_37 = DEFINED (__vector_dispatch_37)?(. - _ebase_address):__vector_offset_default
 *(.vector_37)
                0x000000009d001210                . = ALIGN (0x4)
                0x00000000000012f8                __vector_offset_38 = DEFINED (__vector_dispatch_38)?(. - _ebase_address):__vector_offset_default
 *(.vector_38)
                0x000000009d001210                . = ALIGN (0x4)
                0x00000000000012f8                __vector_offset_39 = DEFINED (__vector_dispatch_39)?(. - _ebase_address):__vector_offset_default
 *(.vector_39)
                0x000000009d001210                . = ALIGN (0x4)
                0x00000000000012f8                __vector_offset_40 = DEFINED (__vector_dispatch_40)?(. - _ebase_address):__vector_offset_default
 *(.vector_40)
                0x000000009d001210                . = ALIGN (0x4)
                0x00000000000012f8                __vector_offset_41 = DEFINED (__vector_dispatch_41)?(. - _ebase_address):__vector_offset_default
 *(.vector_41)
                0x000000009d001210                . = ALIGN (0x4)
                0x00000000000012f8                __vector_offset_42 = DEFINED (__vector_dispatch_42)?(. - _ebase_address):__vector_offset_default
 *(.vector_42)
                0x000000009d001210                . = ALIGN (0x4)
                0x00000000000012f8                __vector_offset_43 = DEFINED (__vector_dispatch_43)?(. - _ebase_address):__vector_offset_default
 *(.vector_43)
                0x000000009d001210                . = ALIGN (0x4)
                0x00000000000012f8                __vector_offset_44 = DEFINED (__vector_dispatch_44)?(. - _ebase_address):__vector_offset_default
 *(.vector_44)
                0x000000009d001210                . = ALIGN (0x4)
                0x00000000000012f8                __vector_offset_45 = DEFINED (__vector_dispatch_45)?(. - _ebase_address):__vector_offset_default
 *(.vector_45)
                0x000000009d001210                . = ALIGN (0x4)
                0x00000000000012f8                __vector_offset_46 = DEFINED (__vector_dispatch_46)?(. - _ebase_address):__vector_offset_default
 *(.vector_46)
                0x000000009d001210                . = ALIGN (0x4)
                0x00000000000012f8                __vector_offset_47 = DEFINED (__vector_dispatch_47)?(. - _ebase_address):__vector_offset_default
 *(.vector_47)
                0x000000009d001210                . = ALIGN (0x4)
                0x00000000000012f8                __vector_offset_48 = DEFINED (__vector_dispatch_48)?(. - _ebase_address):__vector_offset_default
 *(.vector_48)
                0x000000009d001210                . = ALIGN (0x4)
                0x00000000000012f8                __vector_offset_49 = DEFINED (__vector_dispatch_49)?(. - _ebase_address):__vector_offset_default
 *(.vector_49)
                0x000000009d001210                . = ALIGN (0x4)
                0x00000000000012f8                __vector_offset_50 = DEFINED (__vector_dispatch_50)?(. - _ebase_address):__vector_offset_default
 *(.vector_50)
                0x000000009d001210                . = ALIGN (0x4)
                0x00000000000012f8                __vector_offset_51 = DEFINED (__vector_dispatch_51)?(. - _ebase_address):__vector_offset_default
 *(.vector_51)
                0x000000009d001210                . = ALIGN (0x4)
                0x00000000000012f8                __vector_offset_52 = DEFINED (__vector_dispatch_52)?(. - _ebase_address):__vector_offset_default
 *(.vector_52)
                0x000000009d001210                . = ALIGN (0x4)
                0x00000000000012f8                __vector_offset_53 = DEFINED (__vector_dispatch_53)?(. - _ebase_address):__vector_offset_default
 *(.vector_53)
                0x000000009d001210                . = ALIGN (0x4)
                0x00000000000012f8                __vector_offset_54 = DEFINED (__vector_dispatch_54)?(. - _ebase_address):__vector_offset_default
 *(.vector_54)
                0x000000009d001210                . = ALIGN (0x4)
                0x00000000000012f8                __vector_offset_55 = DEFINED (__vector_dispatch_55)?(. - _ebase_address):__vector_offset_default
 *(.vector_55)
                0x000000009d001210                . = ALIGN (0x4)
                0x00000000000012f8                __vector_offset_56 = DEFINED (__vector_dispatch_56)?(. - _ebase_address):__vector_offset_default
 *(.vector_56)
                0x000000009d001210                . = ALIGN (0x4)
                0x00000000000012f8                __vector_offset_57 = DEFINED (__vector_dispatch_57)?(. - _ebase_address):__vector_offset_default
 *(.vector_57)
                0x000000009d001210                . = ALIGN (0x4)
                0x00000000000012f8                __vector_offset_58 = DEFINED (__vector_dispatch_58)?(. - _ebase_address):__vector_offset_default
 *(.vector_58)
                0x000000009d001210                . = ALIGN (0x4)
                0x00000000000012f8                __vector_offset_59 = DEFINED (__vector_dispatch_59)?(. - _ebase_address):__vector_offset_default
 *(.vector_59)
                0x000000009d001210                . = ALIGN (0x4)
                0x00000000000012f8                __vector_offset_60 = DEFINED (__vector_dispatch_60)?(. - _ebase_address):__vector_offset_default
 *(.vector_60)
                0x000000009d001210                . = ALIGN (0x4)
                0x00000000000012f8                __vector_offset_61 = DEFINED (__vector_dispatch_61)?(. - _ebase_address):__vector_offset_default
 *(.vector_61)
                0x000000009d001210                . = ALIGN (0x4)
                0x00000000000012f8                __vector_offset_62 = DEFINED (__vector_dispatch_62)?(. - _ebase_address):__vector_offset_default
 *(.vector_62)
                0x000000009d001210                . = ALIGN (0x4)
                0x00000000000012f8                __vector_offset_63 = DEFINED (__vector_dispatch_63)?(. - _ebase_address):__vector_offset_default
 *(.vector_63)
                0x000000009d001210                . = ALIGN (0x4)
                0x00000000000012f8                __vector_offset_64 = DEFINED (__vector_dispatch_64)?(. - _ebase_address):__vector_offset_default
 *(.vector_64)
                0x000000009d001210                . = ALIGN (0x4)
                0x00000000000012f8                __vector_offset_65 = DEFINED (__vector_dispatch_65)?(. - _ebase_address):__vector_offset_default
 *(.vector_65)
                0x000000009d001210                . = ALIGN (0x4)
                0x00000000000012f8                __vector_offset_66 = DEFINED (__vector_dispatch_66)?(. - _ebase_address):__vector_offset_default
 *(.vector_66)
                0x000000009d001210                . = ALIGN (0x4)
                0x00000000000012f8                __vector_offset_67 = DEFINED (__vector_dispatch_67)?(. - _ebase_address):__vector_offset_default
 *(.vector_67)
                0x000000009d001210                . = ALIGN (0x4)
                0x00000000000012f8                __vector_offset_68 = DEFINED (__vector_dispatch_68)?(. - _ebase_address):__vector_offset_default
 *(.vector_68)
                0x000000009d001210                . = ALIGN (0x4)
                0x00000000000012f8                __vector_offset_69 = DEFINED (__vector_dispatch_69)?(. - _ebase_address):__vector_offset_default
 *(.vector_69)
                0x000000009d001210                . = ALIGN (0x4)
                0x00000000000012f8                __vector_offset_70 = DEFINED (__vector_dispatch_70)?(. - _ebase_address):__vector_offset_default
 *(.vector_70)
                0x000000009d001210                . = ALIGN (0x4)
                0x00000000000012f8                __vector_offset_71 = DEFINED (__vector_dispatch_71)?(. - _ebase_address):__vector_offset_default
 *(.vector_71)
                0x000000009d001210                . = ALIGN (0x4)
                0x00000000000012f8                __vector_offset_72 = DEFINED (__vector_dispatch_72)?(. - _ebase_address):__vector_offset_default
 *(.vector_72)
                0x000000009d001210                . = ALIGN (0x4)
                0x00000000000012f8                __vector_offset_73 = DEFINED (__vector_dispatch_73)?(. - _ebase_address):__vector_offset_default
 *(.vector_73)
                0x000000009d001210                . = ALIGN (0x4)
                0x00000000000012f8                __vector_offset_74 = DEFINED (__vector_dispatch_74)?(. - _ebase_address):__vector_offset_default
 *(.vector_74)
                0x000000009d001210                . = ALIGN (0x4)
                0x00000000000012f8                __vector_offset_75 = DEFINED (__vector_dispatch_75)?(. - _ebase_address):__vector_offset_default
 *(.vector_75)
                0x000000009d001210                . = ALIGN (0x4)
                0x00000000000012f8                __vector_offset_76 = DEFINED (__vector_dispatch_76)?(. - _ebase_address):__vector_offset_default
 *(.vector_76)
                0x000000009d001210                . = ALIGN (0x4)
                0x00000000000012f8                __vector_offset_77 = DEFINED (__vector_dispatch_77)?(. - _ebase_address):__vector_offset_default
 *(.vector_77)
                0x000000009d001210                . = ALIGN (0x4)
                0x00000000000012f8                __vector_offset_78 = DEFINED (__vector_dispatch_78)?(. - _ebase_address):__vector_offset_default
 *(.vector_78)
                0x000000009d001210                . = ALIGN (0x4)
                0x00000000000012f8                __vector_offset_79 = DEFINED (__vector_dispatch_79)?(. - _ebase_address):__vector_offset_default
 *(.vector_79)
                0x000000009d001210                . = ALIGN (0x4)
                0x00000000000012f8                __vector_offset_80 = DEFINED (__vector_dispatch_80)?(. - _ebase_address):__vector_offset_default
 *(.vector_80)
                0x000000009d001210                . = ALIGN (0x4)
                0x00000000000012f8                __vector_offset_81 = DEFINED (__vector_dispatch_81)?(. - _ebase_address):__vector_offset_default
 *(.vector_81)
                0x000000009d001210                . = ALIGN (0x4)
                0x00000000000012f8                __vector_offset_82 = DEFINED (__vector_dispatch_82)?(. - _ebase_address):__vector_offset_default
 *(.vector_82)
                0x000000009d001210                . = ALIGN (0x4)
                0x00000000000012f8                __vector_offset_83 = DEFINED (__vector_dispatch_83)?(. - _ebase_address):__vector_offset_default
 *(.vector_83)
                0x000000009d001210                . = ALIGN (0x4)
                0x00000000000012f8                __vector_offset_84 = DEFINED (__vector_dispatch_84)?(. - _ebase_address):__vector_offset_default
 *(.vector_84)
                0x000000009d001210                . = ALIGN (0x4)
                0x00000000000012f8                __vector_offset_85 = DEFINED (__vector_dispatch_85)?(. - _ebase_address):__vector_offset_default
 *(.vector_85)
                0x000000009d001210                . = ALIGN (0x4)
                0x00000000000012f8                __vector_offset_86 = DEFINED (__vector_dispatch_86)?(. - _ebase_address):__vector_offset_default
 *(.vector_86)
                0x000000009d001210                . = ALIGN (0x4)
                0x00000000000012f8                __vector_offset_87 = DEFINED (__vector_dispatch_87)?(. - _ebase_address):__vector_offset_default
 *(.vector_87)
                0x000000009d001210                . = ALIGN (0x4)
                0x00000000000012f8                __vector_offset_88 = DEFINED (__vector_dispatch_88)?(. - _ebase_address):__vector_offset_default
 *(.vector_88)
                0x000000009d001210                . = ALIGN (0x4)
                0x00000000000012f8                __vector_offset_89 = DEFINED (__vector_dispatch_89)?(. - _ebase_address):__vector_offset_default
 *(.vector_89)
                0x000000009d001210                . = ALIGN (0x4)
                0x00000000000012f8                __vector_offset_90 = DEFINED (__vector_dispatch_90)?(. - _ebase_address):__vector_offset_default
 *(.vector_90)
                0x000000009d001210                . = ALIGN (0x4)
                0x00000000000012f8                __vector_offset_91 = DEFINED (__vector_dispatch_91)?(. - _ebase_address):__vector_offset_default
 *(.vector_91)
                0x000000009d001210                . = ALIGN (0x4)
                0x00000000000012f8                __vector_offset_92 = DEFINED (__vector_dispatch_92)?(. - _ebase_address):__vector_offset_default
 *(.vector_92)
                0x000000009d001210                . = ALIGN (0x4)
                0x00000000000012f8                __vector_offset_93 = DEFINED (__vector_dispatch_93)?(. - _ebase_address):__vector_offset_default
 *(.vector_93)
                0x000000009d001210                . = ALIGN (0x4)
                0x00000000000012f8                __vector_offset_94 = DEFINED (__vector_dispatch_94)?(. - _ebase_address):__vector_offset_default
 *(.vector_94)
                0x000000009d001210                . = ALIGN (0x4)
                0x00000000000012f8                __vector_offset_95 = DEFINED (__vector_dispatch_95)?(. - _ebase_address):__vector_offset_default
 *(.vector_95)
                0x000000009d001210                . = ALIGN (0x4)
                0x00000000000012f8                __vector_offset_96 = DEFINED (__vector_dispatch_96)?(. - _ebase_address):__vector_offset_default
 *(.vector_96)
                0x000000009d001210                . = ALIGN (0x4)
                0x00000000000012f8                __vector_offset_97 = DEFINED (__vector_dispatch_97)?(. - _ebase_address):__vector_offset_default
 *(.vector_97)
                0x000000009d001210                . = ALIGN (0x4)
                0x00000000000012f8                __vector_offset_98 = DEFINED (__vector_dispatch_98)?(. - _ebase_address):__vector_offset_default
 *(.vector_98)
                0x000000009d001210                . = ALIGN (0x4)
                0x00000000000012f8                __vector_offset_99 = DEFINED (__vector_dispatch_99)?(. - _ebase_address):__vector_offset_default
 *(.vector_99)
                0x000000009d001210                . = ALIGN (0x4)
                0x00000000000012f8                __vector_offset_100 = DEFINED (__vector_dispatch_100)?(. - _ebase_address):__vector_offset_default
 *(.vector_100)
                0x000000009d001210                . = ALIGN (0x4)
                0x00000000000012f8                __vector_offset_101 = DEFINED (__vector_dispatch_101)?(. - _ebase_address):__vector_offset_default
 *(.vector_101)
                0x000000009d001210                . = ALIGN (0x4)
                0x00000000000012f8                __vector_offset_102 = DEFINED (__vector_dispatch_102)?(. - _ebase_address):__vector_offset_default
 *(.vector_102)
                0x000000009d001210                . = ALIGN (0x4)
                0x00000000000012f8                __vector_offset_103 = DEFINED (__vector_dispatch_103)?(. - _ebase_address):__vector_offset_default
 *(.vector_103)
                0x000000009d001210                . = ALIGN (0x4)
                0x00000000000012f8                __vector_offset_104 = DEFINED (__vector_dispatch_104)?(. - _ebase_address):__vector_offset_default
 *(.vector_104)
                0x000000009d001210                . = ALIGN (0x4)
                0x00000000000012f8                __vector_offset_105 = DEFINED (__vector_dispatch_105)?(. - _ebase_address):__vector_offset_default
 *(.vector_105)
                0x000000009d001210                . = ALIGN (0x4)
                0x00000000000012f8                __vector_offset_106 = DEFINED (__vector_dispatch_106)?(. - _ebase_address):__vector_offset_default
 *(.vector_106)
                0x000000009d001210                . = ALIGN (0x4)
                0x00000000000012f8                __vector_offset_107 = DEFINED (__vector_dispatch_107)?(. - _ebase_address):__vector_offset_default
 *(.vector_107)
                0x000000009d001210                . = ALIGN (0x4)
                0x00000000000012f8                __vector_offset_108 = DEFINED (__vector_dispatch_108)?(. - _ebase_address):__vector_offset_default
 *(.vector_108)
                0x000000009d001210                . = ALIGN (0x4)
                0x00000000000012f8                __vector_offset_109 = DEFINED (__vector_dispatch_109)?(. - _ebase_address):__vector_offset_default
 *(.vector_109)
                0x000000009d001210                . = ALIGN (0x4)
                0x0000000000001210                __vector_offset_110 = DEFINED (__vector_dispatch_110)?(. - _ebase_address):__vector_offset_default
 *(.vector_110)
 .vector_110    0x000000009d001210        0x8 build/pic32mz2048efm/production/_ext/2011215161/interrupts.o
                0x000000009d001210                __vector_dispatch_110
                0x000000009d001218                . = ALIGN (0x4)
                0x0000000000001218                __vector_offset_111 = DEFINED (__vector_dispatch_111)?(. - _ebase_address):__vector_offset_default
 *(.vector_111)
 .vector_111    0x000000009d001218        0x8 build/pic32mz2048efm/production/_ext/2011215161/interrupts.o
                0x000000009d001218                __vector_dispatch_111
                0x000000009d001220                . = ALIGN (0x4)
                0x0000000000001220                __vector_offset_112 = DEFINED (__vector_dispatch_112)?(. - _ebase_address):__vector_offset_default
 *(.vector_112)
 .vector_112    0x000000009d001220        0x8 build/pic32mz2048efm/production/_ext/2011215161/interrupts.o
                0x000000009d001220                __vector_dispatch_112
                0x000000009d001228                . = ALIGN (0x4)
                0x0000000000001228                __vector_offset_113 = DEFINED (__vector_dispatch_113)?(. - _ebase_address):__vector_offset_default
 *(.vector_113)
 .vector_113    0x000000009d001228        0x8 build/pic32mz2048efm/production/_ext/2011215161/interrupts.o
                0x000000009d001228                __vector_dispatch_113
                0x000000009d001230                . = ALIGN (0x4)
                0x0000000000001230                __vector_offset_114 = DEFINED (__vector_dispatch_114)?(. - _ebase_address):__vector_offset_default
 *(.vector_114)
 .vector_114    0x000000009d001230        0x8 build/pic32mz2048efm/production/_ext/2011215161/interrupts.o
                0x000000009d001230                __vector_dispatch_114
                0x000000009d001238                . = ALIGN (0x4)
                0x00000000000012f8                __vector_offset_115 = DEFINED (__vector_dispatch_115)?(. - _ebase_address):__vector_offset_default
 *(.vector_115)
                0x000000009d001238                . = ALIGN (0x4)
                0x00000000000012f8                __vector_offset_116 = DEFINED (__vector_dispatch_116)?(. - _ebase_address):__vector_offset_default
 *(.vector_116)
                0x000000009d001238                . = ALIGN (0x4)
                0x00000000000012f8                __vector_offset_117 = DEFINED (__vector_dispatch_117)?(. - _ebase_address):__vector_offset_default
 *(.vector_117)
                0x000000009d001238                . = ALIGN (0x4)
                0x00000000000012f8                __vector_offset_118 = DEFINED (__vector_dispatch_118)?(. - _ebase_address):__vector_offset_default
 *(.vector_118)
                0x000000009d001238                . = ALIGN (0x4)
                0x0000000000001238                __vector_offset_119 = DEFINED (__vector_dispatch_119)?(. - _ebase_address):__vector_offset_default
 *(.vector_119)
 .vector_119    0x000000009d001238        0x8 build/pic32mz2048efm/production/_ext/2011215161/interrupts.o
                0x000000009d001238                __vector_dispatch_119
                0x000000009d001240                . = ALIGN (0x4)
                0x00000000000012f8                __vector_offset_120 = DEFINED (__vector_dispatch_120)?(. - _ebase_address):__vector_offset_default
 *(.vector_120)
                0x000000009d001240                . = ALIGN (0x4)
                0x00000000000012f8                __vector_offset_121 = DEFINED (__vector_dispatch_121)?(. - _ebase_address):__vector_offset_default
 *(.vector_121)
                0x000000009d001240                . = ALIGN (0x4)
                0x00000000000012f8                __vector_offset_122 = DEFINED (__vector_dispatch_122)?(. - _ebase_address):__vector_offset_default
 *(.vector_122)
                0x000000009d001240                . = ALIGN (0x4)
                0x00000000000012f8                __vector_offset_123 = DEFINED (__vector_dispatch_123)?(. - _ebase_address):__vector_offset_default
 *(.vector_123)
                0x000000009d001240                . = ALIGN (0x4)
                0x00000000000012f8                __vector_offset_124 = DEFINED (__vector_dispatch_124)?(. - _ebase_address):__vector_offset_default
 *(.vector_124)
                0x000000009d001240                . = ALIGN (0x4)
                0x00000000000012f8                __vector_offset_125 = DEFINED (__vector_dispatch_125)?(. - _ebase_address):__vector_offset_default
 *(.vector_125)
                0x000000009d001240                . = ALIGN (0x4)
                0x0000000000001240                __vector_offset_126 = DEFINED (__vector_dispatch_126)?(. - _ebase_address):__vector_offset_default
 *(.vector_126)
 .vector_126    0x000000009d001240        0x8 build/pic32mz2048efm/production/_ext/2011215161/interrupts.o
                0x000000009d001240                __vector_dispatch_126
                0x000000009d001248                . = ALIGN (0x4)
                0x00000000000012f8                __vector_offset_127 = DEFINED (__vector_dispatch_127)?(. - _ebase_address):__vector_offset_default
 *(.vector_127)
                0x000000009d001248                . = ALIGN (0x4)
                0x00000000000012f8                __vector_offset_128 = DEFINED (__vector_dispatch_128)?(. - _ebase_address):__vector_offset_default
 *(.vector_128)
                0x000000009d001248                . = ALIGN (0x4)
                0x00000000000012f8                __vector_offset_129 = DEFINED (__vector_dispatch_129)?(. - _ebase_address):__vector_offset_default
 *(.vector_129)
                0x000000009d001248                . = ALIGN (0x4)
                0x00000000000012f8                __vector_offset_130 = DEFINED (__vector_dispatch_130)?(. - _ebase_address):__vector_offset_default
 *(.vector_130)
                0x000000009d001248                . = ALIGN (0x4)
                0x00000000000012f8                __vector_offset_131 = DEFINED (__vector_dispatch_131)?(. - _ebase_address):__vector_offset_default
 *(.vector_131)
                0x000000009d001248                . = ALIGN (0x4)
                0x0000000000001248                __vector_offset_132 = DEFINED (__vector_dispatch_132)?(. - _ebase_address):__vector_offset_default
 *(.vector_132)
 .vector_132    0x000000009d001248        0x8 build/pic32mz2048efm/production/_ext/2011215161/interrupts.o
                0x000000009d001248                __vector_dispatch_132
                0x000000009d001250                . = ALIGN (0x4)
                0x0000000000001250                __vector_offset_133 = DEFINED (__vector_dispatch_133)?(. - _ebase_address):__vector_offset_default
 *(.vector_133)
 .vector_133    0x000000009d001250        0x8 build/pic32mz2048efm/production/_ext/2011215161/interrupts.o
                0x000000009d001250                __vector_dispatch_133
                0x000000009d001258                . = ALIGN (0x4)
                0x00000000000012f8                __vector_offset_134 = DEFINED (__vector_dispatch_134)?(. - _ebase_address):__vector_offset_default
 *(.vector_134)
                0x000000009d001258                . = ALIGN (0x4)
                0x00000000000012f8                __vector_offset_135 = DEFINED (__vector_dispatch_135)?(. - _ebase_address):__vector_offset_default
 *(.vector_135)
                0x000000009d001258                . = ALIGN (0x4)
                0x00000000000012f8                __vector_offset_136 = DEFINED (__vector_dispatch_136)?(. - _ebase_address):__vector_offset_default
 *(.vector_136)
                0x000000009d001258                . = ALIGN (0x4)
                0x00000000000012f8                __vector_offset_137 = DEFINED (__vector_dispatch_137)?(. - _ebase_address):__vector_offset_default
 *(.vector_137)
                0x000000009d001258                . = ALIGN (0x4)
                0x00000000000012f8                __vector_offset_138 = DEFINED (__vector_dispatch_138)?(. - _ebase_address):__vector_offset_default
 *(.vector_138)
                0x000000009d001258                . = ALIGN (0x4)
                0x00000000000012f8                __vector_offset_139 = DEFINED (__vector_dispatch_139)?(. - _ebase_address):__vector_offset_default
 *(.vector_139)
                0x000000009d001258                . = ALIGN (0x4)
                0x00000000000012f8                __vector_offset_140 = DEFINED (__vector_dispatch_140)?(. - _ebase_address):__vector_offset_default
 *(.vector_140)
                0x000000009d001258                . = ALIGN (0x4)
                0x00000000000012f8                __vector_offset_141 = DEFINED (__vector_dispatch_141)?(. - _ebase_address):__vector_offset_default
 *(.vector_141)
                0x000000009d001258                . = ALIGN (0x4)
                0x00000000000012f8                __vector_offset_142 = DEFINED (__vector_dispatch_142)?(. - _ebase_address):__vector_offset_default
 *(.vector_142)
                0x000000009d001258                . = ALIGN (0x4)
                0x0000000000001258                __vector_offset_143 = DEFINED (__vector_dispatch_143)?(. - _ebase_address):__vector_offset_default
 *(.vector_143)
 .vector_143    0x000000009d001258        0x8 build/pic32mz2048efm/production/_ext/2011215161/interrupts.o
                0x000000009d001258                __vector_dispatch_143
                0x000000009d001260                . = ALIGN (0x4)
                0x0000000000001260                __vector_offset_144 = DEFINED (__vector_dispatch_144)?(. - _ebase_address):__vector_offset_default
 *(.vector_144)
 .vector_144    0x000000009d001260        0x8 build/pic32mz2048efm/production/_ext/2011215161/interrupts.o
                0x000000009d001260                __vector_dispatch_144
                0x000000009d001268                . = ALIGN (0x4)
                0x0000000000001268                __vector_offset_145 = DEFINED (__vector_dispatch_145)?(. - _ebase_address):__vector_offset_default
 *(.vector_145)
 .vector_145    0x000000009d001268        0x8 build/pic32mz2048efm/production/_ext/2011215161/interrupts.o
                0x000000009d001268                __vector_dispatch_145
                0x000000009d001270                . = ALIGN (0x4)
                0x0000000000001270                __vector_offset_146 = DEFINED (__vector_dispatch_146)?(. - _ebase_address):__vector_offset_default
 *(.vector_146)
 .vector_146    0x000000009d001270        0x8 build/pic32mz2048efm/production/_ext/2011215161/interrupts.o
                0x000000009d001270                __vector_dispatch_146
                0x000000009d001278                . = ALIGN (0x4)
                0x0000000000001278                __vector_offset_147 = DEFINED (__vector_dispatch_147)?(. - _ebase_address):__vector_offset_default
 *(.vector_147)
 .vector_147    0x000000009d001278        0x8 build/pic32mz2048efm/production/_ext/2011215161/interrupts.o
                0x000000009d001278                __vector_dispatch_147
                0x000000009d001280                . = ALIGN (0x4)
                0x0000000000001280                __vector_offset_148 = DEFINED (__vector_dispatch_148)?(. - _ebase_address):__vector_offset_default
 *(.vector_148)
 .vector_148    0x000000009d001280        0x8 build/pic32mz2048efm/production/_ext/2011215161/interrupts.o
                0x000000009d001280                __vector_dispatch_148
                0x000000009d001288                . = ALIGN (0x4)
                0x00000000000012f8                __vector_offset_149 = DEFINED (__vector_dispatch_149)?(. - _ebase_address):__vector_offset_default
 *(.vector_149)
                0x000000009d001288                . = ALIGN (0x4)
                0x0000000000001288                __vector_offset_150 = DEFINED (__vector_dispatch_150)?(. - _ebase_address):__vector_offset_default
 *(.vector_150)
 .vector_150    0x000000009d001288        0x8 build/pic32mz2048efm/production/_ext/2011215161/interrupts.o
                0x000000009d001288                __vector_dispatch_150
                0x000000009d001290                . = ALIGN (0x4)
                0x00000000000012f8                __vector_offset_151 = DEFINED (__vector_dispatch_151)?(. - _ebase_address):__vector_offset_default
 *(.vector_151)
                0x000000009d001290                . = ALIGN (0x4)
                0x00000000000012f8                __vector_offset_152 = DEFINED (__vector_dispatch_152)?(. - _ebase_address):__vector_offset_default
 *(.vector_152)
                0x000000009d001290                . = ALIGN (0x4)
                0x00000000000012f8                __vector_offset_153 = DEFINED (__vector_dispatch_153)?(. - _ebase_address):__vector_offset_default
 *(.vector_153)
                0x000000009d001290                . = ALIGN (0x4)
                0x00000000000012f8                __vector_offset_154 = DEFINED (__vector_dispatch_154)?(. - _ebase_address):__vector_offset_default
 *(.vector_154)
                0x000000009d001290                . = ALIGN (0x4)
                0x00000000000012f8                __vector_offset_155 = DEFINED (__vector_dispatch_155)?(. - _ebase_address):__vector_offset_default
 *(.vector_155)
                0x000000009d001290                . = ALIGN (0x4)
                0x00000000000012f8                __vector_offset_156 = DEFINED (__vector_dispatch_156)?(. - _ebase_address):__vector_offset_default
 *(.vector_156)
                0x000000009d001290                . = ALIGN (0x4)
                0x0000000000001290                __vector_offset_157 = DEFINED (__vector_dispatch_157)?(. - _ebase_address):__vector_offset_default
 *(.vector_157)
 .vector_157    0x000000009d001290        0x8 build/pic32mz2048efm/production/_ext/2011215161/interrupts.o
                0x000000009d001290                __vector_dispatch_157
                0x000000009d001298                . = ALIGN (0x4)
                0x0000000000001298                __vector_offset_158 = DEFINED (__vector_dispatch_158)?(. - _ebase_address):__vector_offset_default
 *(.vector_158)
 .vector_158    0x000000009d001298        0x8 build/pic32mz2048efm/production/_ext/2011215161/interrupts.o
                0x000000009d001298                __vector_dispatch_158
                0x000000009d0012a0                . = ALIGN (0x4)
                0x00000000000012a0                __vector_offset_159 = DEFINED (__vector_dispatch_159)?(. - _ebase_address):__vector_offset_default
 *(.vector_159)
 .vector_159    0x000000009d0012a0        0x8 build/pic32mz2048efm/production/_ext/2011215161/interrupts.o
                0x000000009d0012a0                __vector_dispatch_159
                0x000000009d0012a8                . = ALIGN (0x4)
                0x00000000000012f8                __vector_offset_160 = DEFINED (__vector_dispatch_160)?(. - _ebase_address):__vector_offset_default
 *(.vector_160)
                0x000000009d0012a8                . = ALIGN (0x4)
                0x00000000000012f8                __vector_offset_161 = DEFINED (__vector_dispatch_161)?(. - _ebase_address):__vector_offset_default
 *(.vector_161)
                0x000000009d0012a8                . = ALIGN (0x4)
                0x00000000000012f8                __vector_offset_162 = DEFINED (__vector_dispatch_162)?(. - _ebase_address):__vector_offset_default
 *(.vector_162)
                0x000000009d0012a8                . = ALIGN (0x4)
                0x00000000000012f8                __vector_offset_163 = DEFINED (__vector_dispatch_163)?(. - _ebase_address):__vector_offset_default
 *(.vector_163)
                0x000000009d0012a8                . = ALIGN (0x4)
                0x00000000000012a8                __vector_offset_164 = DEFINED (__vector_dispatch_164)?(. - _ebase_address):__vector_offset_default
 *(.vector_164)
 .vector_164    0x000000009d0012a8        0x8 build/pic32mz2048efm/production/_ext/2011215161/interrupts.o
                0x000000009d0012a8                __vector_dispatch_164
                0x000000009d0012b0                . = ALIGN (0x4)
                0x00000000000012b0                __vector_offset_165 = DEFINED (__vector_dispatch_165)?(. - _ebase_address):__vector_offset_default
 *(.vector_165)
 .vector_165    0x000000009d0012b0        0x8 build/pic32mz2048efm/production/_ext/2011215161/interrupts.o
                0x000000009d0012b0                __vector_dispatch_165
                0x000000009d0012b8                . = ALIGN (0x4)
                0x00000000000012b8                __vector_offset_166 = DEFINED (__vector_dispatch_166)?(. - _ebase_address):__vector_offset_default
 *(.vector_166)
 .vector_166    0x000000009d0012b8        0x8 build/pic32mz2048efm/production/_ext/2011215161/interrupts.o
                0x000000009d0012b8                __vector_dispatch_166
                0x000000009d0012c0                . = ALIGN (0x4)
                0x00000000000012f8                __vector_offset_167 = DEFINED (__vector_dispatch_167)?(. - _ebase_address):__vector_offset_default
 *(.vector_167)
                0x000000009d0012c0                . = ALIGN (0x4)
                0x00000000000012f8                __vector_offset_168 = DEFINED (__vector_dispatch_168)?(. - _ebase_address):__vector_offset_default
 *(.vector_168)
                0x000000009d0012c0                . = ALIGN (0x4)
                0x00000000000012f8                __vector_offset_169 = DEFINED (__vector_dispatch_169)?(. - _ebase_address):__vector_offset_default
 *(.vector_169)
                0x000000009d0012c0                . = ALIGN (0x4)
                0x00000000000012f8                __vector_offset_170 = DEFINED (__vector_dispatch_170)?(. - _ebase_address):__vector_offset_default
 *(.vector_170)
                0x000000009d0012c0                . = ALIGN (0x4)
                0x00000000000012f8                __vector_offset_171 = DEFINED (__vector_dispatch_171)?(. - _ebase_address):__vector_offset_default
 *(.vector_171)
                0x000000009d0012c0                . = ALIGN (0x4)
                0x00000000000012f8                __vector_offset_172 = DEFINED (__vector_dispatch_172)?(. - _ebase_address):__vector_offset_default
 *(.vector_172)
                0x000000009d0012c0                . = ALIGN (0x4)
                0x00000000000012c0                __vector_offset_173 = DEFINED (__vector_dispatch_173)?(. - _ebase_address):__vector_offset_default
 *(.vector_173)
 .vector_173    0x000000009d0012c0        0x8 build/pic32mz2048efm/production/_ext/2011215161/interrupts.o
                0x000000009d0012c0                __vector_dispatch_173
                0x000000009d0012c8                . = ALIGN (0x4)
                0x00000000000012f8                __vector_offset_174 = DEFINED (__vector_dispatch_174)?(. - _ebase_address):__vector_offset_default
 *(.vector_174)
                0x000000009d0012c8                . = ALIGN (0x4)
                0x00000000000012c8                __vector_offset_175 = DEFINED (__vector_dispatch_175)?(. - _ebase_address):__vector_offset_default
 *(.vector_175)
 .vector_175    0x000000009d0012c8        0x8 build/pic32mz2048efm/production/_ext/2011215161/interrupts.o
                0x000000009d0012c8                __vector_dispatch_175
                0x000000009d0012d0                . = ALIGN (0x4)
                0x00000000000012f8                __vector_offset_176 = DEFINED (__vector_dispatch_176)?(. - _ebase_address):__vector_offset_default
 *(.vector_176)
                0x000000009d0012d0                . = ALIGN (0x4)
                0x00000000000012d0                __vector_offset_177 = DEFINED (__vector_dispatch_177)?(. - _ebase_address):__vector_offset_default
 *(.vector_177)
 .vector_177    0x000000009d0012d0        0x8 build/pic32mz2048efm/production/_ext/2011215161/interrupts.o
                0x000000009d0012d0                __vector_dispatch_177
                0x000000009d0012d8                . = ALIGN (0x4)
                0x00000000000012d8                __vector_offset_178 = DEFINED (__vector_dispatch_178)?(. - _ebase_address):__vector_offset_default
 *(.vector_178)
 .vector_178    0x000000009d0012d8        0x8 build/pic32mz2048efm/production/_ext/2011215161/interrupts.o
                0x000000009d0012d8                __vector_dispatch_178
                0x000000009d0012e0                . = ALIGN (0x4)
                0x00000000000012f8                __vector_offset_179 = DEFINED (__vector_dispatch_179)?(. - _ebase_address):__vector_offset_default
 *(.vector_179)
                0x000000009d0012e0                . = ALIGN (0x4)
                0x00000000000012f8                __vector_offset_180 = DEFINED (__vector_dispatch_180)?(. - _ebase_address):__vector_offset_default
 *(.vector_180)
                0x000000009d0012e0                . = ALIGN (0x4)
                0x00000000000012f8                __vector_offset_181 = DEFINED (__vector_dispatch_181)?(. - _ebase_address):__vector_offset_default
 *(.vector_181)
                0x000000009d0012e0                . = ALIGN (0x4)
                0x00000000000012f8                __vector_offset_182 = DEFINED (__vector_dispatch_182)?(. - _ebase_address):__vector_offset_default
 *(.vector_182)
                0x000000009d0012e0                . = ALIGN (0x4)
                0x00000000000012f8                __vector_offset_183 = DEFINED (__vector_dispatch_183)?(. - _ebase_address):__vector_offset_default
 *(.vector_183)
                0x000000009d0012e0                . = ALIGN (0x4)
                0x00000000000012f8                __vector_offset_184 = DEFINED (__vector_dispatch_184)?(. - _ebase_address):__vector_offset_default
 *(.vector_184)
                0x000000009d0012e0                . = ALIGN (0x4)
                0x00000000000012f8                __vector_offset_185 = DEFINED (__vector_dispatch_185)?(. - _ebase_address):__vector_offset_default
 *(.vector_185)
                0x000000009d0012e0                . = ALIGN (0x4)
                0x00000000000012f8                __vector_offset_186 = DEFINED (__vector_dispatch_186)?(. - _ebase_address):__vector_offset_default
 *(.vector_186)
                0x000000009d0012e0                . = ALIGN (0x4)
                0x00000000000012f8                __vector_offset_187 = DEFINED (__vector_dispatch_187)?(. - _ebase_address):__vector_offset_default
 *(.vector_187)
                0x000000009d0012e0                . = ALIGN (0x4)
                0x00000000000012e0                __vector_offset_188 = DEFINED (__vector_dispatch_188)?(. - _ebase_address):__vector_offset_default
 *(.vector_188)
 .vector_188    0x000000009d0012e0        0x8 build/pic32mz2048efm/production/_ext/2011215161/interrupts.o
                0x000000009d0012e0                __vector_dispatch_188
                0x000000009d0012e8                . = ALIGN (0x4)
                0x00000000000012e8                __vector_offset_189 = DEFINED (__vector_dispatch_189)?(. - _ebase_address):__vector_offset_default
 *(.vector_189)
 .vector_189    0x000000009d0012e8        0x8 build/pic32mz2048efm/production/_ext/2011215161/interrupts.o
                0x000000009d0012e8                __vector_dispatch_189
                0x000000009d0012f0                . = ALIGN (0x4)
                0x00000000000012f0                __vector_offset_190 = DEFINED (__vector_dispatch_190)?(. - _ebase_address):__vector_offset_default
 *(.vector_190)
 .vector_190    0x000000009d0012f0        0x8 build/pic32mz2048efm/production/_ext/2011215161/interrupts.o
                0x000000009d0012f0                __vector_dispatch_190
                0x000000009d0012f8                . = ALIGN (0x4)
                0x00000000000012f8                __vector_offset_191 = DEFINED (__vector_dispatch_191)?(. - _ebase_address):__vector_offset_default
 *(.vector_191)
                0x000000009d0012f8                . = ALIGN (0x4)
                0x00000000000012f8                __vector_offset_192 = DEFINED (__vector_dispatch_192)?(. - _ebase_address):__vector_offset_default
 *(.vector_192)
                0x000000009d0012f8                . = ALIGN (0x4)
                0x00000000000012f8                __vector_offset_193 = DEFINED (__vector_dispatch_193)?(. - _ebase_address):__vector_offset_default
 *(.vector_193)
                0x000000009d0012f8                . = ALIGN (0x4)
                0x00000000000012f8                __vector_offset_194 = DEFINED (__vector_dispatch_194)?(. - _ebase_address):__vector_offset_default
 *(.vector_194)
                0x000000009d0012f8                . = ALIGN (0x4)
                0x00000000000012f8                __vector_offset_195 = DEFINED (__vector_dispatch_195)?(. - _ebase_address):__vector_offset_default
 *(.vector_195)
                0x000000009d0012f8                . = ALIGN (0x4)
                0x00000000000012f8                __vector_offset_196 = DEFINED (__vector_dispatch_196)?(. - _ebase_address):__vector_offset_default
 *(.vector_196)
                0x000000009d0012f8                . = ALIGN (0x4)
                0x00000000000012f8                __vector_offset_197 = DEFINED (__vector_dispatch_197)?(. - _ebase_address):__vector_offset_default
 *(.vector_197)
                0x000000009d0012f8                . = ALIGN (0x4)
                0x00000000000012f8                __vector_offset_198 = DEFINED (__vector_dispatch_198)?(. - _ebase_address):__vector_offset_default
 *(.vector_198)
                0x000000009d0012f8                . = ALIGN (0x4)
                0x00000000000012f8                __vector_offset_199 = DEFINED (__vector_dispatch_199)?(. - _ebase_address):__vector_offset_default
 *(.vector_199)
                0x000000009d0012f8                . = ALIGN (0x4)
                0x00000000000012f8                __vector_offset_200 = DEFINED (__vector_dispatch_200)?(. - _ebase_address):__vector_offset_default
 *(.vector_200)
                0x000000009d0012f8                . = ALIGN (0x4)
                0x00000000000012f8                __vector_offset_201 = DEFINED (__vector_dispatch_201)?(. - _ebase_address):__vector_offset_default
 *(.vector_201)
                0x000000009d0012f8                . = ALIGN (0x4)
                0x00000000000012f8                __vector_offset_202 = DEFINED (__vector_dispatch_202)?(. - _ebase_address):__vector_offset_default
 *(.vector_202)
                0x000000009d0012f8                . = ALIGN (0x4)
                0x00000000000012f8                __vector_offset_203 = DEFINED (__vector_dispatch_203)?(. - _ebase_address):__vector_offset_default
 *(.vector_203)
                0x000000009d0012f8                . = ALIGN (0x4)
                0x00000000000012f8                __vector_offset_204 = DEFINED (__vector_dispatch_204)?(. - _ebase_address):__vector_offset_default
 *(.vector_204)
                0x000000009d0012f8                . = ALIGN (0x4)
                0x00000000000012f8                __vector_offset_205 = DEFINED (__vector_dispatch_205)?(. - _ebase_address):__vector_offset_default
 *(.vector_205)
                0x000000009d0012f8                . = ALIGN (0x4)
                0x00000000000012f8                __vector_offset_206 = DEFINED (__vector_dispatch_206)?(. - _ebase_address):__vector_offset_default
 *(.vector_206)
                0x000000009d0012f8                . = ALIGN (0x4)
                0x00000000000012f8                __vector_offset_207 = DEFINED (__vector_dispatch_207)?(. - _ebase_address):__vector_offset_default
 *(.vector_207)
                0x000000009d0012f8                . = ALIGN (0x4)
                0x00000000000012f8                __vector_offset_208 = DEFINED (__vector_dispatch_208)?(. - _ebase_address):__vector_offset_default
 *(.vector_208)
                0x000000009d0012f8                . = ALIGN (0x4)
                0x00000000000012f8                __vector_offset_209 = DEFINED (__vector_dispatch_209)?(. - _ebase_address):__vector_offset_default
 *(.vector_209)
                0x000000009d0012f8                . = ALIGN (0x4)
                0x00000000000012f8                __vector_offset_210 = DEFINED (__vector_dispatch_210)?(. - _ebase_address):__vector_offset_default
 *(.vector_210)
                0x000000009d0012f8                . = ALIGN (0x4)
                0x00000000000012f8                __vector_offset_211 = DEFINED (__vector_dispatch_211)?(. - _ebase_address):__vector_offset_default
 *(.vector_211)
                0x000000009d0012f8                . = ALIGN (0x4)
                0x00000000000012f8                __vector_offset_212 = DEFINED (__vector_dispatch_212)?(. - _ebase_address):__vector_offset_default
 *(.vector_212)
                0x000000009d0012f8                . = ALIGN (0x4)
                0x00000000000012f8                __vector_offset_213 = DEFINED (__vector_dispatch_213)?(. - _ebase_address):__vector_offset_default
 *(.vector_213)
                0x000000009d0012f8                . = ALIGN (0x4)
                0x00000000000012f8                __vector_offset_214 = DEFINED (__vector_dispatch_214)?(. - _ebase_address):__vector_offset_default
 *(.vector_214)
                0x000000009d0012f8                . = ALIGN (0x4)
                0x00000000000012f8                __vector_offset_215 = DEFINED (__vector_dispatch_215)?(. - _ebase_address):__vector_offset_default
 *(.vector_215)
                0x000000009d0012f8                . = ALIGN (0x4)
                0x00000000000012f8                __vector_offset_216 = DEFINED (__vector_dispatch_216)?(. - _ebase_address):__vector_offset_default
 *(.vector_216)
                0x000000009d0012f8                . = ALIGN (0x4)
                0x00000000000012f8                __vector_offset_217 = DEFINED (__vector_dispatch_217)?(. - _ebase_address):__vector_offset_default
 *(.vector_217)
                0x000000009d0012f8                . = ALIGN (0x4)
                0x00000000000012f8                __vector_offset_218 = DEFINED (__vector_dispatch_218)?(. - _ebase_address):__vector_offset_default
 *(.vector_218)
                0x000000009d0012f8                . = ALIGN (0x4)
                0x00000000000012f8                __vector_offset_219 = DEFINED (__vector_dispatch_219)?(. - _ebase_address):__vector_offset_default
 *(.vector_219)
                0x000000009d0012f8                . = ALIGN (0x4)
                0x00000000000012f8                __vector_offset_220 = DEFINED (__vector_dispatch_220)?(. - _ebase_address):__vector_offset_default
 *(.vector_220)
                0x000000009d0012f8                . = ALIGN (0x4)
                0x00000000000012f8                __vector_offset_221 = DEFINED (__vector_dispatch_221)?(. - _ebase_address):__vector_offset_default
 *(.vector_221)
                0x000000009d0012f8                . = ALIGN (0x4)
                0x00000000000012f8                __vector_offset_222 = DEFINED (__vector_dispatch_222)?(. - _ebase_address):__vector_offset_default
 *(.vector_222)
                0x000000009d0012f8                . = ALIGN (0x4)
                0x00000000000012f8                __vector_offset_223 = DEFINED (__vector_dispatch_223)?(. - _ebase_address):__vector_offset_default
 *(.vector_223)
                0x000000009d0012f8                . = ALIGN (0x4)
                0x00000000000012f8                __vector_offset_224 = DEFINED (__vector_dispatch_224)?(. - _ebase_address):__vector_offset_default
 *(.vector_224)
                0x000000009d0012f8                . = ALIGN (0x4)
                0x00000000000012f8                __vector_offset_225 = DEFINED (__vector_dispatch_225)?(. - _ebase_address):__vector_offset_default
 *(.vector_225)
                0x000000009d0012f8                . = ALIGN (0x4)
                0x00000000000012f8                __vector_offset_226 = DEFINED (__vector_dispatch_226)?(. - _ebase_address):__vector_offset_default
 *(.vector_226)
                0x000000009d0012f8                . = ALIGN (0x4)
                0x00000000000012f8                __vector_offset_227 = DEFINED (__vector_dispatch_227)?(. - _ebase_address):__vector_offset_default
 *(.vector_227)
                0x000000009d0012f8                . = ALIGN (0x4)
                0x00000000000012f8                __vector_offset_228 = DEFINED (__vector_dispatch_228)?(. - _ebase_address):__vector_offset_default
 *(.vector_228)
                0x000000009d0012f8                . = ALIGN (0x4)
                0x00000000000012f8                __vector_offset_229 = DEFINED (__vector_dispatch_229)?(. - _ebase_address):__vector_offset_default
 *(.vector_229)
                0x000000009d0012f8                . = ALIGN (0x4)
                0x00000000000012f8                __vector_offset_230 = DEFINED (__vector_dispatch_230)?(. - _ebase_address):__vector_offset_default
 *(.vector_230)
                0x000000009d0012f8                . = ALIGN (0x4)
                0x00000000000012f8                __vector_offset_231 = DEFINED (__vector_dispatch_231)?(. - _ebase_address):__vector_offset_default
 *(.vector_231)
                0x000000009d0012f8                . = ALIGN (0x4)
                0x00000000000012f8                __vector_offset_232 = DEFINED (__vector_dispatch_232)?(. - _ebase_address):__vector_offset_default
 *(.vector_232)
                0x000000009d0012f8                . = ALIGN (0x4)
                0x00000000000012f8                __vector_offset_233 = DEFINED (__vector_dispatch_233)?(. - _ebase_address):__vector_offset_default
 *(.vector_233)
                0x000000009d0012f8                . = ALIGN (0x4)
                0x00000000000012f8                __vector_offset_234 = DEFINED (__vector_dispatch_234)?(. - _ebase_address):__vector_offset_default
 *(.vector_234)
                0x000000009d0012f8                . = ALIGN (0x4)
                0x00000000000012f8                __vector_offset_235 = DEFINED (__vector_dispatch_235)?(. - _ebase_address):__vector_offset_default
 *(.vector_235)
                0x000000009d0012f8                . = ALIGN (0x4)
                0x00000000000012f8                __vector_offset_236 = DEFINED (__vector_dispatch_236)?(. - _ebase_address):__vector_offset_default
 *(.vector_236)
                0x000000009d0012f8                . = ALIGN (0x4)
                0x00000000000012f8                __vector_offset_237 = DEFINED (__vector_dispatch_237)?(. - _ebase_address):__vector_offset_default
 *(.vector_237)
                0x000000009d0012f8                . = ALIGN (0x4)
                0x00000000000012f8                __vector_offset_238 = DEFINED (__vector_dispatch_238)?(. - _ebase_address):__vector_offset_default
 *(.vector_238)
                0x000000009d0012f8                . = ALIGN (0x4)
                0x00000000000012f8                __vector_offset_239 = DEFINED (__vector_dispatch_239)?(. - _ebase_address):__vector_offset_default
 *(.vector_239)
                0x000000009d0012f8                . = ALIGN (0x4)
                0x00000000000012f8                __vector_offset_240 = DEFINED (__vector_dispatch_240)?(. - _ebase_address):__vector_offset_default
 *(.vector_240)
                0x000000009d0012f8                . = ALIGN (0x4)
                0x00000000000012f8                __vector_offset_241 = DEFINED (__vector_dispatch_241)?(. - _ebase_address):__vector_offset_default
 *(.vector_241)
                0x000000009d0012f8                . = ALIGN (0x4)
                0x00000000000012f8                __vector_offset_242 = DEFINED (__vector_dispatch_242)?(. - _ebase_address):__vector_offset_default
 *(.vector_242)
                0x000000009d0012f8                . = ALIGN (0x4)
                0x00000000000012f8                __vector_offset_243 = DEFINED (__vector_dispatch_243)?(. - _ebase_address):__vector_offset_default
 *(.vector_243)
                0x000000009d0012f8                . = ALIGN (0x4)
                0x00000000000012f8                __vector_offset_244 = DEFINED (__vector_dispatch_244)?(. - _ebase_address):__vector_offset_default
 *(.vector_244)
                0x000000009d0012f8                . = ALIGN (0x4)
                0x00000000000012f8                __vector_offset_245 = DEFINED (__vector_dispatch_245)?(. - _ebase_address):__vector_offset_default
 *(.vector_245)
                0x000000009d0012f8                . = ALIGN (0x4)
                0x00000000000012f8                __vector_offset_246 = DEFINED (__vector_dispatch_246)?(. - _ebase_address):__vector_offset_default
 *(.vector_246)
                0x000000009d0012f8                . = ALIGN (0x4)
                0x00000000000012f8                __vector_offset_247 = DEFINED (__vector_dispatch_247)?(. - _ebase_address):__vector_offset_default
 *(.vector_247)
                0x000000009d0012f8                . = ALIGN (0x4)
                0x00000000000012f8                __vector_offset_248 = DEFINED (__vector_dispatch_248)?(. - _ebase_address):__vector_offset_default
 *(.vector_248)
                0x000000009d0012f8                . = ALIGN (0x4)
                0x00000000000012f8                __vector_offset_249 = DEFINED (__vector_dispatch_249)?(. - _ebase_address):__vector_offset_default
 *(.vector_249)
                0x000000009d0012f8                . = ALIGN (0x4)
                0x00000000000012f8                __vector_offset_250 = DEFINED (__vector_dispatch_250)?(. - _ebase_address):__vector_offset_default
 *(.vector_250)
                0x000000009d0012f8                . = ALIGN (0x4)
                0x00000000000012f8                __vector_offset_251 = DEFINED (__vector_dispatch_251)?(. - _ebase_address):__vector_offset_default
 *(.vector_251)
                0x000000009d0012f8                . = ALIGN (0x4)
                0x00000000000012f8                __vector_offset_252 = DEFINED (__vector_dispatch_252)?(. - _ebase_address):__vector_offset_default
 *(.vector_252)
                0x000000009d0012f8                . = ALIGN (0x4)
                0x00000000000012f8                __vector_offset_253 = DEFINED (__vector_dispatch_253)?(. - _ebase_address):__vector_offset_default
 *(.vector_253)
                0x000000009d0012f8                . = ALIGN (0x4)
                0x00000000000012f8                __vector_offset_254 = DEFINED (__vector_dispatch_254)?(. - _ebase_address):__vector_offset_default
 *(.vector_254)
                0x000000009d0012f8                . = ALIGN (0x4)
                0x00000000000012f8                __vector_offset_255 = DEFINED (__vector_dispatch_255)?(. - _ebase_address):__vector_offset_default
 *(.vector_255)
                0x000000009d0012f8                . = ALIGN (0x4)
                0x00000000000012f8                __vector_offset_default = (. - _ebase_address)
 *(.vector_default)
 .vector_default
                0x000000009d0012f8       0x48 /opt/microchip/xc32/v3.01/bin/bin/../../lib/gcc/pic32mx/8.3.1/../../../../pic32mx/lib/fpu64/libpic32.a(defaultinterrupt.o)
                0x000000009d0012f8                _DefaultInterrupt

.text           0x000000009d001340        0x0
 *(.stub .gnu.linkonce.t.*)
 *(.text.*personality*)
 *(.mips16.fn.*)
 *(.mips16.call.*)
 *(.gnu.warning)
                0x000000009d001340                . = ALIGN (0x4)

.init           0x000000009d001340        0x0
 *crti.o(.init)
 *crtbegin.o(.init)
 *(EXCLUDE_FILE(*crtn.o *crtend?.o *crtend.o) .init)
 *crtend.o(.init)
 *crtn.o(.init)
                0x000000009d001340                . = ALIGN (0x4)

.fini           0x000000009d001340        0x0
 *(.fini)
                0x000000009d001340                . = ALIGN (0x4)

.preinit_array  0x000000009d001340        0x0
                [!provide]                        PROVIDE (__preinit_array_start = .)
 *(.preinit_array)
                [!provide]                        PROVIDE (__preinit_array_end = .)
                0x000000009d001340                . = ALIGN (0x4)

.init_array     0x000000009d001340        0x0
                [!provide]                        PROVIDE (__init_array_start = .)
 *(SORT_BY_NAME(.init_array.*))
 *(.init_array)
                [!provide]                        PROVIDE (__init_array_end = .)
                0x000000009d001340                . = ALIGN (0x4)

.fini_array     0x000000009d001340        0x0
                [!provide]                        PROVIDE (__fini_array_start = .)
 *(SORT_BY_NAME(.fini_array.*))
 *(.fini_array)
                [!provide]                        PROVIDE (__fini_array_end = .)
                0x000000009d001340                . = ALIGN (0x4)

.ctors          0x000000009d001340        0x0
 *crtbegin.o(.ctors)
 *crtbegin?.o(.ctors)
 *(EXCLUDE_FILE(*crtend?.o *crtend.o) .ctors)
 *(SORT_BY_NAME(.ctors.*))
 *(.ctors)
                0x000000009d001340                . = ALIGN (0x4)

.dtors          0x000000009d001340        0x0
 *crtbegin.o(.dtors)
 *crtbegin?.o(.dtors)
 *(EXCLUDE_FILE(*crtend?.o *crtend.o) .dtors)
 *(SORT_BY_NAME(.dtors.*))
 *(.dtors)
                0x000000009d001340                . = ALIGN (0x4)

.rodata         0x000000009d001340        0x0
 *(.gnu.linkonce.r.*)
 *(.rodata1)
                0x000000009d001340                . = ALIGN (0x4)

.sdata2         0x000000009d001340        0x0
 *(.sdata2 .sdata2.* .gnu.linkonce.s2.*)
                0x000000009d001340                . = ALIGN (0x4)

.sbss2          0x000000009d001340        0x0
 *(.sbss2 .sbss2.* .gnu.linkonce.sb2.*)
                0x000000009d001340                . = ALIGN (0x4)

.eh_frame_hdr
 *(.eh_frame_hdr)
                0x000000009d001340                . = ALIGN (0x4)

.eh_frame
 *(.eh_frame)
                0x000000009d001340                . = ALIGN (0x4)

.gcc_except_table
 *(.gcc_except_table .gcc_except_table.*)
                0x000000009d001340                . = ALIGN (0x4)

.dbg_data       0x0000000080000000        0x0
                0x0000000080000000                . = (. + DEFINED (_DEBUGGER)?0x200:0x0)
                0x0000000080000000                . = (. + DEFINED (_DEBUGGER)?0x80:0x0)
                0x0000000080000000                . = (. + DEFINED (_DEBUGGER)?0x100:0x0)

.jcr            0x0000000080000000        0x0
 *(.jcr)
                0x0000000080000000                . = ALIGN (0x4)

.eh_frame
 *(.eh_frame)
                0x0000000080000000                . = ALIGN (0x4)

.gcc_except_table
 *(.gcc_except_table .gcc_except_table.*)
                0x0000000080000000                . = ALIGN (0x4)

.persist        0x0000000080000000        0x0
                0x0000000080000000                _persist_begin = .
 *(.persist .persist.*)
                0x0000000080000000                . = ALIGN (0x4)
                0x0000000080000000                _persist_end = .

.data           0x0000000080000000        0x0
 *(.gnu.linkonce.d.*)
 *(.data1)
                0x0000000080000000                . = ALIGN (0x4)
                0x0000000080000000                . = .
                0x0000000080007ff0                _gp = (ALIGN (0x10) + 0x7ff0)

.got            0x0000000080000000        0x0
 *(.got.plt)
 *(.got)
                0x0000000080000000                . = ALIGN (0x4)

.sdata          0x0000000080000000       0x34
                0x0000000080000000                _sdata_begin = .
 *(.sdata .sdata.* .gnu.linkonce.s.*)
 .sdata         0x0000000080000000        0x4 build/pic32mz2048efm/production/_ext/1871117435/plib_coretimer.o
 .sdata         0x0000000080000004        0x2 build/pic32mz2048efm/production/_ext/519320518/sys_time.o
 *fill*         0x0000000080000006        0x2 
 .sdata         0x0000000080000008        0x4 build/pic32mz2048efm/production/_ext/1360937237/communication.o
                0x0000000080000008                uart2Mode
 .sdata         0x000000008000000c        0x4 build/pic32mz2048efm/production/_ext/1360937237/mdot.o
                0x000000008000000c                testMD
 .sdata         0x0000000080000010       0x24 /opt/microchip/xc32/v3.01/bin/bin/../../lib/gcc/pic32mx/8.3.1/../../../../pic32mx/lib/fpu64/libpic32.a(pic32_init_cache.o)
                0x0000000080000010                __pic32_icache_size
                0x0000000080000014                __pic32_icache_linesize
                0x0000000080000018                __pic32_icache_ways
                0x000000008000001c                __pic32_dcache_size
                0x0000000080000020                __pic32_dcache_linesize
                0x0000000080000024                __pic32_dcache_ways
                0x0000000080000028                __pic32_scache_size
                0x000000008000002c                __pic32_scache_linesize
                0x0000000080000030                __pic32_scache_ways
                0x0000000080000034                . = ALIGN (0x4)
                0x0000000080000034                _sdata_end = .

.lit8
 *(.lit8)

.lit4
 *(.lit4)
                0x0000000080000034                . = ALIGN (0x4)
                0x0000000080000034                _data_end = .
                0x0000000080000034                _bss_begin = .

.sbss           0x0000000080000034       0xdc
                0x0000000080000034                _sbss_begin = .
 *(.dynsbss)
 *(.sbss .sbss.* .gnu.linkonce.sb.*)
 .sbss          0x0000000080000034        0x8 build/pic32mz2048efm/production/_ext/1448149901/plib_rtcc.o
 .sbss          0x000000008000003c        0x8 build/pic32mz2048efm/production/_ext/323810894/plib_tmr2.o
 .sbss          0x0000000080000044        0x8 build/pic32mz2048efm/production/_ext/323810894/plib_tmr3.o
 .sbss          0x000000008000004c        0x8 build/pic32mz2048efm/production/_ext/1225530592/ff.o
 .sbss          0x0000000080000054       0x18 build/pic32mz2048efm/production/_ext/1538077638/sys_fs.o
                0x0000000080000054                errorValue
                0x0000000080000058                gSysFsMutex
                0x000000008000005c                gSYSFSCurrentMountPoint
                0x0000000080000064                gSYSFSObj
 .sbss          0x000000008000006c        0x2 build/pic32mz2048efm/production/_ext/1538077638/sys_fs_media_manager.o
                0x000000008000006c                VolToPart
 .sbss          0x000000008000006e        0x1 build/pic32mz2048efm/production/_ext/1538077638/sys_fs_fat_interface.o
 *fill*         0x000000008000006f        0x1 
 .sbss          0x0000000080000070        0x2 build/pic32mz2048efm/production/_ext/196169617/usb_device_cdc.o
                0x0000000080000070                gUSBDeviceCdcCommonDataObj
 *fill*         0x0000000080000072        0x2 
 .sbss          0x0000000080000074        0x4 build/pic32mz2048efm/production/_ext/1230022092/ad5940.o
 .sbss          0x0000000080000078        0x4 build/pic32mz2048efm/production/_ext/1230022092/pic32Port.o
 *fill*         0x000000008000007c        0x4 
 .sbss          0x0000000080000080       0x30 build/pic32mz2048efm/production/_ext/1230022092/ad5940main.o
                0x0000000080000084                x
                0x0000000080000088                testCHIP
                0x000000008000008c                testID
                0x0000000080000090                figaroResult
                0x0000000080000098                figaroPPM
                0x00000000800000a0                temp
                0x00000000800000a4                count
                0x00000000800000a8                IntCount
                0x00000000800000ac                ad5940Data
 .sbss          0x00000000800000b0       0x2c build/pic32mz2048efm/production/_ext/1360937237/app.o
                0x00000000800000b0                flag1sec
                0x00000000800000b4                count1sec
                0x00000000800000b8                flag500ms
                0x00000000800000bc                count500ms
                0x00000000800000c0                flag10ms
                0x00000000800000c4                count10ms
                0x00000000800000c8                flag100ms
                0x00000000800000cc                count100ms
                0x00000000800000d0                latch
                0x00000000800000d4                divider
                0x00000000800000d8                clkFreq
 .sbss          0x00000000800000dc        0x9 build/pic32mz2048efm/production/_ext/1360937237/communication.o
                0x00000000800000dc                rxByteU2
                0x00000000800000dd                uart6_eofFlag
                0x00000000800000de                uart6_timeoutFlag
                0x00000000800000e0                uart6_eof
                0x00000000800000e2                uart6_timeout
                0x00000000800000e4                rxByteU6
 *fill*         0x00000000800000e5        0x3 
 .sbss          0x00000000800000e8        0xe build/pic32mz2048efm/production/_ext/1360937237/mdot.o
                0x00000000800000e8                resTest
                0x00000000800000ec                mDot1SecCount
                0x00000000800000ee                mDotErrorCount
                0x00000000800000f0                mDotSentCount
                0x00000000800000f2                mDotTimoutCount
                0x00000000800000f4                timeout
 *fill*         0x00000000800000f6        0x2 
 .sbss          0x00000000800000f8        0x4 build/pic32mz2048efm/production/_ext/1360937237/nmea.o
                0x00000000800000f8                tok
 .sbss          0x00000000800000fc        0x5 build/pic32mz2048efm/production/_ext/1360937237/time_keeping.o
                0x00000000800000fc                timeData
                0x0000000080000100                rtcc_trigger
 *fill*         0x0000000080000101        0x3 
 .sbss          0x0000000080000104        0xc build/pic32mz2048efm/production/_ext/1360937237/auxillary_sensors.o
                0x0000000080000104                humidity
                0x0000000080000108                temperature
                0x000000008000010c                i2c2tasksData
 *(.scommon)
                0x0000000080000110                _sbss_end = .
                0x0000000080000110                . = ALIGN (0x4)

.bss            0x0000000080000110        0x0
 *(.dynbss)
 *(COMMON)
                0x0000000080000110                . = ALIGN ((. != 0x0)?0x4:0x1)
                0x0000000080000110                . = ALIGN (0x4)
                0x0000000080000110                _end = .
                0x0000000080000110                _bss_end = .
                0x0000000000080000                _bmxdudba_address = LENGTH (kseg0_data_mem)
                0x0000000000080000                _bmxdupba_address = LENGTH (kseg0_data_mem)

/DISCARD/
 *(.pdr)
 *(.rel.dyn)
 *(.note.GNU-stack)
 *(.note.GNU-stack)
 *(.gnu_debuglink)
 *(.gnu.lto_*)
 *(.discard)
 *(._debug_exception)
 *(.config_*)

.gptab.sdata
 *(.gptab.data)
 *(.gptab.sdata)

.gptab.sbss
 *(.gptab.bss)
 *(.gptab.sbss)

.mdebug.abi32   0x0000000000000000        0x0
 *(.mdebug.abi32)
 .mdebug.abi32  0x0000000000000000        0x0 build/pic32mz2048efm/production/_ext/1044926641/drv_sdspi.o
 .mdebug.abi32  0x0000000000000000        0x0 build/pic32mz2048efm/production/_ext/1044926641/drv_sdspi_driver_interface.o
 .mdebug.abi32  0x0000000000000000        0x0 build/pic32mz2048efm/production/_ext/1044926641/drv_sdspi_file_system.o
 .mdebug.abi32  0x0000000000000000        0x0 build/pic32mz2048efm/production/_ext/1807302558/drv_spi.o
 .mdebug.abi32  0x0000000000000000        0x0 build/pic32mz2048efm/production/_ext/1449458886/drv_usbhs.o
 .mdebug.abi32  0x0000000000000000        0x0 build/pic32mz2048efm/production/_ext/1449458886/drv_usbhs_device.o
 .mdebug.abi32  0x0000000000000000        0x0 build/pic32mz2048efm/production/_ext/1928555383/plib_cache.o
 .mdebug.abi32  0x0000000000000000        0x0 build/pic32mz2048efm/production/_ext/323794519/plib_clk.o
 .mdebug.abi32  0x0000000000000000        0x0 build/pic32mz2048efm/production/_ext/1871117435/plib_coretimer.o
 .mdebug.abi32  0x0000000000000000        0x0 build/pic32mz2048efm/production/_ext/1447764726/plib_evic.o
 .mdebug.abi32  0x0000000000000000        0x0 build/pic32mz2048efm/production/_ext/1447818554/plib_gpio.o
 .mdebug.abi32  0x0000000000000000        0x0 build/pic32mz2048efm/production/_ext/1683951966/plib_i2c2_master.o
 .mdebug.abi32  0x0000000000000000        0x0 build/pic32mz2048efm/production/_ext/1683951966/plib_i2c4_master.o
 .mdebug.abi32  0x0000000000000000        0x0 build/pic32mz2048efm/production/_ext/1448149901/plib_rtcc.o
 .mdebug.abi32  0x0000000000000000        0x0 build/pic32mz2048efm/production/_ext/1007818685/plib_spi4_master.o
 .mdebug.abi32  0x0000000000000000        0x0 build/pic32mz2048efm/production/_ext/1007818685/plib_spi5_master.o
 .mdebug.abi32  0x0000000000000000        0x0 build/pic32mz2048efm/production/_ext/1007818685/plib_spi2_master.o
 .mdebug.abi32  0x0000000000000000        0x0 build/pic32mz2048efm/production/_ext/1007818685/plib_spi1_master.o
 .mdebug.abi32  0x0000000000000000        0x0 build/pic32mz2048efm/production/_ext/323810894/plib_tmr2.o
 .mdebug.abi32  0x0000000000000000        0x0 build/pic32mz2048efm/production/_ext/323810894/plib_tmr3.o
 .mdebug.abi32  0x0000000000000000        0x0 build/pic32mz2048efm/production/_ext/1448221497/plib_uart5.o
 .mdebug.abi32  0x0000000000000000        0x0 build/pic32mz2048efm/production/_ext/1448221497/plib_uart6.o
 .mdebug.abi32  0x0000000000000000        0x0 build/pic32mz2048efm/production/_ext/1448221497/plib_uart3.o
 .mdebug.abi32  0x0000000000000000        0x0 build/pic32mz2048efm/production/_ext/1448221497/plib_uart1.o
 .mdebug.abi32  0x0000000000000000        0x0 build/pic32mz2048efm/production/_ext/1448221497/plib_uart2.o
 .mdebug.abi32  0x0000000000000000        0x0 build/pic32mz2048efm/production/_ext/323813500/plib_wdt.o
 .mdebug.abi32  0x0000000000000000        0x0 build/pic32mz2048efm/production/_ext/1212781247/xc32_monitor.o
 .mdebug.abi32  0x0000000000000000        0x0 build/pic32mz2048efm/production/_ext/191419926/sys_cache.o
 .mdebug.abi32  0x0000000000000000        0x0 build/pic32mz2048efm/production/_ext/1336113504/sys_dma.o
 .mdebug.abi32  0x0000000000000000        0x0 build/pic32mz2048efm/production/_ext/1225530592/ff.o
 .mdebug.abi32  0x0000000000000000        0x0 build/pic32mz2048efm/production/_ext/1225530592/ffunicode.o
 .mdebug.abi32  0x0000000000000000        0x0 build/pic32mz2048efm/production/_ext/1545496361/diskio.o
 .mdebug.abi32  0x0000000000000000        0x0 build/pic32mz2048efm/production/_ext/1538077638/sys_fs.o
 .mdebug.abi32  0x0000000000000000        0x0 build/pic32mz2048efm/production/_ext/1538077638/sys_fs_media_manager.o
 .mdebug.abi32  0x0000000000000000        0x0 build/pic32mz2048efm/production/_ext/1538077638/sys_fs_fat_interface.o
 .mdebug.abi32  0x0000000000000000        0x0 build/pic32mz2048efm/production/_ext/2145297452/sys_int.o
 .mdebug.abi32  0x0000000000000000        0x0 build/pic32mz2048efm/production/_ext/519320518/sys_time.o
 .mdebug.abi32  0x0000000000000000        0x0 build/pic32mz2048efm/production/_ext/196169617/usb_device.o
 .mdebug.abi32  0x0000000000000000        0x0 build/pic32mz2048efm/production/_ext/196169617/usb_device_cdc.o
 .mdebug.abi32  0x0000000000000000        0x0 build/pic32mz2048efm/production/_ext/196169617/usb_device_cdc_acm.o
 .mdebug.abi32  0x0000000000000000        0x0 build/pic32mz2048efm/production/_ext/2011215161/usb_device_init_data.o
 .mdebug.abi32  0x0000000000000000        0x0 build/pic32mz2048efm/production/_ext/2011215161/tasks.o
 .mdebug.abi32  0x0000000000000000        0x0 build/pic32mz2048efm/production/_ext/2011215161/initialization.o
 .mdebug.abi32  0x0000000000000000        0x0 build/pic32mz2048efm/production/_ext/2011215161/interrupts.o
 .mdebug.abi32  0x0000000000000000        0x0 build/pic32mz2048efm/production/_ext/2011215161/exceptions.o
 .mdebug.abi32  0x0000000000000000        0x0 build/pic32mz2048efm/production/_ext/858502545/figaro_gpr_fit.o
 .mdebug.abi32  0x0000000000000000        0x0 build/pic32mz2048efm/production/_ext/858502545/figaro_gpr_params.o
 .mdebug.abi32  0x0000000000000000        0x0 build/pic32mz2048efm/production/_ext/858502545/mpfit.o
 .mdebug.abi32  0x0000000000000000        0x0 build/pic32mz2048efm/production/_ext/1230022092/BodyImpedance.o
 .mdebug.abi32  0x0000000000000000        0x0 build/pic32mz2048efm/production/_ext/1230022092/ad5940.o
 .mdebug.abi32  0x0000000000000000        0x0 build/pic32mz2048efm/production/_ext/1230022092/pic32Port.o
 .mdebug.abi32  0x0000000000000000        0x0 build/pic32mz2048efm/production/_ext/1230022092/ad5940main.o
 .mdebug.abi32  0x0000000000000000        0x0 build/pic32mz2048efm/production/_ext/1360937237/app.o
 .mdebug.abi32  0x0000000000000000        0x0 build/pic32mz2048efm/production/_ext/1360937237/main.o
 .mdebug.abi32  0x0000000000000000        0x0 build/pic32mz2048efm/production/_ext/1360937237/communication.o
 .mdebug.abi32  0x0000000000000000        0x0 build/pic32mz2048efm/production/_ext/1360937237/eeprom.o
 .mdebug.abi32  0x0000000000000000        0x0 build/pic32mz2048efm/production/_ext/1360937237/mdot.o
 .mdebug.abi32  0x0000000000000000        0x0 build/pic32mz2048efm/production/_ext/1360937237/messaging.o
 .mdebug.abi32  0x0000000000000000        0x0 build/pic32mz2048efm/production/_ext/1360937237/nmea.o
 .mdebug.abi32  0x0000000000000000        0x0 build/pic32mz2048efm/production/_ext/1360937237/stringbuffer.o
 .mdebug.abi32  0x0000000000000000        0x0 build/pic32mz2048efm/production/_ext/1360937237/time_keeping.o
 .mdebug.abi32  0x0000000000000000        0x0 build/pic32mz2048efm/production/_ext/1360937237/console.o
 .mdebug.abi32  0x0000000000000000        0x0 build/pic32mz2048efm/production/_ext/1360937237/auxillary_sensors.o
 .mdebug.abi32  0x0000000000000000        0x0 /opt/microchip/xc32/v3.01/bin/bin/../../lib/gcc/pic32mx/8.3.1/fpu64/libgcc.a(_udivdi3.o)
 .mdebug.abi32  0x0000000000000000        0x0 /opt/microchip/xc32/v3.01/bin/bin/../../lib/gcc/pic32mx/8.3.1/../../../../pic32mx/lib/fpu64/libpic32.a(default-on-reset.o)
 .mdebug.abi32  0x0000000000000000        0x0 /opt/microchip/xc32/v3.01/bin/bin/../../lib/gcc/pic32mx/8.3.1/../../../../pic32mx/lib/fpu64/libpic32.a(default-on-bootstrap.o)
 .mdebug.abi32  0x0000000000000000        0x0 /opt/microchip/xc32/v3.01/bin/bin/../../lib/gcc/pic32mx/8.3.1/../../../../pic32mx/lib/fpu64/libpic32.a(defaultinterrupt.o)
 .mdebug.abi32  0x0000000000000000        0x0 /opt/microchip/xc32/v3.01/bin/bin/../../lib/gcc/pic32mx/8.3.1/../../../../pic32mx/lib/fpu64/libc.a(_iob.o)
 .mdebug.abi32  0x0000000000000000        0x0 /opt/microchip/xc32/v3.01/bin/bin/../../lib/gcc/pic32mx/8.3.1/../../../../pic32mx/lib/fpu64/libc.a(malloc.o)
 .mdebug.abi32  0x0000000000000000        0x0 /opt/microchip/xc32/v3.01/bin/bin/../../lib/gcc/pic32mx/8.3.1/../../../../pic32mx/lib/fpu64/libc.a(memmove.o)
 .mdebug.abi32  0x0000000000000000        0x0 /opt/microchip/xc32/v3.01/bin/bin/../../lib/gcc/pic32mx/8.3.1/../../../../pic32mx/lib/fpu64/libc.a(puts.o)
 .mdebug.abi32  0x0000000000000000        0x0 /opt/microchip/xc32/v3.01/bin/bin/../../lib/gcc/pic32mx/8.3.1/../../../../pic32mx/lib/fpu64/libc.a(setbuf.o)
 .mdebug.abi32  0x0000000000000000        0x0 /opt/microchip/xc32/v3.01/bin/bin/../../lib/gcc/pic32mx/8.3.1/../../../../pic32mx/lib/fpu64/libc.a(strchr.o)
 .mdebug.abi32  0x0000000000000000        0x0 /opt/microchip/xc32/v3.01/bin/bin/../../lib/gcc/pic32mx/8.3.1/../../../../pic32mx/lib/fpu64/libc.a(strncmp.o)
 .mdebug.abi32  0x0000000000000000        0x0 /opt/microchip/xc32/v3.01/bin/bin/../../lib/gcc/pic32mx/8.3.1/../../../../pic32mx/lib/fpu64/libc.a(strncpy.o)
 .mdebug.abi32  0x0000000000000000        0x0 /opt/microchip/xc32/v3.01/bin/bin/../../lib/gcc/pic32mx/8.3.1/../../../../pic32mx/lib/fpu64/libc.a(strtol.o)
 .mdebug.abi32  0x0000000000000000        0x0 /opt/microchip/xc32/v3.01/bin/bin/../../lib/gcc/pic32mx/8.3.1/../../../../pic32mx/lib/fpu64/libc.a(printf_cdgGnopsuxX.eo)
 .mdebug.abi32  0x0000000000000000        0x0 /opt/microchip/xc32/v3.01/bin/bin/../../lib/gcc/pic32mx/8.3.1/../../../../pic32mx/lib/fpu64/libc.a(sprintf_cdnopsuxX.eo)
 .mdebug.abi32  0x0000000000000000        0x0 /opt/microchip/xc32/v3.01/bin/bin/../../lib/gcc/pic32mx/8.3.1/../../../../pic32mx/lib/fpu64/libc.a(sprintf_fF.eo)
 .mdebug.abi32  0x0000000000000000        0x0 /opt/microchip/xc32/v3.01/bin/bin/../../lib/gcc/pic32mx/8.3.1/../../../../pic32mx/lib/fpu64/libc.a(_fputc_simple.o)
 .mdebug.abi32  0x0000000000000000        0x0 /opt/microchip/xc32/v3.01/bin/bin/../../lib/gcc/pic32mx/8.3.1/../../../../pic32mx/lib/fpu64/libc.a(buf.o)
 .mdebug.abi32  0x0000000000000000        0x0 /opt/microchip/xc32/v3.01/bin/bin/../../lib/gcc/pic32mx/8.3.1/../../../../pic32mx/lib/fpu64/libc.a(ctype.o)
 .mdebug.abi32  0x0000000000000000        0x0 /opt/microchip/xc32/v3.01/bin/bin/../../lib/gcc/pic32mx/8.3.1/../../../../pic32mx/lib/fpu64/libc.a(ctypef.o)
 .mdebug.abi32  0x0000000000000000        0x0 /opt/microchip/xc32/v3.01/bin/bin/../../lib/gcc/pic32mx/8.3.1/../../../../pic32mx/lib/fpu64/libc.a(errno.o)
 .mdebug.abi32  0x0000000000000000        0x0 /opt/microchip/xc32/v3.01/bin/bin/../../lib/gcc/pic32mx/8.3.1/../../../../pic32mx/lib/fpu64/libc.a(doprnt_cdgGnopsuxX.eo)
 .mdebug.abi32  0x0000000000000000        0x0 /opt/microchip/xc32/v3.01/bin/bin/../../lib/gcc/pic32mx/8.3.1/../../../../pic32mx/lib/fpu64/libc.a(doprnt_cdnopsuxX.eo)
 .mdebug.abi32  0x0000000000000000        0x0 /opt/microchip/xc32/v3.01/bin/bin/../../lib/gcc/pic32mx/8.3.1/../../../../pic32mx/lib/fpu64/libc.a(doprnt_fF.eo)
 .mdebug.abi32  0x0000000000000000        0x0 /opt/microchip/xc32/v3.01/bin/bin/../../lib/gcc/pic32mx/8.3.1/../../../../pic32mx/lib/fpu64/libc.a(_flsbuf_simple.o)
 .mdebug.abi32  0x0000000000000000        0x0 /opt/microchip/xc32/v3.01/bin/bin/../../lib/gcc/pic32mx/8.3.1/../../../../pic32mx/lib/fpu64/libc.a(ldpowers.o)
 .mdebug.abi32  0x0000000000000000        0x0 /opt/microchip/xc32/v3.01/bin/bin/../../lib/gcc/pic32mx/8.3.1/../../../../pic32mx/lib/fpu64/libmfd.a(s_cos.o)
 .mdebug.abi32  0x0000000000000000        0x0 /opt/microchip/xc32/v3.01/bin/bin/../../lib/gcc/pic32mx/8.3.1/../../../../pic32mx/lib/fpu64/libmfd.a(s_fabs.o)
 .mdebug.abi32  0x0000000000000000        0x0 /opt/microchip/xc32/v3.01/bin/bin/../../lib/gcc/pic32mx/8.3.1/../../../../pic32mx/lib/fpu64/libmfd.a(s_frexp.o)
 .mdebug.abi32  0x0000000000000000        0x0 /opt/microchip/xc32/v3.01/bin/bin/../../lib/gcc/pic32mx/8.3.1/../../../../pic32mx/lib/fpu64/libmfd.a(s_sin.o)
 .mdebug.abi32  0x0000000000000000        0x0 /opt/microchip/xc32/v3.01/bin/bin/../../lib/gcc/pic32mx/8.3.1/../../../../pic32mx/lib/fpu64/libmfd.a(w_atan2.o)
 .mdebug.abi32  0x0000000000000000        0x0 /opt/microchip/xc32/v3.01/bin/bin/../../lib/gcc/pic32mx/8.3.1/../../../../pic32mx/lib/fpu64/libmfd.a(w_exp.o)
 .mdebug.abi32  0x0000000000000000        0x0 /opt/microchip/xc32/v3.01/bin/bin/../../lib/gcc/pic32mx/8.3.1/../../../../pic32mx/lib/fpu64/libmfd.a(w_log.o)
 .mdebug.abi32  0x0000000000000000        0x0 /opt/microchip/xc32/v3.01/bin/bin/../../lib/gcc/pic32mx/8.3.1/../../../../pic32mx/lib/fpu64/libmfd.a(w_log10.o)
 .mdebug.abi32  0x0000000000000000        0x0 /opt/microchip/xc32/v3.01/bin/bin/../../lib/gcc/pic32mx/8.3.1/../../../../pic32mx/lib/fpu64/libmfd.a(w_pow.o)
 .mdebug.abi32  0x0000000000000000        0x0 /opt/microchip/xc32/v3.01/bin/bin/../../lib/gcc/pic32mx/8.3.1/../../../../pic32mx/lib/fpu64/libmfd.a(pic32_w_sqrt.o)
 .mdebug.abi32  0x0000000000000000        0x0 /opt/microchip/xc32/v3.01/bin/bin/../../lib/gcc/pic32mx/8.3.1/../../../../pic32mx/lib/fpu64/libmfd.a(strtod.o)
 .mdebug.abi32  0x0000000000000000        0x0 /opt/microchip/xc32/v3.01/bin/bin/../../lib/gcc/pic32mx/8.3.1/../../../../pic32mx/lib/fpu64/libmfd.a(e_atan2.o)
 .mdebug.abi32  0x0000000000000000        0x0 /opt/microchip/xc32/v3.01/bin/bin/../../lib/gcc/pic32mx/8.3.1/../../../../pic32mx/lib/fpu64/libmfd.a(e_exp.o)
 .mdebug.abi32  0x0000000000000000        0x0 /opt/microchip/xc32/v3.01/bin/bin/../../lib/gcc/pic32mx/8.3.1/../../../../pic32mx/lib/fpu64/libmfd.a(e_log.o)
 .mdebug.abi32  0x0000000000000000        0x0 /opt/microchip/xc32/v3.01/bin/bin/../../lib/gcc/pic32mx/8.3.1/../../../../pic32mx/lib/fpu64/libmfd.a(e_log10.o)
 .mdebug.abi32  0x0000000000000000        0x0 /opt/microchip/xc32/v3.01/bin/bin/../../lib/gcc/pic32mx/8.3.1/../../../../pic32mx/lib/fpu64/libmfd.a(e_pow.o)
 .mdebug.abi32  0x0000000000000000        0x0 /opt/microchip/xc32/v3.01/bin/bin/../../lib/gcc/pic32mx/8.3.1/../../../../pic32mx/lib/fpu64/libmfd.a(e_rem_pio2.o)
 .mdebug.abi32  0x0000000000000000        0x0 /opt/microchip/xc32/v3.01/bin/bin/../../lib/gcc/pic32mx/8.3.1/../../../../pic32mx/lib/fpu64/libmfd.a(k_cos.o)
 .mdebug.abi32  0x0000000000000000        0x0 /opt/microchip/xc32/v3.01/bin/bin/../../lib/gcc/pic32mx/8.3.1/../../../../pic32mx/lib/fpu64/libmfd.a(k_sin.o)
 .mdebug.abi32  0x0000000000000000        0x0 /opt/microchip/xc32/v3.01/bin/bin/../../lib/gcc/pic32mx/8.3.1/../../../../pic32mx/lib/fpu64/libmfd.a(k_standard.o)
 .mdebug.abi32  0x0000000000000000        0x0 /opt/microchip/xc32/v3.01/bin/bin/../../lib/gcc/pic32mx/8.3.1/../../../../pic32mx/lib/fpu64/libmfd.a(s_atan.o)
 .mdebug.abi32  0x0000000000000000        0x0 /opt/microchip/xc32/v3.01/bin/bin/../../lib/gcc/pic32mx/8.3.1/../../../../pic32mx/lib/fpu64/libmfd.a(s_rint.o)
 .mdebug.abi32  0x0000000000000000        0x0 /opt/microchip/xc32/v3.01/bin/bin/../../lib/gcc/pic32mx/8.3.1/../../../../pic32mx/lib/fpu64/libmfd.a(s_scalbn.o)
 .mdebug.abi32  0x0000000000000000        0x0 /opt/microchip/xc32/v3.01/bin/bin/../../lib/gcc/pic32mx/8.3.1/fpu64/libgcc.a(_lshrdi3.o)
 .mdebug.abi32  0x0000000000000000        0x0 /opt/microchip/xc32/v3.01/bin/bin/../../lib/gcc/pic32mx/8.3.1/fpu64/libgcc.a(_cmpdi2.o)
 .mdebug.abi32  0x0000000000000000        0x0 /opt/microchip/xc32/v3.01/bin/bin/../../lib/gcc/pic32mx/8.3.1/fpu64/libgcc.a(_umoddi3.o)
 .mdebug.abi32  0x0000000000000000        0x0 /opt/microchip/xc32/v3.01/bin/bin/../../lib/gcc/pic32mx/8.3.1/../../../../pic32mx/lib/fpu64/libpic32.a(sbrk.o)
 .mdebug.abi32  0x0000000000000000        0x0 /opt/microchip/xc32/v3.01/bin/bin/../../lib/gcc/pic32mx/8.3.1/../../../../pic32mx/lib/fpu64/libpic32.a(write.o)

.mdebug.abiN32
 *(.mdebug.abiN32)

.mdebug.abi64
 *(.mdebug.abi64)

.mdebug.abiO64
 *(.mdebug.abiO64)

.mdebug.eabi32
 *(.mdebug.eabi32)

.mdebug.eabi64
 *(.mdebug.eabi64)

.gcc_compiled_long32
 *(.gcc_compiled_long32)

.gcc_compiled_long64
 *(.gcc_compiled_long64)

.stab
 *(.stab)

.stabstr
 *(.stabstr)

.stab.excl
 *(.stab.excl)

.stab.exclstr
 *(.stab.exclstr)

.stab.index
 *(.stab.index)

.stab.indexstr
 *(.stab.indexstr)

.comment        0x0000000000000000      0x19d
 *(.comment)
 .comment       0x0000000000000000       0x53 build/pic32mz2048efm/production/_ext/1044926641/drv_sdspi.o
                                         0x54 (size before relaxing)
 .comment       0x0000000000000053       0x54 build/pic32mz2048efm/production/_ext/1044926641/drv_sdspi_driver_interface.o
 .comment       0x0000000000000053       0x54 build/pic32mz2048efm/production/_ext/1044926641/drv_sdspi_file_system.o
 .comment       0x0000000000000053       0x54 build/pic32mz2048efm/production/_ext/1807302558/drv_spi.o
 .comment       0x0000000000000053       0x54 build/pic32mz2048efm/production/_ext/1449458886/drv_usbhs.o
 .comment       0x0000000000000053       0x54 build/pic32mz2048efm/production/_ext/1449458886/drv_usbhs_device.o
 .comment       0x0000000000000053       0x54 build/pic32mz2048efm/production/_ext/1928555383/plib_cache.o
 .comment       0x0000000000000053       0x54 build/pic32mz2048efm/production/_ext/323794519/plib_clk.o
 .comment       0x0000000000000053       0x54 build/pic32mz2048efm/production/_ext/1871117435/plib_coretimer.o
 .comment       0x0000000000000053       0x54 build/pic32mz2048efm/production/_ext/1447764726/plib_evic.o
 .comment       0x0000000000000053       0x54 build/pic32mz2048efm/production/_ext/1447818554/plib_gpio.o
 .comment       0x0000000000000053       0x54 build/pic32mz2048efm/production/_ext/1683951966/plib_i2c2_master.o
 .comment       0x0000000000000053       0x54 build/pic32mz2048efm/production/_ext/1683951966/plib_i2c4_master.o
 .comment       0x0000000000000053       0x54 build/pic32mz2048efm/production/_ext/1448149901/plib_rtcc.o
 .comment       0x0000000000000053       0x54 build/pic32mz2048efm/production/_ext/1007818685/plib_spi4_master.o
 .comment       0x0000000000000053       0x54 build/pic32mz2048efm/production/_ext/1007818685/plib_spi5_master.o
 .comment       0x0000000000000053       0x54 build/pic32mz2048efm/production/_ext/1007818685/plib_spi2_master.o
 .comment       0x0000000000000053       0x54 build/pic32mz2048efm/production/_ext/1007818685/plib_spi1_master.o
 .comment       0x0000000000000053       0x54 build/pic32mz2048efm/production/_ext/323810894/plib_tmr2.o
 .comment       0x0000000000000053       0x54 build/pic32mz2048efm/production/_ext/323810894/plib_tmr3.o
 .comment       0x0000000000000053       0x54 build/pic32mz2048efm/production/_ext/1448221497/plib_uart5.o
 .comment       0x0000000000000053       0x54 build/pic32mz2048efm/production/_ext/1448221497/plib_uart6.o
 .comment       0x0000000000000053       0x54 build/pic32mz2048efm/production/_ext/1448221497/plib_uart3.o
 .comment       0x0000000000000053       0x54 build/pic32mz2048efm/production/_ext/1448221497/plib_uart1.o
 .comment       0x0000000000000053       0x54 build/pic32mz2048efm/production/_ext/1448221497/plib_uart2.o
 .comment       0x0000000000000053       0x54 build/pic32mz2048efm/production/_ext/323813500/plib_wdt.o
 .comment       0x0000000000000053       0x54 build/pic32mz2048efm/production/_ext/1212781247/xc32_monitor.o
 .comment       0x0000000000000053       0x54 build/pic32mz2048efm/production/_ext/191419926/sys_cache.o
 .comment       0x0000000000000053       0x54 build/pic32mz2048efm/production/_ext/1336113504/sys_dma.o
 .comment       0x0000000000000053       0x54 build/pic32mz2048efm/production/_ext/1225530592/ff.o
 .comment       0x0000000000000053       0x54 build/pic32mz2048efm/production/_ext/1225530592/ffunicode.o
 .comment       0x0000000000000053       0x54 build/pic32mz2048efm/production/_ext/1545496361/diskio.o
 .comment       0x0000000000000053       0x54 build/pic32mz2048efm/production/_ext/1538077638/sys_fs.o
 .comment       0x0000000000000053       0x54 build/pic32mz2048efm/production/_ext/1538077638/sys_fs_media_manager.o
 .comment       0x0000000000000053       0x54 build/pic32mz2048efm/production/_ext/1538077638/sys_fs_fat_interface.o
 .comment       0x0000000000000053       0x54 build/pic32mz2048efm/production/_ext/2145297452/sys_int.o
 .comment       0x0000000000000053       0x54 build/pic32mz2048efm/production/_ext/519320518/sys_time.o
 .comment       0x0000000000000053       0x54 build/pic32mz2048efm/production/_ext/196169617/usb_device.o
 .comment       0x0000000000000053       0x54 build/pic32mz2048efm/production/_ext/196169617/usb_device_cdc.o
 .comment       0x0000000000000053       0x54 build/pic32mz2048efm/production/_ext/196169617/usb_device_cdc_acm.o
 .comment       0x0000000000000053       0x54 build/pic32mz2048efm/production/_ext/2011215161/usb_device_init_data.o
 .comment       0x0000000000000053       0x54 build/pic32mz2048efm/production/_ext/2011215161/tasks.o
 .comment       0x0000000000000053       0x54 build/pic32mz2048efm/production/_ext/2011215161/initialization.o
 .comment       0x0000000000000053       0x54 build/pic32mz2048efm/production/_ext/2011215161/interrupts.o
 .comment       0x0000000000000053       0x54 build/pic32mz2048efm/production/_ext/2011215161/exceptions.o
 .comment       0x0000000000000053       0x54 build/pic32mz2048efm/production/_ext/858502545/figaro_gpr_fit.o
 .comment       0x0000000000000053       0x54 build/pic32mz2048efm/production/_ext/858502545/figaro_gpr_params.o
 .comment       0x0000000000000053       0x54 build/pic32mz2048efm/production/_ext/858502545/mpfit.o
 .comment       0x0000000000000053       0x54 build/pic32mz2048efm/production/_ext/1230022092/BodyImpedance.o
 .comment       0x0000000000000053       0x54 build/pic32mz2048efm/production/_ext/1230022092/ad5940.o
 .comment       0x0000000000000053       0x54 build/pic32mz2048efm/production/_ext/1230022092/pic32Port.o
 .comment       0x0000000000000053       0x54 build/pic32mz2048efm/production/_ext/1230022092/ad5940main.o
 .comment       0x0000000000000053       0x54 build/pic32mz2048efm/production/_ext/1360937237/app.o
 .comment       0x0000000000000053       0x54 build/pic32mz2048efm/production/_ext/1360937237/main.o
 .comment       0x0000000000000053       0x54 build/pic32mz2048efm/production/_ext/1360937237/communication.o
 .comment       0x0000000000000053       0x54 build/pic32mz2048efm/production/_ext/1360937237/eeprom.o
 .comment       0x0000000000000053       0x54 build/pic32mz2048efm/production/_ext/1360937237/mdot.o
 .comment       0x0000000000000053       0x54 build/pic32mz2048efm/production/_ext/1360937237/messaging.o
 .comment       0x0000000000000053       0x54 build/pic32mz2048efm/production/_ext/1360937237/nmea.o
 .comment       0x0000000000000053       0x54 build/pic32mz2048efm/production/_ext/1360937237/stringbuffer.o
 .comment       0x0000000000000053       0x54 build/pic32mz2048efm/production/_ext/1360937237/time_keeping.o
 .comment       0x0000000000000053       0x54 build/pic32mz2048efm/production/_ext/1360937237/console.o
 .comment       0x0000000000000053       0x54 build/pic32mz2048efm/production/_ext/1360937237/auxillary_sensors.o
 .comment       0x0000000000000053       0x54 /opt/microchip/xc32/v3.01/bin/bin/../../lib/gcc/pic32mx/8.3.1/fpu64/libgcc.a(_udivdi3.o)
 .comment       0x0000000000000053       0x18 /opt/microchip/xc32/v3.01/bin/bin/../../lib/gcc/pic32mx/8.3.1/../../../../pic32mx/lib/fpu64/libpic32.a(memcmp.o)
                                         0x19 (size before relaxing)
 .comment       0x000000000000006b       0x18 /opt/microchip/xc32/v3.01/bin/bin/../../lib/gcc/pic32mx/8.3.1/../../../../pic32mx/lib/fpu64/libpic32.a(memset.o)
                                         0x19 (size before relaxing)
 .comment       0x0000000000000083       0x19 /opt/microchip/xc32/v3.01/bin/bin/../../lib/gcc/pic32mx/8.3.1/../../../../pic32mx/lib/fpu64/libpic32.a(strcpy.o)
                                         0x1a (size before relaxing)
 .comment       0x000000000000009c       0x19 /opt/microchip/xc32/v3.01/bin/bin/../../lib/gcc/pic32mx/8.3.1/../../../../pic32mx/lib/fpu64/libpic32.a(strlen.o)
                                         0x1a (size before relaxing)
 .comment       0x00000000000000b5       0x54 /opt/microchip/xc32/v3.01/bin/bin/../../lib/gcc/pic32mx/8.3.1/../../../../pic32mx/lib/fpu64/libpic32.a(default-on-reset.o)
 .comment       0x00000000000000b5       0x54 /opt/microchip/xc32/v3.01/bin/bin/../../lib/gcc/pic32mx/8.3.1/../../../../pic32mx/lib/fpu64/libpic32.a(default-on-bootstrap.o)
 .comment       0x00000000000000b5       0x54 /opt/microchip/xc32/v3.01/bin/bin/../../lib/gcc/pic32mx/8.3.1/../../../../pic32mx/lib/fpu64/libpic32.a(defaultinterrupt.o)
 .comment       0x00000000000000b5       0x54 /opt/microchip/xc32/v3.01/bin/bin/../../lib/gcc/pic32mx/8.3.1/../../../../pic32mx/lib/fpu64/libc.a(_iob.o)
 .comment       0x00000000000000b5       0x54 /opt/microchip/xc32/v3.01/bin/bin/../../lib/gcc/pic32mx/8.3.1/../../../../pic32mx/lib/fpu64/libc.a(malloc.o)
 .comment       0x00000000000000b5       0x54 /opt/microchip/xc32/v3.01/bin/bin/../../lib/gcc/pic32mx/8.3.1/../../../../pic32mx/lib/fpu64/libc.a(memmove.o)
 .comment       0x00000000000000b5       0x54 /opt/microchip/xc32/v3.01/bin/bin/../../lib/gcc/pic32mx/8.3.1/../../../../pic32mx/lib/fpu64/libc.a(puts.o)
 .comment       0x00000000000000b5       0x54 /opt/microchip/xc32/v3.01/bin/bin/../../lib/gcc/pic32mx/8.3.1/../../../../pic32mx/lib/fpu64/libc.a(setbuf.o)
 .comment       0x00000000000000b5       0x54 /opt/microchip/xc32/v3.01/bin/bin/../../lib/gcc/pic32mx/8.3.1/../../../../pic32mx/lib/fpu64/libc.a(strchr.o)
 .comment       0x00000000000000b5       0x54 /opt/microchip/xc32/v3.01/bin/bin/../../lib/gcc/pic32mx/8.3.1/../../../../pic32mx/lib/fpu64/libc.a(strncmp.o)
 .comment       0x00000000000000b5       0x54 /opt/microchip/xc32/v3.01/bin/bin/../../lib/gcc/pic32mx/8.3.1/../../../../pic32mx/lib/fpu64/libc.a(strncpy.o)
 .comment       0x00000000000000b5       0x54 /opt/microchip/xc32/v3.01/bin/bin/../../lib/gcc/pic32mx/8.3.1/../../../../pic32mx/lib/fpu64/libc.a(strtol.o)
 .comment       0x00000000000000b5       0x54 /opt/microchip/xc32/v3.01/bin/bin/../../lib/gcc/pic32mx/8.3.1/../../../../pic32mx/lib/fpu64/libc.a(printf_cdgGnopsuxX.eo)
 .comment       0x00000000000000b5       0x54 /opt/microchip/xc32/v3.01/bin/bin/../../lib/gcc/pic32mx/8.3.1/../../../../pic32mx/lib/fpu64/libc.a(sprintf_cdnopsuxX.eo)
 .comment       0x00000000000000b5       0x54 /opt/microchip/xc32/v3.01/bin/bin/../../lib/gcc/pic32mx/8.3.1/../../../../pic32mx/lib/fpu64/libc.a(sprintf_fF.eo)
 .comment       0x00000000000000b5       0x54 /opt/microchip/xc32/v3.01/bin/bin/../../lib/gcc/pic32mx/8.3.1/../../../../pic32mx/lib/fpu64/libc.a(_fputc_simple.o)
 .comment       0x00000000000000b5       0x54 /opt/microchip/xc32/v3.01/bin/bin/../../lib/gcc/pic32mx/8.3.1/../../../../pic32mx/lib/fpu64/libc.a(buf.o)
 .comment       0x00000000000000b5       0x4e /opt/microchip/xc32/v3.01/bin/bin/../../lib/gcc/pic32mx/8.3.1/../../../../pic32mx/lib/fpu64/libc.a(ctype.o)
                                         0xa2 (size before relaxing)
 .comment       0x0000000000000103       0x4f /opt/microchip/xc32/v3.01/bin/bin/../../lib/gcc/pic32mx/8.3.1/../../../../pic32mx/lib/fpu64/libc.a(ctypef.o)
                                         0xa3 (size before relaxing)
 .comment       0x0000000000000152       0x54 /opt/microchip/xc32/v3.01/bin/bin/../../lib/gcc/pic32mx/8.3.1/../../../../pic32mx/lib/fpu64/libc.a(errno.o)
 .comment       0x0000000000000152       0x54 /opt/microchip/xc32/v3.01/bin/bin/../../lib/gcc/pic32mx/8.3.1/../../../../pic32mx/lib/fpu64/libc.a(doprnt_cdgGnopsuxX.eo)
 .comment       0x0000000000000152       0x54 /opt/microchip/xc32/v3.01/bin/bin/../../lib/gcc/pic32mx/8.3.1/../../../../pic32mx/lib/fpu64/libc.a(doprnt_cdnopsuxX.eo)
 .comment       0x0000000000000152       0x54 /opt/microchip/xc32/v3.01/bin/bin/../../lib/gcc/pic32mx/8.3.1/../../../../pic32mx/lib/fpu64/libc.a(doprnt_fF.eo)
 .comment       0x0000000000000152       0x54 /opt/microchip/xc32/v3.01/bin/bin/../../lib/gcc/pic32mx/8.3.1/../../../../pic32mx/lib/fpu64/libc.a(_flsbuf_simple.o)
 .comment       0x0000000000000152       0x54 /opt/microchip/xc32/v3.01/bin/bin/../../lib/gcc/pic32mx/8.3.1/../../../../pic32mx/lib/fpu64/libc.a(ldpowers.o)
 .comment       0x0000000000000152       0x54 /opt/microchip/xc32/v3.01/bin/bin/../../lib/gcc/pic32mx/8.3.1/../../../../pic32mx/lib/fpu64/libmfd.a(s_cos.o)
 .comment       0x0000000000000152       0x54 /opt/microchip/xc32/v3.01/bin/bin/../../lib/gcc/pic32mx/8.3.1/../../../../pic32mx/lib/fpu64/libmfd.a(s_fabs.o)
 .comment       0x0000000000000152       0x54 /opt/microchip/xc32/v3.01/bin/bin/../../lib/gcc/pic32mx/8.3.1/../../../../pic32mx/lib/fpu64/libmfd.a(s_frexp.o)
 .comment       0x0000000000000152       0x54 /opt/microchip/xc32/v3.01/bin/bin/../../lib/gcc/pic32mx/8.3.1/../../../../pic32mx/lib/fpu64/libmfd.a(s_sin.o)
 .comment       0x0000000000000152       0x54 /opt/microchip/xc32/v3.01/bin/bin/../../lib/gcc/pic32mx/8.3.1/../../../../pic32mx/lib/fpu64/libmfd.a(w_atan2.o)
 .comment       0x0000000000000152       0x54 /opt/microchip/xc32/v3.01/bin/bin/../../lib/gcc/pic32mx/8.3.1/../../../../pic32mx/lib/fpu64/libmfd.a(w_exp.o)
 .comment       0x0000000000000152       0x54 /opt/microchip/xc32/v3.01/bin/bin/../../lib/gcc/pic32mx/8.3.1/../../../../pic32mx/lib/fpu64/libmfd.a(w_log.o)
 .comment       0x0000000000000152       0x54 /opt/microchip/xc32/v3.01/bin/bin/../../lib/gcc/pic32mx/8.3.1/../../../../pic32mx/lib/fpu64/libmfd.a(w_log10.o)
 .comment       0x0000000000000152       0x54 /opt/microchip/xc32/v3.01/bin/bin/../../lib/gcc/pic32mx/8.3.1/../../../../pic32mx/lib/fpu64/libmfd.a(w_pow.o)
 .comment       0x0000000000000152       0x54 /opt/microchip/xc32/v3.01/bin/bin/../../lib/gcc/pic32mx/8.3.1/../../../../pic32mx/lib/fpu64/libmfd.a(pic32_w_sqrt.o)
 .comment       0x0000000000000152       0x54 /opt/microchip/xc32/v3.01/bin/bin/../../lib/gcc/pic32mx/8.3.1/../../../../pic32mx/lib/fpu64/libmfd.a(strtod.o)
 .comment       0x0000000000000152       0x54 /opt/microchip/xc32/v3.01/bin/bin/../../lib/gcc/pic32mx/8.3.1/../../../../pic32mx/lib/fpu64/libmfd.a(e_atan2.o)
 .comment       0x0000000000000152       0x54 /opt/microchip/xc32/v3.01/bin/bin/../../lib/gcc/pic32mx/8.3.1/../../../../pic32mx/lib/fpu64/libmfd.a(e_exp.o)
 .comment       0x0000000000000152       0x54 /opt/microchip/xc32/v3.01/bin/bin/../../lib/gcc/pic32mx/8.3.1/../../../../pic32mx/lib/fpu64/libmfd.a(e_log.o)
 .comment       0x0000000000000152       0x54 /opt/microchip/xc32/v3.01/bin/bin/../../lib/gcc/pic32mx/8.3.1/../../../../pic32mx/lib/fpu64/libmfd.a(e_log10.o)
 .comment       0x0000000000000152       0x54 /opt/microchip/xc32/v3.01/bin/bin/../../lib/gcc/pic32mx/8.3.1/../../../../pic32mx/lib/fpu64/libmfd.a(e_pow.o)
 .comment       0x0000000000000152       0x54 /opt/microchip/xc32/v3.01/bin/bin/../../lib/gcc/pic32mx/8.3.1/../../../../pic32mx/lib/fpu64/libmfd.a(e_rem_pio2.o)
 .comment       0x0000000000000152       0x54 /opt/microchip/xc32/v3.01/bin/bin/../../lib/gcc/pic32mx/8.3.1/../../../../pic32mx/lib/fpu64/libmfd.a(k_cos.o)
 .comment       0x0000000000000152       0x54 /opt/microchip/xc32/v3.01/bin/bin/../../lib/gcc/pic32mx/8.3.1/../../../../pic32mx/lib/fpu64/libmfd.a(k_sin.o)
 .comment       0x0000000000000152       0x54 /opt/microchip/xc32/v3.01/bin/bin/../../lib/gcc/pic32mx/8.3.1/../../../../pic32mx/lib/fpu64/libmfd.a(k_standard.o)
 .comment       0x0000000000000152       0x54 /opt/microchip/xc32/v3.01/bin/bin/../../lib/gcc/pic32mx/8.3.1/../../../../pic32mx/lib/fpu64/libmfd.a(s_atan.o)
 .comment       0x0000000000000152       0x54 /opt/microchip/xc32/v3.01/bin/bin/../../lib/gcc/pic32mx/8.3.1/../../../../pic32mx/lib/fpu64/libmfd.a(s_rint.o)
 .comment       0x0000000000000152       0x54 /opt/microchip/xc32/v3.01/bin/bin/../../lib/gcc/pic32mx/8.3.1/../../../../pic32mx/lib/fpu64/libmfd.a(s_scalbn.o)
 .comment       0x0000000000000152       0x54 /opt/microchip/xc32/v3.01/bin/bin/../../lib/gcc/pic32mx/8.3.1/fpu64/libgcc.a(_lshrdi3.o)
 .comment       0x0000000000000152       0x54 /opt/microchip/xc32/v3.01/bin/bin/../../lib/gcc/pic32mx/8.3.1/fpu64/libgcc.a(_cmpdi2.o)
 .comment       0x0000000000000152       0x54 /opt/microchip/xc32/v3.01/bin/bin/../../lib/gcc/pic32mx/8.3.1/fpu64/libgcc.a(_umoddi3.o)
 .comment       0x0000000000000152       0x4b /opt/microchip/xc32/v3.01/bin/bin/../../lib/gcc/pic32mx/8.3.1/../../../../pic32mx/lib/fpu64/libpic32.a(sbrk.o)
                                         0x9f (size before relaxing)
 .comment       0x000000000000019d       0x54 /opt/microchip/xc32/v3.01/bin/bin/../../lib/gcc/pic32mx/8.3.1/../../../../pic32mx/lib/fpu64/libpic32.a(write.o)

.debug
 *.elf(.debug)
 *(.debug)

.line
 *.elf(.line)
 *(.line)

.debug_srcinfo
 *.elf(.debug_srcinfo)
 *(.debug_srcinfo)

.debug_sfnames
 *.elf(.debug_sfnames)
 *(.debug_sfnames)

.debug_aranges  0x0000000000000000     0x2910
 *.elf(.debug_aranges)
 *(.debug_aranges)
 .debug_aranges
                0x0000000000000000       0x98 build/pic32mz2048efm/production/_ext/1044926641/drv_sdspi.o
 .debug_aranges
                0x0000000000000098       0x78 build/pic32mz2048efm/production/_ext/1044926641/drv_sdspi_driver_interface.o
 .debug_aranges
                0x0000000000000110       0x20 build/pic32mz2048efm/production/_ext/1044926641/drv_sdspi_file_system.o
 .debug_aranges
                0x0000000000000130       0x98 build/pic32mz2048efm/production/_ext/1807302558/drv_spi.o
 .debug_aranges
                0x00000000000001c8       0x70 build/pic32mz2048efm/production/_ext/1449458886/drv_usbhs.o
 .debug_aranges
                0x0000000000000238      0x100 build/pic32mz2048efm/production/_ext/1449458886/drv_usbhs_device.o
 .debug_aranges
                0x0000000000000338       0xc0 build/pic32mz2048efm/production/_ext/1928555383/plib_cache.o
 .debug_aranges
                0x00000000000003f8       0x20 build/pic32mz2048efm/production/_ext/1928555383/plib_cache_pic32mz.o
 .debug_aranges
                0x0000000000000418       0x20 build/pic32mz2048efm/production/_ext/323794519/plib_clk.o
 .debug_aranges
                0x0000000000000438       0x60 build/pic32mz2048efm/production/_ext/1871117435/plib_coretimer.o
 .debug_aranges
                0x0000000000000498       0x68 build/pic32mz2048efm/production/_ext/1447764726/plib_evic.o
 .debug_aranges
                0x0000000000000500       0x98 build/pic32mz2048efm/production/_ext/1447818554/plib_gpio.o
 .debug_aranges
                0x0000000000000598       0x68 build/pic32mz2048efm/production/_ext/1683951966/plib_i2c2_master.o
 .debug_aranges
                0x0000000000000600       0x68 build/pic32mz2048efm/production/_ext/1683951966/plib_i2c4_master.o
 .debug_aranges
                0x0000000000000668       0x58 build/pic32mz2048efm/production/_ext/1448149901/plib_rtcc.o
 .debug_aranges
                0x00000000000006c0       0x68 build/pic32mz2048efm/production/_ext/1007818685/plib_spi4_master.o
 .debug_aranges
                0x0000000000000728       0x68 build/pic32mz2048efm/production/_ext/1007818685/plib_spi5_master.o
 .debug_aranges
                0x0000000000000790       0x68 build/pic32mz2048efm/production/_ext/1007818685/plib_spi2_master.o
 .debug_aranges
                0x00000000000007f8       0x68 build/pic32mz2048efm/production/_ext/1007818685/plib_spi1_master.o
 .debug_aranges
                0x0000000000000860       0x70 build/pic32mz2048efm/production/_ext/323810894/plib_tmr2.o
 .debug_aranges
                0x00000000000008d0       0x70 build/pic32mz2048efm/production/_ext/323810894/plib_tmr3.o
 .debug_aranges
                0x0000000000000940       0x80 build/pic32mz2048efm/production/_ext/1448221497/plib_uart5.o
 .debug_aranges
                0x00000000000009c0       0xa8 build/pic32mz2048efm/production/_ext/1448221497/plib_uart6.o
 .debug_aranges
                0x0000000000000a68       0xa8 build/pic32mz2048efm/production/_ext/1448221497/plib_uart3.o
 .debug_aranges
                0x0000000000000b10       0xa8 build/pic32mz2048efm/production/_ext/1448221497/plib_uart1.o
 .debug_aranges
                0x0000000000000bb8       0xa8 build/pic32mz2048efm/production/_ext/1448221497/plib_uart2.o
 .debug_aranges
                0x0000000000000c60       0x40 build/pic32mz2048efm/production/_ext/323813500/plib_wdt.o
 .debug_aranges
                0x0000000000000ca0       0x28 build/pic32mz2048efm/production/_ext/1212781247/xc32_monitor.o
 .debug_aranges
                0x0000000000000cc8       0x80 build/pic32mz2048efm/production/_ext/191419926/sys_cache.o
 .debug_aranges
                0x0000000000000d48       0x30 build/pic32mz2048efm/production/_ext/1336113504/sys_dma.o
 .debug_aranges
                0x0000000000000d78      0x220 build/pic32mz2048efm/production/_ext/1225530592/ff.o
 .debug_aranges
                0x0000000000000f98       0x30 build/pic32mz2048efm/production/_ext/1225530592/ffunicode.o
 .debug_aranges
                0x0000000000000fc8       0x60 build/pic32mz2048efm/production/_ext/1545496361/diskio.o
 .debug_aranges
                0x0000000000001028      0x170 build/pic32mz2048efm/production/_ext/1538077638/sys_fs.o
 .debug_aranges
                0x0000000000001198       0x98 build/pic32mz2048efm/production/_ext/1538077638/sys_fs_media_manager.o
 .debug_aranges
                0x0000000000001230      0x130 build/pic32mz2048efm/production/_ext/1538077638/sys_fs_fat_interface.o
 .debug_aranges
                0x0000000000001360       0x40 build/pic32mz2048efm/production/_ext/2145297452/sys_int.o
 .debug_aranges
                0x00000000000013a0      0x108 build/pic32mz2048efm/production/_ext/519320518/sys_time.o
 .debug_aranges
                0x00000000000014a8      0x1a0 build/pic32mz2048efm/production/_ext/196169617/usb_device.o
 .debug_aranges
                0x0000000000001648       0x88 build/pic32mz2048efm/production/_ext/196169617/usb_device_cdc.o
 .debug_aranges
                0x00000000000016d0       0x20 build/pic32mz2048efm/production/_ext/196169617/usb_device_cdc_acm.o
 .debug_aranges
                0x00000000000016f0       0x18 build/pic32mz2048efm/production/_ext/2011215161/usb_device_init_data.o
 .debug_aranges
                0x0000000000001708       0x20 build/pic32mz2048efm/production/_ext/2011215161/tasks.o
 .debug_aranges
                0x0000000000001728       0x20 build/pic32mz2048efm/production/_ext/2011215161/initialization.o
 .debug_aranges
                0x0000000000001748      0x110 build/pic32mz2048efm/production/_ext/2011215161/interrupts.o
 .debug_aranges
                0x0000000000001858       0x38 build/pic32mz2048efm/production/_ext/2011215161/exceptions.o
 .debug_aranges
                0x0000000000001890       0xc8 build/pic32mz2048efm/production/_ext/858502545/figaro_gpr_fit.o
 .debug_aranges
                0x0000000000001958       0x18 build/pic32mz2048efm/production/_ext/858502545/figaro_gpr_params.o
 .debug_aranges
                0x0000000000001970       0x28 build/pic32mz2048efm/production/_ext/858502545/mpfit.o
 .debug_aranges
                0x0000000000001998       0x38 build/pic32mz2048efm/production/_ext/1230022092/BodyImpedance.o
 .debug_aranges
                0x00000000000019d0      0x3c0 build/pic32mz2048efm/production/_ext/1230022092/ad5940.o
 .debug_aranges
                0x0000000000001d90       0x78 build/pic32mz2048efm/production/_ext/1230022092/pic32Port.o
 .debug_aranges
                0x0000000000001e08       0x40 build/pic32mz2048efm/production/_ext/1230022092/ad5940main.o
 .debug_aranges
                0x0000000000001e48       0x38 build/pic32mz2048efm/production/_ext/1360937237/app.o
 .debug_aranges
                0x0000000000001e80       0x20 build/pic32mz2048efm/production/_ext/1360937237/main.o
 .debug_aranges
                0x0000000000001ea0       0xc8 build/pic32mz2048efm/production/_ext/1360937237/communication.o
 .debug_aranges
                0x0000000000001f68       0x40 build/pic32mz2048efm/production/_ext/1360937237/eeprom.o
 .debug_aranges
                0x0000000000001fa8       0x70 build/pic32mz2048efm/production/_ext/1360937237/mdot.o
 .debug_aranges
                0x0000000000002018       0x58 build/pic32mz2048efm/production/_ext/1360937237/messaging.o
 .debug_aranges
                0x0000000000002070       0x50 build/pic32mz2048efm/production/_ext/1360937237/nmea.o
 .debug_aranges
                0x00000000000020c0       0x38 build/pic32mz2048efm/production/_ext/1360937237/stringbuffer.o
 .debug_aranges
                0x00000000000020f8       0x48 build/pic32mz2048efm/production/_ext/1360937237/time_keeping.o
 .debug_aranges
                0x0000000000002140       0x38 build/pic32mz2048efm/production/_ext/1360937237/console.o
 .debug_aranges
                0x0000000000002178       0x68 build/pic32mz2048efm/production/_ext/1360937237/auxillary_sensors.o
 .debug_aranges
                0x00000000000021e0       0x20 /opt/microchip/xc32/v3.01/bin/bin/../../lib/gcc/pic32mx/8.3.1/fpu64/libgcc.a(_udivdi3.o)
 .debug_aranges
                0x0000000000002200       0x20 /opt/microchip/xc32/v3.01/bin/bin/../../lib/gcc/pic32mx/8.3.1/../../../../pic32mx/lib/fpu64/libpic32.a(default-on-reset.o)
 .debug_aranges
                0x0000000000002220       0x20 /opt/microchip/xc32/v3.01/bin/bin/../../lib/gcc/pic32mx/8.3.1/../../../../pic32mx/lib/fpu64/libpic32.a(default-on-bootstrap.o)
 .debug_aranges
                0x0000000000002240       0x20 /opt/microchip/xc32/v3.01/bin/bin/../../lib/gcc/pic32mx/8.3.1/../../../../pic32mx/lib/fpu64/libpic32.a(defaultinterrupt.o)
 .debug_aranges
                0x0000000000002260       0x30 /opt/microchip/xc32/v3.01/bin/bin/../../lib/gcc/pic32mx/8.3.1/../../../../pic32mx/lib/fpu64/libc.a(malloc.o)
 .debug_aranges
                0x0000000000002290       0x20 /opt/microchip/xc32/v3.01/bin/bin/../../lib/gcc/pic32mx/8.3.1/../../../../pic32mx/lib/fpu64/libc.a(memmove.o)
 .debug_aranges
                0x00000000000022b0       0x28 /opt/microchip/xc32/v3.01/bin/bin/../../lib/gcc/pic32mx/8.3.1/../../../../pic32mx/lib/fpu64/libc.a(puts.o)
 .debug_aranges
                0x00000000000022d8       0x28 /opt/microchip/xc32/v3.01/bin/bin/../../lib/gcc/pic32mx/8.3.1/../../../../pic32mx/lib/fpu64/libc.a(setbuf.o)
 .debug_aranges
                0x0000000000002300       0x20 /opt/microchip/xc32/v3.01/bin/bin/../../lib/gcc/pic32mx/8.3.1/../../../../pic32mx/lib/fpu64/libc.a(strchr.o)
 .debug_aranges
                0x0000000000002320       0x20 /opt/microchip/xc32/v3.01/bin/bin/../../lib/gcc/pic32mx/8.3.1/../../../../pic32mx/lib/fpu64/libc.a(strncmp.o)
 .debug_aranges
                0x0000000000002340       0x20 /opt/microchip/xc32/v3.01/bin/bin/../../lib/gcc/pic32mx/8.3.1/../../../../pic32mx/lib/fpu64/libc.a(strncpy.o)
 .debug_aranges
                0x0000000000002360       0x28 /opt/microchip/xc32/v3.01/bin/bin/../../lib/gcc/pic32mx/8.3.1/../../../../pic32mx/lib/fpu64/libc.a(strtol.o)
 .debug_aranges
                0x0000000000002388       0x20 /opt/microchip/xc32/v3.01/bin/bin/../../lib/gcc/pic32mx/8.3.1/../../../../pic32mx/lib/fpu64/libc.a(printf_cdgGnopsuxX.eo)
 .debug_aranges
                0x00000000000023a8       0x20 /opt/microchip/xc32/v3.01/bin/bin/../../lib/gcc/pic32mx/8.3.1/../../../../pic32mx/lib/fpu64/libc.a(sprintf_cdnopsuxX.eo)
 .debug_aranges
                0x00000000000023c8       0x20 /opt/microchip/xc32/v3.01/bin/bin/../../lib/gcc/pic32mx/8.3.1/../../../../pic32mx/lib/fpu64/libc.a(sprintf_fF.eo)
 .debug_aranges
                0x00000000000023e8       0x20 /opt/microchip/xc32/v3.01/bin/bin/../../lib/gcc/pic32mx/8.3.1/../../../../pic32mx/lib/fpu64/libc.a(_fputc_simple.o)
 .debug_aranges
                0x0000000000002408       0x28 /opt/microchip/xc32/v3.01/bin/bin/../../lib/gcc/pic32mx/8.3.1/../../../../pic32mx/lib/fpu64/libc.a(buf.o)
 .debug_aranges
                0x0000000000002430       0xa0 /opt/microchip/xc32/v3.01/bin/bin/../../lib/gcc/pic32mx/8.3.1/../../../../pic32mx/lib/fpu64/libc.a(ctypef.o)
 .debug_aranges
                0x00000000000024d0       0x30 /opt/microchip/xc32/v3.01/bin/bin/../../lib/gcc/pic32mx/8.3.1/../../../../pic32mx/lib/fpu64/libc.a(doprnt_cdgGnopsuxX.eo)
 .debug_aranges
                0x0000000000002500       0x20 /opt/microchip/xc32/v3.01/bin/bin/../../lib/gcc/pic32mx/8.3.1/../../../../pic32mx/lib/fpu64/libc.a(doprnt_cdnopsuxX.eo)
 .debug_aranges
                0x0000000000002520       0x28 /opt/microchip/xc32/v3.01/bin/bin/../../lib/gcc/pic32mx/8.3.1/../../../../pic32mx/lib/fpu64/libc.a(doprnt_fF.eo)
 .debug_aranges
                0x0000000000002548       0x20 /opt/microchip/xc32/v3.01/bin/bin/../../lib/gcc/pic32mx/8.3.1/../../../../pic32mx/lib/fpu64/libc.a(_flsbuf_simple.o)
 .debug_aranges
                0x0000000000002568       0x20 /opt/microchip/xc32/v3.01/bin/bin/../../lib/gcc/pic32mx/8.3.1/../../../../pic32mx/lib/fpu64/libmfd.a(s_cos.o)
 .debug_aranges
                0x0000000000002588       0x20 /opt/microchip/xc32/v3.01/bin/bin/../../lib/gcc/pic32mx/8.3.1/../../../../pic32mx/lib/fpu64/libmfd.a(s_fabs.o)
 .debug_aranges
                0x00000000000025a8       0x20 /opt/microchip/xc32/v3.01/bin/bin/../../lib/gcc/pic32mx/8.3.1/../../../../pic32mx/lib/fpu64/libmfd.a(s_frexp.o)
 .debug_aranges
                0x00000000000025c8       0x20 /opt/microchip/xc32/v3.01/bin/bin/../../lib/gcc/pic32mx/8.3.1/../../../../pic32mx/lib/fpu64/libmfd.a(s_sin.o)
 .debug_aranges
                0x00000000000025e8       0x20 /opt/microchip/xc32/v3.01/bin/bin/../../lib/gcc/pic32mx/8.3.1/../../../../pic32mx/lib/fpu64/libmfd.a(w_atan2.o)
 .debug_aranges
                0x0000000000002608       0x20 /opt/microchip/xc32/v3.01/bin/bin/../../lib/gcc/pic32mx/8.3.1/../../../../pic32mx/lib/fpu64/libmfd.a(w_exp.o)
 .debug_aranges
                0x0000000000002628       0x20 /opt/microchip/xc32/v3.01/bin/bin/../../lib/gcc/pic32mx/8.3.1/../../../../pic32mx/lib/fpu64/libmfd.a(w_log.o)
 .debug_aranges
                0x0000000000002648       0x20 /opt/microchip/xc32/v3.01/bin/bin/../../lib/gcc/pic32mx/8.3.1/../../../../pic32mx/lib/fpu64/libmfd.a(w_log10.o)
 .debug_aranges
                0x0000000000002668       0x20 /opt/microchip/xc32/v3.01/bin/bin/../../lib/gcc/pic32mx/8.3.1/../../../../pic32mx/lib/fpu64/libmfd.a(w_pow.o)
 .debug_aranges
                0x0000000000002688       0x20 /opt/microchip/xc32/v3.01/bin/bin/../../lib/gcc/pic32mx/8.3.1/../../../../pic32mx/lib/fpu64/libmfd.a(pic32_w_sqrt.o)
 .debug_aranges
                0x00000000000026a8       0x20 /opt/microchip/xc32/v3.01/bin/bin/../../lib/gcc/pic32mx/8.3.1/../../../../pic32mx/lib/fpu64/libmfd.a(strtod.o)
 .debug_aranges
                0x00000000000026c8       0x20 /opt/microchip/xc32/v3.01/bin/bin/../../lib/gcc/pic32mx/8.3.1/../../../../pic32mx/lib/fpu64/libmfd.a(e_atan2.o)
 .debug_aranges
                0x00000000000026e8       0x20 /opt/microchip/xc32/v3.01/bin/bin/../../lib/gcc/pic32mx/8.3.1/../../../../pic32mx/lib/fpu64/libmfd.a(e_exp.o)
 .debug_aranges
                0x0000000000002708       0x20 /opt/microchip/xc32/v3.01/bin/bin/../../lib/gcc/pic32mx/8.3.1/../../../../pic32mx/lib/fpu64/libmfd.a(e_log.o)
 .debug_aranges
                0x0000000000002728       0x20 /opt/microchip/xc32/v3.01/bin/bin/../../lib/gcc/pic32mx/8.3.1/../../../../pic32mx/lib/fpu64/libmfd.a(e_log10.o)
 .debug_aranges
                0x0000000000002748       0x20 /opt/microchip/xc32/v3.01/bin/bin/../../lib/gcc/pic32mx/8.3.1/../../../../pic32mx/lib/fpu64/libmfd.a(e_pow.o)
 .debug_aranges
                0x0000000000002768       0x20 /opt/microchip/xc32/v3.01/bin/bin/../../lib/gcc/pic32mx/8.3.1/../../../../pic32mx/lib/fpu64/libmfd.a(e_rem_pio2.o)
 .debug_aranges
                0x0000000000002788       0x20 /opt/microchip/xc32/v3.01/bin/bin/../../lib/gcc/pic32mx/8.3.1/../../../../pic32mx/lib/fpu64/libmfd.a(k_cos.o)
 .debug_aranges
                0x00000000000027a8       0x20 /opt/microchip/xc32/v3.01/bin/bin/../../lib/gcc/pic32mx/8.3.1/../../../../pic32mx/lib/fpu64/libmfd.a(k_sin.o)
 .debug_aranges
                0x00000000000027c8       0x20 /opt/microchip/xc32/v3.01/bin/bin/../../lib/gcc/pic32mx/8.3.1/../../../../pic32mx/lib/fpu64/libmfd.a(k_standard.o)
 .debug_aranges
                0x00000000000027e8       0x20 /opt/microchip/xc32/v3.01/bin/bin/../../lib/gcc/pic32mx/8.3.1/../../../../pic32mx/lib/fpu64/libmfd.a(s_atan.o)
 .debug_aranges
                0x0000000000002808       0x20 /opt/microchip/xc32/v3.01/bin/bin/../../lib/gcc/pic32mx/8.3.1/../../../../pic32mx/lib/fpu64/libmfd.a(s_rint.o)
 .debug_aranges
                0x0000000000002828       0x28 /opt/microchip/xc32/v3.01/bin/bin/../../lib/gcc/pic32mx/8.3.1/../../../../pic32mx/lib/fpu64/libmfd.a(s_scalbn.o)
 .debug_aranges
                0x0000000000002850       0x20 /opt/microchip/xc32/v3.01/bin/bin/../../lib/gcc/pic32mx/8.3.1/fpu64/libgcc.a(_lshrdi3.o)
 .debug_aranges
                0x0000000000002870       0x20 /opt/microchip/xc32/v3.01/bin/bin/../../lib/gcc/pic32mx/8.3.1/fpu64/libgcc.a(_cmpdi2.o)
 .debug_aranges
                0x0000000000002890       0x20 /opt/microchip/xc32/v3.01/bin/bin/../../lib/gcc/pic32mx/8.3.1/fpu64/libgcc.a(_umoddi3.o)
 .debug_aranges
                0x00000000000028b0       0x40 /opt/microchip/xc32/v3.01/bin/bin/../../lib/gcc/pic32mx/8.3.1/../../../../pic32mx/lib/fpu64/libpic32.a(sbrk.o)
 .debug_aranges
                0x00000000000028f0       0x20 /opt/microchip/xc32/v3.01/bin/bin/../../lib/gcc/pic32mx/8.3.1/../../../../pic32mx/lib/fpu64/libpic32.a(write.o)

.debug_pubnames
 *.elf(.debug_pubnames)
 *(.debug_pubnames)

.debug_info     0x0000000000000000  0x145f66c
 *.elf(.debug_info .gnu.linkonce.wi.*)
 *(.debug_info .gnu.linkonce.wi.*)
 .debug_info    0x0000000000000000    0x5e857 build/pic32mz2048efm/production/_ext/1044926641/drv_sdspi.o
 .debug_info    0x000000000005e857    0x5cde5 build/pic32mz2048efm/production/_ext/1044926641/drv_sdspi_driver_interface.o
 .debug_info    0x00000000000bb63c    0x5b7e9 build/pic32mz2048efm/production/_ext/1044926641/drv_sdspi_file_system.o
 .debug_info    0x0000000000116e25    0x5dc5a build/pic32mz2048efm/production/_ext/1807302558/drv_spi.o
 .debug_info    0x0000000000174a7f    0x5fda9 build/pic32mz2048efm/production/_ext/1449458886/drv_usbhs.o
 .debug_info    0x00000000001d4828    0x64ed0 build/pic32mz2048efm/production/_ext/1449458886/drv_usbhs_device.o
 .debug_info    0x00000000002396f8    0x5b913 build/pic32mz2048efm/production/_ext/1928555383/plib_cache.o
 .debug_info    0x000000000029500b       0x26 build/pic32mz2048efm/production/_ext/1928555383/plib_cache_pic32mz.o
 .debug_info    0x0000000000295031    0x5b31c build/pic32mz2048efm/production/_ext/323794519/plib_clk.o
 .debug_info    0x00000000002f034d    0x5b497 build/pic32mz2048efm/production/_ext/1871117435/plib_coretimer.o
 .debug_info    0x000000000034b7e4    0x5ba38 build/pic32mz2048efm/production/_ext/1447764726/plib_evic.o
 .debug_info    0x00000000003a721c    0x5bbbc build/pic32mz2048efm/production/_ext/1447818554/plib_gpio.o
 .debug_info    0x0000000000402dd8    0x5b788 build/pic32mz2048efm/production/_ext/1683951966/plib_i2c2_master.o
 .debug_info    0x000000000045e560    0x5b788 build/pic32mz2048efm/production/_ext/1683951966/plib_i2c4_master.o
 .debug_info    0x00000000004b9ce8    0x5b6d0 build/pic32mz2048efm/production/_ext/1448149901/plib_rtcc.o
 .debug_info    0x00000000005153b8    0x5b7ee build/pic32mz2048efm/production/_ext/1007818685/plib_spi4_master.o
 .debug_info    0x0000000000570ba6    0x5b7ee build/pic32mz2048efm/production/_ext/1007818685/plib_spi5_master.o
 .debug_info    0x00000000005cc394    0x5b7ee build/pic32mz2048efm/production/_ext/1007818685/plib_spi2_master.o
 .debug_info    0x0000000000627b82    0x5b7ee build/pic32mz2048efm/production/_ext/1007818685/plib_spi1_master.o
 .debug_info    0x0000000000683370    0x5b4c8 build/pic32mz2048efm/production/_ext/323810894/plib_tmr2.o
 .debug_info    0x00000000006de838    0x5b4c8 build/pic32mz2048efm/production/_ext/323810894/plib_tmr3.o
 .debug_info    0x0000000000739d00    0x5b7f5 build/pic32mz2048efm/production/_ext/1448221497/plib_uart5.o
 .debug_info    0x00000000007954f5    0x5b92e build/pic32mz2048efm/production/_ext/1448221497/plib_uart6.o
 .debug_info    0x00000000007f0e23    0x5b92e build/pic32mz2048efm/production/_ext/1448221497/plib_uart3.o
 .debug_info    0x000000000084c751    0x5b92e build/pic32mz2048efm/production/_ext/1448221497/plib_uart1.o
 .debug_info    0x00000000008a807f    0x5b92e build/pic32mz2048efm/production/_ext/1448221497/plib_uart2.o
 .debug_info    0x00000000009039ad    0x5b398 build/pic32mz2048efm/production/_ext/323813500/plib_wdt.o
 .debug_info    0x000000000095ed45    0x5cfbb build/pic32mz2048efm/production/_ext/1212781247/xc32_monitor.o
 .debug_info    0x00000000009bbd00    0x5b62e build/pic32mz2048efm/production/_ext/191419926/sys_cache.o
 .debug_info    0x0000000000a1732e      0x22d build/pic32mz2048efm/production/_ext/1336113504/sys_dma.o
 .debug_info    0x0000000000a1755b    0x6155c build/pic32mz2048efm/production/_ext/1225530592/ff.o
 .debug_info    0x0000000000a78ab7    0x5b57e build/pic32mz2048efm/production/_ext/1225530592/ffunicode.o
 .debug_info    0x0000000000ad4035    0x5bd36 build/pic32mz2048efm/production/_ext/1545496361/diskio.o
 .debug_info    0x0000000000b2fd6b    0x5ee61 build/pic32mz2048efm/production/_ext/1538077638/sys_fs.o
 .debug_info    0x0000000000b8ebcc    0x5ca35 build/pic32mz2048efm/production/_ext/1538077638/sys_fs_media_manager.o
 .debug_info    0x0000000000beb601    0x5cf92 build/pic32mz2048efm/production/_ext/1538077638/sys_fs_fat_interface.o
 .debug_info    0x0000000000c48593    0x5b9eb build/pic32mz2048efm/production/_ext/2145297452/sys_int.o
 .debug_info    0x0000000000ca3f7e    0x5d080 build/pic32mz2048efm/production/_ext/519320518/sys_time.o
 .debug_info    0x0000000000d00ffe    0x5f0de build/pic32mz2048efm/production/_ext/196169617/usb_device.o
 .debug_info    0x0000000000d600dc    0x5d2cb build/pic32mz2048efm/production/_ext/196169617/usb_device_cdc.o
 .debug_info    0x0000000000dbd3a7    0x5be4d build/pic32mz2048efm/production/_ext/196169617/usb_device_cdc_acm.o
 .debug_info    0x0000000000e191f4    0x5d3bc build/pic32mz2048efm/production/_ext/2011215161/usb_device_init_data.o
 .debug_info    0x0000000000e765b0    0x5cf73 build/pic32mz2048efm/production/_ext/2011215161/tasks.o
 .debug_info    0x0000000000ed3523    0x5ea33 build/pic32mz2048efm/production/_ext/2011215161/initialization.o
 .debug_info    0x0000000000f31f56    0x5d4d1 build/pic32mz2048efm/production/_ext/2011215161/interrupts.o
 .debug_info    0x0000000000f8f427    0x5d0a5 build/pic32mz2048efm/production/_ext/2011215161/exceptions.o
 .debug_info    0x0000000000fec4cc     0x202d build/pic32mz2048efm/production/_ext/858502545/figaro_gpr_fit.o
 .debug_info    0x0000000000fee4f9      0x333 build/pic32mz2048efm/production/_ext/858502545/figaro_gpr_params.o
 .debug_info    0x0000000000fee82c     0x32bd build/pic32mz2048efm/production/_ext/858502545/mpfit.o
 .debug_info    0x0000000000ff1ae9     0x1f9d build/pic32mz2048efm/production/_ext/1230022092/BodyImpedance.o
 .debug_info    0x0000000000ff3a86     0x7730 build/pic32mz2048efm/production/_ext/1230022092/ad5940.o
 .debug_info    0x0000000000ffb1b6    0x5d5b0 build/pic32mz2048efm/production/_ext/1230022092/pic32Port.o
 .debug_info    0x0000000001058766    0x5dcd8 build/pic32mz2048efm/production/_ext/1230022092/ad5940main.o
 .debug_info    0x00000000010b643e    0x5dd0e build/pic32mz2048efm/production/_ext/1360937237/app.o
 .debug_info    0x000000000111414c    0x5cf38 build/pic32mz2048efm/production/_ext/1360937237/main.o
 .debug_info    0x0000000001171084    0x5d8bb build/pic32mz2048efm/production/_ext/1360937237/communication.o
 .debug_info    0x00000000011ce93f    0x5d2fd build/pic32mz2048efm/production/_ext/1360937237/eeprom.o
 .debug_info    0x000000000122bc3c    0x5e12c build/pic32mz2048efm/production/_ext/1360937237/mdot.o
 .debug_info    0x0000000001289d68    0x5d939 build/pic32mz2048efm/production/_ext/1360937237/messaging.o
 .debug_info    0x00000000012e76a1    0x5d667 build/pic32mz2048efm/production/_ext/1360937237/nmea.o
 .debug_info    0x0000000001344d08      0x46e build/pic32mz2048efm/production/_ext/1360937237/stringbuffer.o
 .debug_info    0x0000000001345176    0x5d5b1 build/pic32mz2048efm/production/_ext/1360937237/time_keeping.o
 .debug_info    0x00000000013a2727    0x5d0fb build/pic32mz2048efm/production/_ext/1360937237/console.o
 .debug_info    0x00000000013ff822    0x5d86a build/pic32mz2048efm/production/_ext/1360937237/auxillary_sensors.o
 .debug_info    0x000000000145d08c      0x85c /opt/microchip/xc32/v3.01/bin/bin/../../lib/gcc/pic32mx/8.3.1/fpu64/libgcc.a(_udivdi3.o)
 .debug_info    0x000000000145d8e8       0x3f /opt/microchip/xc32/v3.01/bin/bin/../../lib/gcc/pic32mx/8.3.1/../../../../pic32mx/lib/fpu64/libpic32.a(default-on-reset.o)
 .debug_info    0x000000000145d927       0x3f /opt/microchip/xc32/v3.01/bin/bin/../../lib/gcc/pic32mx/8.3.1/../../../../pic32mx/lib/fpu64/libpic32.a(default-on-bootstrap.o)
 .debug_info    0x000000000145d966       0x40 /opt/microchip/xc32/v3.01/bin/bin/../../lib/gcc/pic32mx/8.3.1/../../../../pic32mx/lib/fpu64/libpic32.a(defaultinterrupt.o)
 .debug_info    0x000000000145d9a6       0x66 /opt/microchip/xc32/v3.01/bin/bin/../../lib/gcc/pic32mx/8.3.1/../../../../pic32mx/lib/fpu64/libc.a(malloc.o)
 .debug_info    0x000000000145da0c       0x3e /opt/microchip/xc32/v3.01/bin/bin/../../lib/gcc/pic32mx/8.3.1/../../../../pic32mx/lib/fpu64/libc.a(memmove.o)
 .debug_info    0x000000000145da4a       0x52 /opt/microchip/xc32/v3.01/bin/bin/../../lib/gcc/pic32mx/8.3.1/../../../../pic32mx/lib/fpu64/libc.a(puts.o)
 .debug_info    0x000000000145da9c       0x52 /opt/microchip/xc32/v3.01/bin/bin/../../lib/gcc/pic32mx/8.3.1/../../../../pic32mx/lib/fpu64/libc.a(setbuf.o)
 .debug_info    0x000000000145daee       0x3e /opt/microchip/xc32/v3.01/bin/bin/../../lib/gcc/pic32mx/8.3.1/../../../../pic32mx/lib/fpu64/libc.a(strchr.o)
 .debug_info    0x000000000145db2c       0x3e /opt/microchip/xc32/v3.01/bin/bin/../../lib/gcc/pic32mx/8.3.1/../../../../pic32mx/lib/fpu64/libc.a(strncmp.o)
 .debug_info    0x000000000145db6a       0x3e /opt/microchip/xc32/v3.01/bin/bin/../../lib/gcc/pic32mx/8.3.1/../../../../pic32mx/lib/fpu64/libc.a(strncpy.o)
 .debug_info    0x000000000145dba8       0x52 /opt/microchip/xc32/v3.01/bin/bin/../../lib/gcc/pic32mx/8.3.1/../../../../pic32mx/lib/fpu64/libc.a(strtol.o)
 .debug_info    0x000000000145dbfa       0x3e /opt/microchip/xc32/v3.01/bin/bin/../../lib/gcc/pic32mx/8.3.1/../../../../pic32mx/lib/fpu64/libc.a(printf_cdgGnopsuxX.eo)
 .debug_info    0x000000000145dc38       0x3e /opt/microchip/xc32/v3.01/bin/bin/../../lib/gcc/pic32mx/8.3.1/../../../../pic32mx/lib/fpu64/libc.a(sprintf_cdnopsuxX.eo)
 .debug_info    0x000000000145dc76       0x3e /opt/microchip/xc32/v3.01/bin/bin/../../lib/gcc/pic32mx/8.3.1/../../../../pic32mx/lib/fpu64/libc.a(sprintf_fF.eo)
 .debug_info    0x000000000145dcb4       0x48 /opt/microchip/xc32/v3.01/bin/bin/../../lib/gcc/pic32mx/8.3.1/../../../../pic32mx/lib/fpu64/libc.a(_fputc_simple.o)
 .debug_info    0x000000000145dcfc       0x5c /opt/microchip/xc32/v3.01/bin/bin/../../lib/gcc/pic32mx/8.3.1/../../../../pic32mx/lib/fpu64/libc.a(buf.o)
 .debug_info    0x000000000145dd58      0x17e /opt/microchip/xc32/v3.01/bin/bin/../../lib/gcc/pic32mx/8.3.1/../../../../pic32mx/lib/fpu64/libc.a(ctypef.o)
 .debug_info    0x000000000145ded6       0xba /opt/microchip/xc32/v3.01/bin/bin/../../lib/gcc/pic32mx/8.3.1/../../../../pic32mx/lib/fpu64/libc.a(doprnt_cdgGnopsuxX.eo)
 .debug_info    0x000000000145df90       0x3f /opt/microchip/xc32/v3.01/bin/bin/../../lib/gcc/pic32mx/8.3.1/../../../../pic32mx/lib/fpu64/libc.a(doprnt_cdnopsuxX.eo)
 .debug_info    0x000000000145dfcf       0xa5 /opt/microchip/xc32/v3.01/bin/bin/../../lib/gcc/pic32mx/8.3.1/../../../../pic32mx/lib/fpu64/libc.a(doprnt_fF.eo)
 .debug_info    0x000000000145e074       0x3e /opt/microchip/xc32/v3.01/bin/bin/../../lib/gcc/pic32mx/8.3.1/../../../../pic32mx/lib/fpu64/libc.a(_flsbuf_simple.o)
 .debug_info    0x000000000145e0b2       0x3e /opt/microchip/xc32/v3.01/bin/bin/../../lib/gcc/pic32mx/8.3.1/../../../../pic32mx/lib/fpu64/libmfd.a(s_cos.o)
 .debug_info    0x000000000145e0f0       0x3e /opt/microchip/xc32/v3.01/bin/bin/../../lib/gcc/pic32mx/8.3.1/../../../../pic32mx/lib/fpu64/libmfd.a(s_fabs.o)
 .debug_info    0x000000000145e12e       0x3e /opt/microchip/xc32/v3.01/bin/bin/../../lib/gcc/pic32mx/8.3.1/../../../../pic32mx/lib/fpu64/libmfd.a(s_frexp.o)
 .debug_info    0x000000000145e16c       0x3e /opt/microchip/xc32/v3.01/bin/bin/../../lib/gcc/pic32mx/8.3.1/../../../../pic32mx/lib/fpu64/libmfd.a(s_sin.o)
 .debug_info    0x000000000145e1aa       0x3e /opt/microchip/xc32/v3.01/bin/bin/../../lib/gcc/pic32mx/8.3.1/../../../../pic32mx/lib/fpu64/libmfd.a(w_atan2.o)
 .debug_info    0x000000000145e1e8       0x3e /opt/microchip/xc32/v3.01/bin/bin/../../lib/gcc/pic32mx/8.3.1/../../../../pic32mx/lib/fpu64/libmfd.a(w_exp.o)
 .debug_info    0x000000000145e226       0x3e /opt/microchip/xc32/v3.01/bin/bin/../../lib/gcc/pic32mx/8.3.1/../../../../pic32mx/lib/fpu64/libmfd.a(w_log.o)
 .debug_info    0x000000000145e264       0x3e /opt/microchip/xc32/v3.01/bin/bin/../../lib/gcc/pic32mx/8.3.1/../../../../pic32mx/lib/fpu64/libmfd.a(w_log10.o)
 .debug_info    0x000000000145e2a2       0x3e /opt/microchip/xc32/v3.01/bin/bin/../../lib/gcc/pic32mx/8.3.1/../../../../pic32mx/lib/fpu64/libmfd.a(w_pow.o)
 .debug_info    0x000000000145e2e0       0x3e /opt/microchip/xc32/v3.01/bin/bin/../../lib/gcc/pic32mx/8.3.1/../../../../pic32mx/lib/fpu64/libmfd.a(pic32_w_sqrt.o)
 .debug_info    0x000000000145e31e       0x51 /opt/microchip/xc32/v3.01/bin/bin/../../lib/gcc/pic32mx/8.3.1/../../../../pic32mx/lib/fpu64/libmfd.a(strtod.o)
 .debug_info    0x000000000145e36f       0x3e /opt/microchip/xc32/v3.01/bin/bin/../../lib/gcc/pic32mx/8.3.1/../../../../pic32mx/lib/fpu64/libmfd.a(e_atan2.o)
 .debug_info    0x000000000145e3ad       0x3e /opt/microchip/xc32/v3.01/bin/bin/../../lib/gcc/pic32mx/8.3.1/../../../../pic32mx/lib/fpu64/libmfd.a(e_exp.o)
 .debug_info    0x000000000145e3eb       0x3e /opt/microchip/xc32/v3.01/bin/bin/../../lib/gcc/pic32mx/8.3.1/../../../../pic32mx/lib/fpu64/libmfd.a(e_log.o)
 .debug_info    0x000000000145e429       0x3e /opt/microchip/xc32/v3.01/bin/bin/../../lib/gcc/pic32mx/8.3.1/../../../../pic32mx/lib/fpu64/libmfd.a(e_log10.o)
 .debug_info    0x000000000145e467       0x3e /opt/microchip/xc32/v3.01/bin/bin/../../lib/gcc/pic32mx/8.3.1/../../../../pic32mx/lib/fpu64/libmfd.a(e_pow.o)
 .debug_info    0x000000000145e4a5       0x3e /opt/microchip/xc32/v3.01/bin/bin/../../lib/gcc/pic32mx/8.3.1/../../../../pic32mx/lib/fpu64/libmfd.a(e_rem_pio2.o)
 .debug_info    0x000000000145e4e3       0x3e /opt/microchip/xc32/v3.01/bin/bin/../../lib/gcc/pic32mx/8.3.1/../../../../pic32mx/lib/fpu64/libmfd.a(k_cos.o)
 .debug_info    0x000000000145e521       0x3e /opt/microchip/xc32/v3.01/bin/bin/../../lib/gcc/pic32mx/8.3.1/../../../../pic32mx/lib/fpu64/libmfd.a(k_sin.o)
 .debug_info    0x000000000145e55f       0x3e /opt/microchip/xc32/v3.01/bin/bin/../../lib/gcc/pic32mx/8.3.1/../../../../pic32mx/lib/fpu64/libmfd.a(k_standard.o)
 .debug_info    0x000000000145e59d       0x3e /opt/microchip/xc32/v3.01/bin/bin/../../lib/gcc/pic32mx/8.3.1/../../../../pic32mx/lib/fpu64/libmfd.a(s_atan.o)
 .debug_info    0x000000000145e5db       0x3e /opt/microchip/xc32/v3.01/bin/bin/../../lib/gcc/pic32mx/8.3.1/../../../../pic32mx/lib/fpu64/libmfd.a(s_rint.o)
 .debug_info    0x000000000145e619       0x51 /opt/microchip/xc32/v3.01/bin/bin/../../lib/gcc/pic32mx/8.3.1/../../../../pic32mx/lib/fpu64/libmfd.a(s_scalbn.o)
 .debug_info    0x000000000145e66a      0x33c /opt/microchip/xc32/v3.01/bin/bin/../../lib/gcc/pic32mx/8.3.1/fpu64/libgcc.a(_lshrdi3.o)
 .debug_info    0x000000000145e9a6      0x304 /opt/microchip/xc32/v3.01/bin/bin/../../lib/gcc/pic32mx/8.3.1/fpu64/libgcc.a(_cmpdi2.o)
 .debug_info    0x000000000145ecaa      0x8d4 /opt/microchip/xc32/v3.01/bin/bin/../../lib/gcc/pic32mx/8.3.1/fpu64/libgcc.a(_umoddi3.o)
 .debug_info    0x000000000145f57e       0xae /opt/microchip/xc32/v3.01/bin/bin/../../lib/gcc/pic32mx/8.3.1/../../../../pic32mx/lib/fpu64/libpic32.a(sbrk.o)
 .debug_info    0x000000000145f62c       0x40 /opt/microchip/xc32/v3.01/bin/bin/../../lib/gcc/pic32mx/8.3.1/../../../../pic32mx/lib/fpu64/libpic32.a(write.o)

.debug_abbrev   0x0000000000000000     0xe0c3
 *.elf(.debug_abbrev)
 *(.debug_abbrev)
 .debug_abbrev  0x0000000000000000      0x55b build/pic32mz2048efm/production/_ext/1044926641/drv_sdspi.o
 .debug_abbrev  0x000000000000055b      0x391 build/pic32mz2048efm/production/_ext/1044926641/drv_sdspi_driver_interface.o
 .debug_abbrev  0x00000000000008ec      0x254 build/pic32mz2048efm/production/_ext/1044926641/drv_sdspi_file_system.o
 .debug_abbrev  0x0000000000000b40      0x589 build/pic32mz2048efm/production/_ext/1807302558/drv_spi.o
 .debug_abbrev  0x00000000000010c9      0x55e build/pic32mz2048efm/production/_ext/1449458886/drv_usbhs.o
 .debug_abbrev  0x0000000000001627      0x645 build/pic32mz2048efm/production/_ext/1449458886/drv_usbhs_device.o
 .debug_abbrev  0x0000000000001c6c      0x286 build/pic32mz2048efm/production/_ext/1928555383/plib_cache.o
 .debug_abbrev  0x0000000000001ef2       0x14 build/pic32mz2048efm/production/_ext/1928555383/plib_cache_pic32mz.o
 .debug_abbrev  0x0000000000001f06      0x178 build/pic32mz2048efm/production/_ext/323794519/plib_clk.o
 .debug_abbrev  0x000000000000207e      0x218 build/pic32mz2048efm/production/_ext/1871117435/plib_coretimer.o
 .debug_abbrev  0x0000000000002296      0x202 build/pic32mz2048efm/production/_ext/1447764726/plib_evic.o
 .debug_abbrev  0x0000000000002498      0x314 build/pic32mz2048efm/production/_ext/1447818554/plib_gpio.o
 .debug_abbrev  0x00000000000027ac      0x2b0 build/pic32mz2048efm/production/_ext/1683951966/plib_i2c2_master.o
 .debug_abbrev  0x0000000000002a5c      0x2b0 build/pic32mz2048efm/production/_ext/1683951966/plib_i2c4_master.o
 .debug_abbrev  0x0000000000002d0c      0x2fe build/pic32mz2048efm/production/_ext/1448149901/plib_rtcc.o
 .debug_abbrev  0x000000000000300a      0x2fe build/pic32mz2048efm/production/_ext/1007818685/plib_spi4_master.o
 .debug_abbrev  0x0000000000003308      0x2fe build/pic32mz2048efm/production/_ext/1007818685/plib_spi5_master.o
 .debug_abbrev  0x0000000000003606      0x2fe build/pic32mz2048efm/production/_ext/1007818685/plib_spi2_master.o
 .debug_abbrev  0x0000000000003904      0x2fe build/pic32mz2048efm/production/_ext/1007818685/plib_spi1_master.o
 .debug_abbrev  0x0000000000003c02      0x223 build/pic32mz2048efm/production/_ext/323810894/plib_tmr2.o
 .debug_abbrev  0x0000000000003e25      0x223 build/pic32mz2048efm/production/_ext/323810894/plib_tmr3.o
 .debug_abbrev  0x0000000000004048      0x2e9 build/pic32mz2048efm/production/_ext/1448221497/plib_uart5.o
 .debug_abbrev  0x0000000000004331      0x342 build/pic32mz2048efm/production/_ext/1448221497/plib_uart6.o
 .debug_abbrev  0x0000000000004673      0x342 build/pic32mz2048efm/production/_ext/1448221497/plib_uart3.o
 .debug_abbrev  0x00000000000049b5      0x342 build/pic32mz2048efm/production/_ext/1448221497/plib_uart1.o
 .debug_abbrev  0x0000000000004cf7      0x342 build/pic32mz2048efm/production/_ext/1448221497/plib_uart2.o
 .debug_abbrev  0x0000000000005039      0x1a3 build/pic32mz2048efm/production/_ext/323813500/plib_wdt.o
 .debug_abbrev  0x00000000000051dc      0x32f build/pic32mz2048efm/production/_ext/1212781247/xc32_monitor.o
 .debug_abbrev  0x000000000000550b      0x1e0 build/pic32mz2048efm/production/_ext/191419926/sys_cache.o
 .debug_abbrev  0x00000000000056eb       0xd3 build/pic32mz2048efm/production/_ext/1336113504/sys_dma.o
 .debug_abbrev  0x00000000000057be      0x47c build/pic32mz2048efm/production/_ext/1225530592/ff.o
 .debug_abbrev  0x0000000000005c3a      0x222 build/pic32mz2048efm/production/_ext/1225530592/ffunicode.o
 .debug_abbrev  0x0000000000005e5c      0x3db build/pic32mz2048efm/production/_ext/1545496361/diskio.o
 .debug_abbrev  0x0000000000006237      0x50a build/pic32mz2048efm/production/_ext/1538077638/sys_fs.o
 .debug_abbrev  0x0000000000006741      0x4d6 build/pic32mz2048efm/production/_ext/1538077638/sys_fs_media_manager.o
 .debug_abbrev  0x0000000000006c17      0x3a8 build/pic32mz2048efm/production/_ext/1538077638/sys_fs_fat_interface.o
 .debug_abbrev  0x0000000000006fbf      0x279 build/pic32mz2048efm/production/_ext/2145297452/sys_int.o
 .debug_abbrev  0x0000000000007238      0x5c5 build/pic32mz2048efm/production/_ext/519320518/sys_time.o
 .debug_abbrev  0x00000000000077fd      0x45e build/pic32mz2048efm/production/_ext/196169617/usb_device.o
 .debug_abbrev  0x0000000000007c5b      0x49f build/pic32mz2048efm/production/_ext/196169617/usb_device_cdc.o
 .debug_abbrev  0x00000000000080fa      0x2a8 build/pic32mz2048efm/production/_ext/196169617/usb_device_cdc_acm.o
 .debug_abbrev  0x00000000000083a2      0x2ac build/pic32mz2048efm/production/_ext/2011215161/usb_device_init_data.o
 .debug_abbrev  0x000000000000864e      0x2cc build/pic32mz2048efm/production/_ext/2011215161/tasks.o
 .debug_abbrev  0x000000000000891a      0x3ad build/pic32mz2048efm/production/_ext/2011215161/initialization.o
 .debug_abbrev  0x0000000000008cc7      0x2b8 build/pic32mz2048efm/production/_ext/2011215161/interrupts.o
 .debug_abbrev  0x0000000000008f7f      0x2a9 build/pic32mz2048efm/production/_ext/2011215161/exceptions.o
 .debug_abbrev  0x0000000000009228      0x375 build/pic32mz2048efm/production/_ext/858502545/figaro_gpr_fit.o
 .debug_abbrev  0x000000000000959d       0xa3 build/pic32mz2048efm/production/_ext/858502545/figaro_gpr_params.o
 .debug_abbrev  0x0000000000009640      0x36d build/pic32mz2048efm/production/_ext/858502545/mpfit.o
 .debug_abbrev  0x00000000000099ad      0x376 build/pic32mz2048efm/production/_ext/1230022092/BodyImpedance.o
 .debug_abbrev  0x0000000000009d23      0x55e build/pic32mz2048efm/production/_ext/1230022092/ad5940.o
 .debug_abbrev  0x000000000000a281      0x3b5 build/pic32mz2048efm/production/_ext/1230022092/pic32Port.o
 .debug_abbrev  0x000000000000a636      0x401 build/pic32mz2048efm/production/_ext/1230022092/ad5940main.o
 .debug_abbrev  0x000000000000aa37      0x39f build/pic32mz2048efm/production/_ext/1360937237/app.o
 .debug_abbrev  0x000000000000add6      0x2d3 build/pic32mz2048efm/production/_ext/1360937237/main.o
 .debug_abbrev  0x000000000000b0a9      0x40d build/pic32mz2048efm/production/_ext/1360937237/communication.o
 .debug_abbrev  0x000000000000b4b6      0x387 build/pic32mz2048efm/production/_ext/1360937237/eeprom.o
 .debug_abbrev  0x000000000000b83d      0x43d build/pic32mz2048efm/production/_ext/1360937237/mdot.o
 .debug_abbrev  0x000000000000bc7a      0x3f9 build/pic32mz2048efm/production/_ext/1360937237/messaging.o
 .debug_abbrev  0x000000000000c073      0x3d1 build/pic32mz2048efm/production/_ext/1360937237/nmea.o
 .debug_abbrev  0x000000000000c444      0x183 build/pic32mz2048efm/production/_ext/1360937237/stringbuffer.o
 .debug_abbrev  0x000000000000c5c7      0x38c build/pic32mz2048efm/production/_ext/1360937237/time_keeping.o
 .debug_abbrev  0x000000000000c953      0x35a build/pic32mz2048efm/production/_ext/1360937237/console.o
 .debug_abbrev  0x000000000000ccad      0x3da build/pic32mz2048efm/production/_ext/1360937237/auxillary_sensors.o
 .debug_abbrev  0x000000000000d087      0x1d8 /opt/microchip/xc32/v3.01/bin/bin/../../lib/gcc/pic32mx/8.3.1/fpu64/libgcc.a(_udivdi3.o)
 .debug_abbrev  0x000000000000d25f       0x2e /opt/microchip/xc32/v3.01/bin/bin/../../lib/gcc/pic32mx/8.3.1/../../../../pic32mx/lib/fpu64/libpic32.a(default-on-reset.o)
 .debug_abbrev  0x000000000000d28d       0x2e /opt/microchip/xc32/v3.01/bin/bin/../../lib/gcc/pic32mx/8.3.1/../../../../pic32mx/lib/fpu64/libpic32.a(default-on-bootstrap.o)
 .debug_abbrev  0x000000000000d2bb       0x31 /opt/microchip/xc32/v3.01/bin/bin/../../lib/gcc/pic32mx/8.3.1/../../../../pic32mx/lib/fpu64/libpic32.a(defaultinterrupt.o)
 .debug_abbrev  0x000000000000d2ec       0x46 /opt/microchip/xc32/v3.01/bin/bin/../../lib/gcc/pic32mx/8.3.1/../../../../pic32mx/lib/fpu64/libc.a(malloc.o)
 .debug_abbrev  0x000000000000d332       0x2e /opt/microchip/xc32/v3.01/bin/bin/../../lib/gcc/pic32mx/8.3.1/../../../../pic32mx/lib/fpu64/libc.a(memmove.o)
 .debug_abbrev  0x000000000000d360       0x2e /opt/microchip/xc32/v3.01/bin/bin/../../lib/gcc/pic32mx/8.3.1/../../../../pic32mx/lib/fpu64/libc.a(puts.o)
 .debug_abbrev  0x000000000000d38e       0x2e /opt/microchip/xc32/v3.01/bin/bin/../../lib/gcc/pic32mx/8.3.1/../../../../pic32mx/lib/fpu64/libc.a(setbuf.o)
 .debug_abbrev  0x000000000000d3bc       0x2e /opt/microchip/xc32/v3.01/bin/bin/../../lib/gcc/pic32mx/8.3.1/../../../../pic32mx/lib/fpu64/libc.a(strchr.o)
 .debug_abbrev  0x000000000000d3ea       0x2e /opt/microchip/xc32/v3.01/bin/bin/../../lib/gcc/pic32mx/8.3.1/../../../../pic32mx/lib/fpu64/libc.a(strncmp.o)
 .debug_abbrev  0x000000000000d418       0x2e /opt/microchip/xc32/v3.01/bin/bin/../../lib/gcc/pic32mx/8.3.1/../../../../pic32mx/lib/fpu64/libc.a(strncpy.o)
 .debug_abbrev  0x000000000000d446       0x2e /opt/microchip/xc32/v3.01/bin/bin/../../lib/gcc/pic32mx/8.3.1/../../../../pic32mx/lib/fpu64/libc.a(strtol.o)
 .debug_abbrev  0x000000000000d474       0x2e /opt/microchip/xc32/v3.01/bin/bin/../../lib/gcc/pic32mx/8.3.1/../../../../pic32mx/lib/fpu64/libc.a(printf_cdgGnopsuxX.eo)
 .debug_abbrev  0x000000000000d4a2       0x2e /opt/microchip/xc32/v3.01/bin/bin/../../lib/gcc/pic32mx/8.3.1/../../../../pic32mx/lib/fpu64/libc.a(sprintf_cdnopsuxX.eo)
 .debug_abbrev  0x000000000000d4d0       0x2e /opt/microchip/xc32/v3.01/bin/bin/../../lib/gcc/pic32mx/8.3.1/../../../../pic32mx/lib/fpu64/libc.a(sprintf_fF.eo)
 .debug_abbrev  0x000000000000d4fe       0x37 /opt/microchip/xc32/v3.01/bin/bin/../../lib/gcc/pic32mx/8.3.1/../../../../pic32mx/lib/fpu64/libc.a(_fputc_simple.o)
 .debug_abbrev  0x000000000000d535       0x4f /opt/microchip/xc32/v3.01/bin/bin/../../lib/gcc/pic32mx/8.3.1/../../../../pic32mx/lib/fpu64/libc.a(buf.o)
 .debug_abbrev  0x000000000000d584       0x2e /opt/microchip/xc32/v3.01/bin/bin/../../lib/gcc/pic32mx/8.3.1/../../../../pic32mx/lib/fpu64/libc.a(ctypef.o)
 .debug_abbrev  0x000000000000d5b2       0x92 /opt/microchip/xc32/v3.01/bin/bin/../../lib/gcc/pic32mx/8.3.1/../../../../pic32mx/lib/fpu64/libc.a(doprnt_cdgGnopsuxX.eo)
 .debug_abbrev  0x000000000000d644       0x2e /opt/microchip/xc32/v3.01/bin/bin/../../lib/gcc/pic32mx/8.3.1/../../../../pic32mx/lib/fpu64/libc.a(doprnt_cdnopsuxX.eo)
 .debug_abbrev  0x000000000000d672       0x80 /opt/microchip/xc32/v3.01/bin/bin/../../lib/gcc/pic32mx/8.3.1/../../../../pic32mx/lib/fpu64/libc.a(doprnt_fF.eo)
 .debug_abbrev  0x000000000000d6f2       0x2e /opt/microchip/xc32/v3.01/bin/bin/../../lib/gcc/pic32mx/8.3.1/../../../../pic32mx/lib/fpu64/libc.a(_flsbuf_simple.o)
 .debug_abbrev  0x000000000000d720       0x2e /opt/microchip/xc32/v3.01/bin/bin/../../lib/gcc/pic32mx/8.3.1/../../../../pic32mx/lib/fpu64/libmfd.a(s_cos.o)
 .debug_abbrev  0x000000000000d74e       0x2e /opt/microchip/xc32/v3.01/bin/bin/../../lib/gcc/pic32mx/8.3.1/../../../../pic32mx/lib/fpu64/libmfd.a(s_fabs.o)
 .debug_abbrev  0x000000000000d77c       0x2e /opt/microchip/xc32/v3.01/bin/bin/../../lib/gcc/pic32mx/8.3.1/../../../../pic32mx/lib/fpu64/libmfd.a(s_frexp.o)
 .debug_abbrev  0x000000000000d7aa       0x2e /opt/microchip/xc32/v3.01/bin/bin/../../lib/gcc/pic32mx/8.3.1/../../../../pic32mx/lib/fpu64/libmfd.a(s_sin.o)
 .debug_abbrev  0x000000000000d7d8       0x2e /opt/microchip/xc32/v3.01/bin/bin/../../lib/gcc/pic32mx/8.3.1/../../../../pic32mx/lib/fpu64/libmfd.a(w_atan2.o)
 .debug_abbrev  0x000000000000d806       0x2e /opt/microchip/xc32/v3.01/bin/bin/../../lib/gcc/pic32mx/8.3.1/../../../../pic32mx/lib/fpu64/libmfd.a(w_exp.o)
 .debug_abbrev  0x000000000000d834       0x2e /opt/microchip/xc32/v3.01/bin/bin/../../lib/gcc/pic32mx/8.3.1/../../../../pic32mx/lib/fpu64/libmfd.a(w_log.o)
 .debug_abbrev  0x000000000000d862       0x2e /opt/microchip/xc32/v3.01/bin/bin/../../lib/gcc/pic32mx/8.3.1/../../../../pic32mx/lib/fpu64/libmfd.a(w_log10.o)
 .debug_abbrev  0x000000000000d890       0x2e /opt/microchip/xc32/v3.01/bin/bin/../../lib/gcc/pic32mx/8.3.1/../../../../pic32mx/lib/fpu64/libmfd.a(w_pow.o)
 .debug_abbrev  0x000000000000d8be       0x2e /opt/microchip/xc32/v3.01/bin/bin/../../lib/gcc/pic32mx/8.3.1/../../../../pic32mx/lib/fpu64/libmfd.a(pic32_w_sqrt.o)
 .debug_abbrev  0x000000000000d8ec       0x37 /opt/microchip/xc32/v3.01/bin/bin/../../lib/gcc/pic32mx/8.3.1/../../../../pic32mx/lib/fpu64/libmfd.a(strtod.o)
 .debug_abbrev  0x000000000000d923       0x2e /opt/microchip/xc32/v3.01/bin/bin/../../lib/gcc/pic32mx/8.3.1/../../../../pic32mx/lib/fpu64/libmfd.a(e_atan2.o)
 .debug_abbrev  0x000000000000d951       0x2e /opt/microchip/xc32/v3.01/bin/bin/../../lib/gcc/pic32mx/8.3.1/../../../../pic32mx/lib/fpu64/libmfd.a(e_exp.o)
 .debug_abbrev  0x000000000000d97f       0x2e /opt/microchip/xc32/v3.01/bin/bin/../../lib/gcc/pic32mx/8.3.1/../../../../pic32mx/lib/fpu64/libmfd.a(e_log.o)
 .debug_abbrev  0x000000000000d9ad       0x2e /opt/microchip/xc32/v3.01/bin/bin/../../lib/gcc/pic32mx/8.3.1/../../../../pic32mx/lib/fpu64/libmfd.a(e_log10.o)
 .debug_abbrev  0x000000000000d9db       0x2e /opt/microchip/xc32/v3.01/bin/bin/../../lib/gcc/pic32mx/8.3.1/../../../../pic32mx/lib/fpu64/libmfd.a(e_pow.o)
 .debug_abbrev  0x000000000000da09       0x2e /opt/microchip/xc32/v3.01/bin/bin/../../lib/gcc/pic32mx/8.3.1/../../../../pic32mx/lib/fpu64/libmfd.a(e_rem_pio2.o)
 .debug_abbrev  0x000000000000da37       0x2e /opt/microchip/xc32/v3.01/bin/bin/../../lib/gcc/pic32mx/8.3.1/../../../../pic32mx/lib/fpu64/libmfd.a(k_cos.o)
 .debug_abbrev  0x000000000000da65       0x2e /opt/microchip/xc32/v3.01/bin/bin/../../lib/gcc/pic32mx/8.3.1/../../../../pic32mx/lib/fpu64/libmfd.a(k_sin.o)
 .debug_abbrev  0x000000000000da93       0x2e /opt/microchip/xc32/v3.01/bin/bin/../../lib/gcc/pic32mx/8.3.1/../../../../pic32mx/lib/fpu64/libmfd.a(k_standard.o)
 .debug_abbrev  0x000000000000dac1       0x2e /opt/microchip/xc32/v3.01/bin/bin/../../lib/gcc/pic32mx/8.3.1/../../../../pic32mx/lib/fpu64/libmfd.a(s_atan.o)
 .debug_abbrev  0x000000000000daef       0x2e /opt/microchip/xc32/v3.01/bin/bin/../../lib/gcc/pic32mx/8.3.1/../../../../pic32mx/lib/fpu64/libmfd.a(s_rint.o)
 .debug_abbrev  0x000000000000db1d       0x43 /opt/microchip/xc32/v3.01/bin/bin/../../lib/gcc/pic32mx/8.3.1/../../../../pic32mx/lib/fpu64/libmfd.a(s_scalbn.o)
 .debug_abbrev  0x000000000000db60      0x17e /opt/microchip/xc32/v3.01/bin/bin/../../lib/gcc/pic32mx/8.3.1/fpu64/libgcc.a(_lshrdi3.o)
 .debug_abbrev  0x000000000000dcde      0x139 /opt/microchip/xc32/v3.01/bin/bin/../../lib/gcc/pic32mx/8.3.1/fpu64/libgcc.a(_cmpdi2.o)
 .debug_abbrev  0x000000000000de17      0x1ee /opt/microchip/xc32/v3.01/bin/bin/../../lib/gcc/pic32mx/8.3.1/fpu64/libgcc.a(_umoddi3.o)
 .debug_abbrev  0x000000000000e005       0x90 /opt/microchip/xc32/v3.01/bin/bin/../../lib/gcc/pic32mx/8.3.1/../../../../pic32mx/lib/fpu64/libpic32.a(sbrk.o)
 .debug_abbrev  0x000000000000e095       0x2e /opt/microchip/xc32/v3.01/bin/bin/../../lib/gcc/pic32mx/8.3.1/../../../../pic32mx/lib/fpu64/libpic32.a(write.o)

.debug_line     0x0000000000000000    0x35752
 *.elf(.debug_line)
 *(.debug_line)
 .debug_line    0x0000000000000000     0x23c6 build/pic32mz2048efm/production/_ext/1044926641/drv_sdspi.o
 .debug_line    0x00000000000023c6      0x717 build/pic32mz2048efm/production/_ext/1044926641/drv_sdspi_driver_interface.o
 .debug_line    0x0000000000002add      0x2e0 build/pic32mz2048efm/production/_ext/1044926641/drv_sdspi_file_system.o
 .debug_line    0x0000000000002dbd     0x12fa build/pic32mz2048efm/production/_ext/1807302558/drv_spi.o
 .debug_line    0x00000000000040b7      0xe91 build/pic32mz2048efm/production/_ext/1449458886/drv_usbhs.o
 .debug_line    0x0000000000004f48     0x377b build/pic32mz2048efm/production/_ext/1449458886/drv_usbhs_device.o
 .debug_line    0x00000000000086c3      0x46e build/pic32mz2048efm/production/_ext/1928555383/plib_cache.o
 .debug_line    0x0000000000008b31      0x20f build/pic32mz2048efm/production/_ext/1928555383/plib_cache_pic32mz.o
 .debug_line    0x0000000000008d40      0x22a build/pic32mz2048efm/production/_ext/323794519/plib_clk.o
 .debug_line    0x0000000000008f6a      0x310 build/pic32mz2048efm/production/_ext/1871117435/plib_coretimer.o
 .debug_line    0x000000000000927a      0x43d build/pic32mz2048efm/production/_ext/1447764726/plib_evic.o
 .debug_line    0x00000000000096b7      0x7a2 build/pic32mz2048efm/production/_ext/1447818554/plib_gpio.o
 .debug_line    0x0000000000009e59      0x898 build/pic32mz2048efm/production/_ext/1683951966/plib_i2c2_master.o
 .debug_line    0x000000000000a6f1      0x898 build/pic32mz2048efm/production/_ext/1683951966/plib_i2c4_master.o
 .debug_line    0x000000000000af89      0x55e build/pic32mz2048efm/production/_ext/1448149901/plib_rtcc.o
 .debug_line    0x000000000000b4e7      0x921 build/pic32mz2048efm/production/_ext/1007818685/plib_spi4_master.o
 .debug_line    0x000000000000be08      0x921 build/pic32mz2048efm/production/_ext/1007818685/plib_spi5_master.o
 .debug_line    0x000000000000c729      0x921 build/pic32mz2048efm/production/_ext/1007818685/plib_spi2_master.o
 .debug_line    0x000000000000d04a      0x921 build/pic32mz2048efm/production/_ext/1007818685/plib_spi1_master.o
 .debug_line    0x000000000000d96b      0x329 build/pic32mz2048efm/production/_ext/323810894/plib_tmr2.o
 .debug_line    0x000000000000dc94      0x329 build/pic32mz2048efm/production/_ext/323810894/plib_tmr3.o
 .debug_line    0x000000000000dfbd      0x5e1 build/pic32mz2048efm/production/_ext/1448221497/plib_uart5.o
 .debug_line    0x000000000000e59e      0x84f build/pic32mz2048efm/production/_ext/1448221497/plib_uart6.o
 .debug_line    0x000000000000eded      0x84f build/pic32mz2048efm/production/_ext/1448221497/plib_uart3.o
 .debug_line    0x000000000000f63c      0x84f build/pic32mz2048efm/production/_ext/1448221497/plib_uart1.o
 .debug_line    0x000000000000fe8b      0x84f build/pic32mz2048efm/production/_ext/1448221497/plib_uart2.o
 .debug_line    0x00000000000106da      0x233 build/pic32mz2048efm/production/_ext/323813500/plib_wdt.o
 .debug_line    0x000000000001090d      0x671 build/pic32mz2048efm/production/_ext/1212781247/xc32_monitor.o
 .debug_line    0x0000000000010f7e      0x424 build/pic32mz2048efm/production/_ext/191419926/sys_cache.o
 .debug_line    0x00000000000113a2       0xfc build/pic32mz2048efm/production/_ext/1336113504/sys_dma.o
 .debug_line    0x000000000001149e     0x4c86 build/pic32mz2048efm/production/_ext/1225530592/ff.o
 .debug_line    0x0000000000016124      0x38e build/pic32mz2048efm/production/_ext/1225530592/ffunicode.o
 .debug_line    0x00000000000164b2      0x651 build/pic32mz2048efm/production/_ext/1545496361/diskio.o
 .debug_line    0x0000000000016b03     0x30df build/pic32mz2048efm/production/_ext/1538077638/sys_fs.o
 .debug_line    0x0000000000019be2      0xf8d build/pic32mz2048efm/production/_ext/1538077638/sys_fs_media_manager.o
 .debug_line    0x000000000001ab6f      0xab1 build/pic32mz2048efm/production/_ext/1538077638/sys_fs_fat_interface.o
 .debug_line    0x000000000001b620      0x2af build/pic32mz2048efm/production/_ext/2145297452/sys_int.o
 .debug_line    0x000000000001b8cf      0xf9a build/pic32mz2048efm/production/_ext/519320518/sys_time.o
 .debug_line    0x000000000001c869     0x1a7b build/pic32mz2048efm/production/_ext/196169617/usb_device.o
 .debug_line    0x000000000001e2e4      0xe42 build/pic32mz2048efm/production/_ext/196169617/usb_device_cdc.o
 .debug_line    0x000000000001f126      0x39a build/pic32mz2048efm/production/_ext/196169617/usb_device_cdc_acm.o
 .debug_line    0x000000000001f4c0      0x5ad build/pic32mz2048efm/production/_ext/2011215161/usb_device_init_data.o
 .debug_line    0x000000000001fa6d      0x63c build/pic32mz2048efm/production/_ext/2011215161/tasks.o
 .debug_line    0x00000000000200a9      0xcde build/pic32mz2048efm/production/_ext/2011215161/initialization.o
 .debug_line    0x0000000000020d87      0x907 build/pic32mz2048efm/production/_ext/2011215161/interrupts.o
 .debug_line    0x000000000002168e      0x62e build/pic32mz2048efm/production/_ext/2011215161/exceptions.o
 .debug_line    0x0000000000021cbc      0xc05 build/pic32mz2048efm/production/_ext/858502545/figaro_gpr_fit.o
 .debug_line    0x00000000000228c1       0xc3 build/pic32mz2048efm/production/_ext/858502545/figaro_gpr_params.o
 .debug_line    0x0000000000022984     0x27e3 build/pic32mz2048efm/production/_ext/858502545/mpfit.o
 .debug_line    0x0000000000025167      0xa7f build/pic32mz2048efm/production/_ext/1230022092/BodyImpedance.o
 .debug_line    0x0000000000025be6     0x3c0d build/pic32mz2048efm/production/_ext/1230022092/ad5940.o
 .debug_line    0x00000000000297f3      0x85b build/pic32mz2048efm/production/_ext/1230022092/pic32Port.o
 .debug_line    0x000000000002a04e      0x93e build/pic32mz2048efm/production/_ext/1230022092/ad5940main.o
 .debug_line    0x000000000002a98c      0x85f build/pic32mz2048efm/production/_ext/1360937237/app.o
 .debug_line    0x000000000002b1eb      0x596 build/pic32mz2048efm/production/_ext/1360937237/main.o
 .debug_line    0x000000000002b781      0xc7e build/pic32mz2048efm/production/_ext/1360937237/communication.o
 .debug_line    0x000000000002c3ff      0x7ad build/pic32mz2048efm/production/_ext/1360937237/eeprom.o
 .debug_line    0x000000000002cbac      0x9ec build/pic32mz2048efm/production/_ext/1360937237/mdot.o
 .debug_line    0x000000000002d598      0xee6 build/pic32mz2048efm/production/_ext/1360937237/messaging.o
 .debug_line    0x000000000002e47e      0x996 build/pic32mz2048efm/production/_ext/1360937237/nmea.o
 .debug_line    0x000000000002ee14      0x1d1 build/pic32mz2048efm/production/_ext/1360937237/stringbuffer.o
 .debug_line    0x000000000002efe5      0x7ac build/pic32mz2048efm/production/_ext/1360937237/time_keeping.o
 .debug_line    0x000000000002f791      0x70b build/pic32mz2048efm/production/_ext/1360937237/console.o
 .debug_line    0x000000000002fe9c      0x9e7 build/pic32mz2048efm/production/_ext/1360937237/auxillary_sensors.o
 .debug_line    0x0000000000030883      0x490 /opt/microchip/xc32/v3.01/bin/bin/../../lib/gcc/pic32mx/8.3.1/fpu64/libgcc.a(_udivdi3.o)
 .debug_line    0x0000000000030d13       0xa6 /opt/microchip/xc32/v3.01/bin/bin/../../lib/gcc/pic32mx/8.3.1/../../../../pic32mx/lib/fpu64/libpic32.a(default-on-reset.o)
 .debug_line    0x0000000000030db9       0xaa /opt/microchip/xc32/v3.01/bin/bin/../../lib/gcc/pic32mx/8.3.1/../../../../pic32mx/lib/fpu64/libpic32.a(default-on-bootstrap.o)
 .debug_line    0x0000000000030e63       0xc9 /opt/microchip/xc32/v3.01/bin/bin/../../lib/gcc/pic32mx/8.3.1/../../../../pic32mx/lib/fpu64/libpic32.a(defaultinterrupt.o)
 .debug_line    0x0000000000030f2c        0x0 /opt/microchip/xc32/v3.01/bin/bin/../../lib/gcc/pic32mx/8.3.1/../../../../pic32mx/lib/fpu64/libc.a(_iob.o)
 .debug_line    0x0000000000030f2c      0x1f7 /opt/microchip/xc32/v3.01/bin/bin/../../lib/gcc/pic32mx/8.3.1/../../../../pic32mx/lib/fpu64/libc.a(malloc.o)
 .debug_line    0x0000000000031123       0xb2 /opt/microchip/xc32/v3.01/bin/bin/../../lib/gcc/pic32mx/8.3.1/../../../../pic32mx/lib/fpu64/libc.a(memmove.o)
 .debug_line    0x00000000000311d5       0xc3 /opt/microchip/xc32/v3.01/bin/bin/../../lib/gcc/pic32mx/8.3.1/../../../../pic32mx/lib/fpu64/libc.a(puts.o)
 .debug_line    0x0000000000031298      0x100 /opt/microchip/xc32/v3.01/bin/bin/../../lib/gcc/pic32mx/8.3.1/../../../../pic32mx/lib/fpu64/libc.a(setbuf.o)
 .debug_line    0x0000000000031398       0xa1 /opt/microchip/xc32/v3.01/bin/bin/../../lib/gcc/pic32mx/8.3.1/../../../../pic32mx/lib/fpu64/libc.a(strchr.o)
 .debug_line    0x0000000000031439       0xa9 /opt/microchip/xc32/v3.01/bin/bin/../../lib/gcc/pic32mx/8.3.1/../../../../pic32mx/lib/fpu64/libc.a(strncmp.o)
 .debug_line    0x00000000000314e2       0xb0 /opt/microchip/xc32/v3.01/bin/bin/../../lib/gcc/pic32mx/8.3.1/../../../../pic32mx/lib/fpu64/libc.a(strncpy.o)
 .debug_line    0x0000000000031592      0x1c8 /opt/microchip/xc32/v3.01/bin/bin/../../lib/gcc/pic32mx/8.3.1/../../../../pic32mx/lib/fpu64/libc.a(strtol.o)
 .debug_line    0x000000000003175a       0xa8 /opt/microchip/xc32/v3.01/bin/bin/../../lib/gcc/pic32mx/8.3.1/../../../../pic32mx/lib/fpu64/libc.a(printf_cdgGnopsuxX.eo)
 .debug_line    0x0000000000031802       0xc3 /opt/microchip/xc32/v3.01/bin/bin/../../lib/gcc/pic32mx/8.3.1/../../../../pic32mx/lib/fpu64/libc.a(sprintf_cdnopsuxX.eo)
 .debug_line    0x00000000000318c5       0xc3 /opt/microchip/xc32/v3.01/bin/bin/../../lib/gcc/pic32mx/8.3.1/../../../../pic32mx/lib/fpu64/libc.a(sprintf_fF.eo)
 .debug_line    0x0000000000031988       0xf3 /opt/microchip/xc32/v3.01/bin/bin/../../lib/gcc/pic32mx/8.3.1/../../../../pic32mx/lib/fpu64/libc.a(_fputc_simple.o)
 .debug_line    0x0000000000031a7b       0xca /opt/microchip/xc32/v3.01/bin/bin/../../lib/gcc/pic32mx/8.3.1/../../../../pic32mx/lib/fpu64/libc.a(buf.o)
 .debug_line    0x0000000000031b45        0x0 /opt/microchip/xc32/v3.01/bin/bin/../../lib/gcc/pic32mx/8.3.1/../../../../pic32mx/lib/fpu64/libc.a(ctype.o)
 .debug_line    0x0000000000031b45      0x20a /opt/microchip/xc32/v3.01/bin/bin/../../lib/gcc/pic32mx/8.3.1/../../../../pic32mx/lib/fpu64/libc.a(ctypef.o)
 .debug_line    0x0000000000031d4f        0x0 /opt/microchip/xc32/v3.01/bin/bin/../../lib/gcc/pic32mx/8.3.1/../../../../pic32mx/lib/fpu64/libc.a(errno.o)
 .debug_line    0x0000000000031d4f      0x7e4 /opt/microchip/xc32/v3.01/bin/bin/../../lib/gcc/pic32mx/8.3.1/../../../../pic32mx/lib/fpu64/libc.a(doprnt_cdgGnopsuxX.eo)
 .debug_line    0x0000000000032533      0x35b /opt/microchip/xc32/v3.01/bin/bin/../../lib/gcc/pic32mx/8.3.1/../../../../pic32mx/lib/fpu64/libc.a(doprnt_cdnopsuxX.eo)
 .debug_line    0x000000000003288e      0x5ab /opt/microchip/xc32/v3.01/bin/bin/../../lib/gcc/pic32mx/8.3.1/../../../../pic32mx/lib/fpu64/libc.a(doprnt_fF.eo)
 .debug_line    0x0000000000032e39       0xfb /opt/microchip/xc32/v3.01/bin/bin/../../lib/gcc/pic32mx/8.3.1/../../../../pic32mx/lib/fpu64/libc.a(_flsbuf_simple.o)
 .debug_line    0x0000000000032f34        0x0 /opt/microchip/xc32/v3.01/bin/bin/../../lib/gcc/pic32mx/8.3.1/../../../../pic32mx/lib/fpu64/libc.a(ldpowers.o)
 .debug_line    0x0000000000032f34       0xbe /opt/microchip/xc32/v3.01/bin/bin/../../lib/gcc/pic32mx/8.3.1/../../../../pic32mx/lib/fpu64/libmfd.a(s_cos.o)
 .debug_line    0x0000000000032ff2       0x91 /opt/microchip/xc32/v3.01/bin/bin/../../lib/gcc/pic32mx/8.3.1/../../../../pic32mx/lib/fpu64/libmfd.a(s_fabs.o)
 .debug_line    0x0000000000033083       0xc1 /opt/microchip/xc32/v3.01/bin/bin/../../lib/gcc/pic32mx/8.3.1/../../../../pic32mx/lib/fpu64/libmfd.a(s_frexp.o)
 .debug_line    0x0000000000033144       0xbf /opt/microchip/xc32/v3.01/bin/bin/../../lib/gcc/pic32mx/8.3.1/../../../../pic32mx/lib/fpu64/libmfd.a(s_sin.o)
 .debug_line    0x0000000000033203       0xa4 /opt/microchip/xc32/v3.01/bin/bin/../../lib/gcc/pic32mx/8.3.1/../../../../pic32mx/lib/fpu64/libmfd.a(w_atan2.o)
 .debug_line    0x00000000000332a7       0xa8 /opt/microchip/xc32/v3.01/bin/bin/../../lib/gcc/pic32mx/8.3.1/../../../../pic32mx/lib/fpu64/libmfd.a(w_exp.o)
 .debug_line    0x000000000003334f       0xa1 /opt/microchip/xc32/v3.01/bin/bin/../../lib/gcc/pic32mx/8.3.1/../../../../pic32mx/lib/fpu64/libmfd.a(w_log.o)
 .debug_line    0x00000000000333f0       0xa1 /opt/microchip/xc32/v3.01/bin/bin/../../lib/gcc/pic32mx/8.3.1/../../../../pic32mx/lib/fpu64/libmfd.a(w_log10.o)
 .debug_line    0x0000000000033491       0xe5 /opt/microchip/xc32/v3.01/bin/bin/../../lib/gcc/pic32mx/8.3.1/../../../../pic32mx/lib/fpu64/libmfd.a(w_pow.o)
 .debug_line    0x0000000000033576       0x9f /opt/microchip/xc32/v3.01/bin/bin/../../lib/gcc/pic32mx/8.3.1/../../../../pic32mx/lib/fpu64/libmfd.a(pic32_w_sqrt.o)
 .debug_line    0x0000000000033615      0x227 /opt/microchip/xc32/v3.01/bin/bin/../../lib/gcc/pic32mx/8.3.1/../../../../pic32mx/lib/fpu64/libmfd.a(strtod.o)
 .debug_line    0x000000000003383c      0x16d /opt/microchip/xc32/v3.01/bin/bin/../../lib/gcc/pic32mx/8.3.1/../../../../pic32mx/lib/fpu64/libmfd.a(e_atan2.o)
 .debug_line    0x00000000000339a9      0x166 /opt/microchip/xc32/v3.01/bin/bin/../../lib/gcc/pic32mx/8.3.1/../../../../pic32mx/lib/fpu64/libmfd.a(e_exp.o)
 .debug_line    0x0000000000033b0f      0x167 /opt/microchip/xc32/v3.01/bin/bin/../../lib/gcc/pic32mx/8.3.1/../../../../pic32mx/lib/fpu64/libmfd.a(e_log.o)
 .debug_line    0x0000000000033c76       0xe3 /opt/microchip/xc32/v3.01/bin/bin/../../lib/gcc/pic32mx/8.3.1/../../../../pic32mx/lib/fpu64/libmfd.a(e_log10.o)
 .debug_line    0x0000000000033d59      0x40d /opt/microchip/xc32/v3.01/bin/bin/../../lib/gcc/pic32mx/8.3.1/../../../../pic32mx/lib/fpu64/libmfd.a(e_pow.o)
 .debug_line    0x0000000000034166      0x1ba /opt/microchip/xc32/v3.01/bin/bin/../../lib/gcc/pic32mx/8.3.1/../../../../pic32mx/lib/fpu64/libmfd.a(e_rem_pio2.o)
 .debug_line    0x0000000000034320       0xff /opt/microchip/xc32/v3.01/bin/bin/../../lib/gcc/pic32mx/8.3.1/../../../../pic32mx/lib/fpu64/libmfd.a(k_cos.o)
 .debug_line    0x000000000003441f       0xc3 /opt/microchip/xc32/v3.01/bin/bin/../../lib/gcc/pic32mx/8.3.1/../../../../pic32mx/lib/fpu64/libmfd.a(k_sin.o)
 .debug_line    0x00000000000344e2      0x2a5 /opt/microchip/xc32/v3.01/bin/bin/../../lib/gcc/pic32mx/8.3.1/../../../../pic32mx/lib/fpu64/libmfd.a(k_standard.o)
 .debug_line    0x0000000000034787      0x142 /opt/microchip/xc32/v3.01/bin/bin/../../lib/gcc/pic32mx/8.3.1/../../../../pic32mx/lib/fpu64/libmfd.a(s_atan.o)
 .debug_line    0x00000000000348c9      0x13e /opt/microchip/xc32/v3.01/bin/bin/../../lib/gcc/pic32mx/8.3.1/../../../../pic32mx/lib/fpu64/libmfd.a(s_rint.o)
 .debug_line    0x0000000000034a07      0x110 /opt/microchip/xc32/v3.01/bin/bin/../../lib/gcc/pic32mx/8.3.1/../../../../pic32mx/lib/fpu64/libmfd.a(s_scalbn.o)
 .debug_line    0x0000000000034b17      0x290 /opt/microchip/xc32/v3.01/bin/bin/../../lib/gcc/pic32mx/8.3.1/fpu64/libgcc.a(_lshrdi3.o)
 .debug_line    0x0000000000034da7      0x26b /opt/microchip/xc32/v3.01/bin/bin/../../lib/gcc/pic32mx/8.3.1/fpu64/libgcc.a(_cmpdi2.o)
 .debug_line    0x0000000000035012      0x4d9 /opt/microchip/xc32/v3.01/bin/bin/../../lib/gcc/pic32mx/8.3.1/fpu64/libgcc.a(_umoddi3.o)
 .debug_line    0x00000000000354eb      0x1af /opt/microchip/xc32/v3.01/bin/bin/../../lib/gcc/pic32mx/8.3.1/../../../../pic32mx/lib/fpu64/libpic32.a(sbrk.o)
 .debug_line    0x000000000003569a       0xb8 /opt/microchip/xc32/v3.01/bin/bin/../../lib/gcc/pic32mx/8.3.1/../../../../pic32mx/lib/fpu64/libpic32.a(write.o)

.debug_frame    0x0000000000000000     0x7b70
 *.elf(.debug_frame)
 *(.debug_frame)
 .debug_frame   0x0000000000000000      0x1e8 build/pic32mz2048efm/production/_ext/1044926641/drv_sdspi.o
 .debug_frame   0x00000000000001e8      0x164 build/pic32mz2048efm/production/_ext/1044926641/drv_sdspi_driver_interface.o
 .debug_frame   0x000000000000034c       0x2c build/pic32mz2048efm/production/_ext/1044926641/drv_sdspi_file_system.o
 .debug_frame   0x0000000000000378      0x200 build/pic32mz2048efm/production/_ext/1807302558/drv_spi.o
 .debug_frame   0x0000000000000578      0x144 build/pic32mz2048efm/production/_ext/1449458886/drv_usbhs.o
 .debug_frame   0x00000000000006bc      0x3f8 build/pic32mz2048efm/production/_ext/1449458886/drv_usbhs_device.o
 .debug_frame   0x0000000000000ab4      0x25c build/pic32mz2048efm/production/_ext/1928555383/plib_cache.o
 .debug_frame   0x0000000000000d10       0x20 build/pic32mz2048efm/production/_ext/323794519/plib_clk.o
 .debug_frame   0x0000000000000d30       0xf4 build/pic32mz2048efm/production/_ext/1871117435/plib_coretimer.o
 .debug_frame   0x0000000000000e24       0xd4 build/pic32mz2048efm/production/_ext/1447764726/plib_evic.o
 .debug_frame   0x0000000000000ef8      0x140 build/pic32mz2048efm/production/_ext/1447818554/plib_gpio.o
 .debug_frame   0x0000000000001038       0xc8 build/pic32mz2048efm/production/_ext/1683951966/plib_i2c2_master.o
 .debug_frame   0x0000000000001100       0xc8 build/pic32mz2048efm/production/_ext/1683951966/plib_i2c4_master.o
 .debug_frame   0x00000000000011c8       0x9c build/pic32mz2048efm/production/_ext/1448149901/plib_rtcc.o
 .debug_frame   0x0000000000001264       0xe0 build/pic32mz2048efm/production/_ext/1007818685/plib_spi4_master.o
 .debug_frame   0x0000000000001344       0xe0 build/pic32mz2048efm/production/_ext/1007818685/plib_spi5_master.o
 .debug_frame   0x0000000000001424       0xe0 build/pic32mz2048efm/production/_ext/1007818685/plib_spi2_master.o
 .debug_frame   0x0000000000001504       0xe0 build/pic32mz2048efm/production/_ext/1007818685/plib_spi1_master.o
 .debug_frame   0x00000000000015e4       0xcc build/pic32mz2048efm/production/_ext/323810894/plib_tmr2.o
 .debug_frame   0x00000000000016b0       0xcc build/pic32mz2048efm/production/_ext/323810894/plib_tmr3.o
 .debug_frame   0x000000000000177c      0x104 build/pic32mz2048efm/production/_ext/1448221497/plib_uart5.o
 .debug_frame   0x0000000000001880      0x168 build/pic32mz2048efm/production/_ext/1448221497/plib_uart6.o
 .debug_frame   0x00000000000019e8      0x168 build/pic32mz2048efm/production/_ext/1448221497/plib_uart3.o
 .debug_frame   0x0000000000001b50      0x168 build/pic32mz2048efm/production/_ext/1448221497/plib_uart1.o
 .debug_frame   0x0000000000001cb8      0x168 build/pic32mz2048efm/production/_ext/1448221497/plib_uart2.o
 .debug_frame   0x0000000000001e20       0x60 build/pic32mz2048efm/production/_ext/323813500/plib_wdt.o
 .debug_frame   0x0000000000001e80       0x48 build/pic32mz2048efm/production/_ext/1212781247/xc32_monitor.o
 .debug_frame   0x0000000000001ec8      0x188 build/pic32mz2048efm/production/_ext/191419926/sys_cache.o
 .debug_frame   0x0000000000002050       0x40 build/pic32mz2048efm/production/_ext/1336113504/sys_dma.o
 .debug_frame   0x0000000000002090      0x8e4 build/pic32mz2048efm/production/_ext/1225530592/ff.o
 .debug_frame   0x0000000000002974       0x40 build/pic32mz2048efm/production/_ext/1225530592/ffunicode.o
 .debug_frame   0x00000000000029b4      0x11c build/pic32mz2048efm/production/_ext/1545496361/diskio.o
 .debug_frame   0x0000000000002ad0      0x578 build/pic32mz2048efm/production/_ext/1538077638/sys_fs.o
 .debug_frame   0x0000000000003048      0x1ec build/pic32mz2048efm/production/_ext/1538077638/sys_fs_media_manager.o
 .debug_frame   0x0000000000003234      0x3d8 build/pic32mz2048efm/production/_ext/1538077638/sys_fs_fat_interface.o
 .debug_frame   0x000000000000360c       0xa0 build/pic32mz2048efm/production/_ext/2145297452/sys_int.o
 .debug_frame   0x00000000000036ac      0x38c build/pic32mz2048efm/production/_ext/519320518/sys_time.o
 .debug_frame   0x0000000000003a38      0x5a4 build/pic32mz2048efm/production/_ext/196169617/usb_device.o
 .debug_frame   0x0000000000003fdc      0x190 build/pic32mz2048efm/production/_ext/196169617/usb_device_cdc.o
 .debug_frame   0x000000000000416c       0x30 build/pic32mz2048efm/production/_ext/196169617/usb_device_cdc_acm.o
 .debug_frame   0x000000000000419c       0x2c build/pic32mz2048efm/production/_ext/2011215161/tasks.o
 .debug_frame   0x00000000000041c8       0x30 build/pic32mz2048efm/production/_ext/2011215161/initialization.o
 .debug_frame   0x00000000000041f8     0x11fc build/pic32mz2048efm/production/_ext/2011215161/interrupts.o
 .debug_frame   0x00000000000053f4       0x70 build/pic32mz2048efm/production/_ext/2011215161/exceptions.o
 .debug_frame   0x0000000000005464      0x30c build/pic32mz2048efm/production/_ext/858502545/figaro_gpr_fit.o
 .debug_frame   0x0000000000005770       0xa4 build/pic32mz2048efm/production/_ext/858502545/mpfit.o
 .debug_frame   0x0000000000005814       0xbc build/pic32mz2048efm/production/_ext/1230022092/BodyImpedance.o
 .debug_frame   0x00000000000058d0      0xd74 build/pic32mz2048efm/production/_ext/1230022092/ad5940.o
 .debug_frame   0x0000000000006644      0x100 build/pic32mz2048efm/production/_ext/1230022092/pic32Port.o
 .debug_frame   0x0000000000006744       0xa4 build/pic32mz2048efm/production/_ext/1230022092/ad5940main.o
 .debug_frame   0x00000000000067e8       0x6c build/pic32mz2048efm/production/_ext/1360937237/app.o
 .debug_frame   0x0000000000006854       0x28 build/pic32mz2048efm/production/_ext/1360937237/main.o
 .debug_frame   0x000000000000687c      0x218 build/pic32mz2048efm/production/_ext/1360937237/communication.o
 .debug_frame   0x0000000000006a94       0x84 build/pic32mz2048efm/production/_ext/1360937237/eeprom.o
 .debug_frame   0x0000000000006b18      0x140 build/pic32mz2048efm/production/_ext/1360937237/mdot.o
 .debug_frame   0x0000000000006c58       0xb8 build/pic32mz2048efm/production/_ext/1360937237/messaging.o
 .debug_frame   0x0000000000006d10       0xd8 build/pic32mz2048efm/production/_ext/1360937237/nmea.o
 .debug_frame   0x0000000000006de8       0x84 build/pic32mz2048efm/production/_ext/1360937237/stringbuffer.o
 .debug_frame   0x0000000000006e6c       0x88 build/pic32mz2048efm/production/_ext/1360937237/time_keeping.o
 .debug_frame   0x0000000000006ef4       0x74 build/pic32mz2048efm/production/_ext/1360937237/console.o
 .debug_frame   0x0000000000006f68      0x110 build/pic32mz2048efm/production/_ext/1360937237/auxillary_sensors.o
 .debug_frame   0x0000000000007078       0x20 /opt/microchip/xc32/v3.01/bin/bin/../../lib/gcc/pic32mx/8.3.1/fpu64/libgcc.a(_udivdi3.o)
 .debug_frame   0x0000000000007098       0x20 /opt/microchip/xc32/v3.01/bin/bin/../../lib/gcc/pic32mx/8.3.1/../../../../pic32mx/lib/fpu64/libpic32.a(default-on-reset.o)
 .debug_frame   0x00000000000070b8       0x20 /opt/microchip/xc32/v3.01/bin/bin/../../lib/gcc/pic32mx/8.3.1/../../../../pic32mx/lib/fpu64/libpic32.a(default-on-bootstrap.o)
 .debug_frame   0x00000000000070d8       0x20 /opt/microchip/xc32/v3.01/bin/bin/../../lib/gcc/pic32mx/8.3.1/../../../../pic32mx/lib/fpu64/libpic32.a(defaultinterrupt.o)
 .debug_frame   0x00000000000070f8       0x74 /opt/microchip/xc32/v3.01/bin/bin/../../lib/gcc/pic32mx/8.3.1/../../../../pic32mx/lib/fpu64/libc.a(malloc.o)
 .debug_frame   0x000000000000716c       0x20 /opt/microchip/xc32/v3.01/bin/bin/../../lib/gcc/pic32mx/8.3.1/../../../../pic32mx/lib/fpu64/libc.a(memmove.o)
 .debug_frame   0x000000000000718c       0x50 /opt/microchip/xc32/v3.01/bin/bin/../../lib/gcc/pic32mx/8.3.1/../../../../pic32mx/lib/fpu64/libc.a(puts.o)
 .debug_frame   0x00000000000071dc       0x4c /opt/microchip/xc32/v3.01/bin/bin/../../lib/gcc/pic32mx/8.3.1/../../../../pic32mx/lib/fpu64/libc.a(setbuf.o)
 .debug_frame   0x0000000000007228       0x20 /opt/microchip/xc32/v3.01/bin/bin/../../lib/gcc/pic32mx/8.3.1/../../../../pic32mx/lib/fpu64/libc.a(strchr.o)
 .debug_frame   0x0000000000007248       0x20 /opt/microchip/xc32/v3.01/bin/bin/../../lib/gcc/pic32mx/8.3.1/../../../../pic32mx/lib/fpu64/libc.a(strncmp.o)
 .debug_frame   0x0000000000007268       0x20 /opt/microchip/xc32/v3.01/bin/bin/../../lib/gcc/pic32mx/8.3.1/../../../../pic32mx/lib/fpu64/libc.a(strncpy.o)
 .debug_frame   0x0000000000007288       0x68 /opt/microchip/xc32/v3.01/bin/bin/../../lib/gcc/pic32mx/8.3.1/../../../../pic32mx/lib/fpu64/libc.a(strtol.o)
 .debug_frame   0x00000000000072f0       0x2c /opt/microchip/xc32/v3.01/bin/bin/../../lib/gcc/pic32mx/8.3.1/../../../../pic32mx/lib/fpu64/libc.a(printf_cdgGnopsuxX.eo)
 .debug_frame   0x000000000000731c       0x2c /opt/microchip/xc32/v3.01/bin/bin/../../lib/gcc/pic32mx/8.3.1/../../../../pic32mx/lib/fpu64/libc.a(sprintf_cdnopsuxX.eo)
 .debug_frame   0x0000000000007348       0x2c /opt/microchip/xc32/v3.01/bin/bin/../../lib/gcc/pic32mx/8.3.1/../../../../pic32mx/lib/fpu64/libc.a(sprintf_fF.eo)
 .debug_frame   0x0000000000007374       0x34 /opt/microchip/xc32/v3.01/bin/bin/../../lib/gcc/pic32mx/8.3.1/../../../../pic32mx/lib/fpu64/libc.a(_fputc_simple.o)
 .debug_frame   0x00000000000073a8       0x3c /opt/microchip/xc32/v3.01/bin/bin/../../lib/gcc/pic32mx/8.3.1/../../../../pic32mx/lib/fpu64/libc.a(buf.o)
 .debug_frame   0x00000000000073e4      0x120 /opt/microchip/xc32/v3.01/bin/bin/../../lib/gcc/pic32mx/8.3.1/../../../../pic32mx/lib/fpu64/libc.a(ctypef.o)
 .debug_frame   0x0000000000007504       0x7c /opt/microchip/xc32/v3.01/bin/bin/../../lib/gcc/pic32mx/8.3.1/../../../../pic32mx/lib/fpu64/libc.a(doprnt_cdgGnopsuxX.eo)
 .debug_frame   0x0000000000007580       0x40 /opt/microchip/xc32/v3.01/bin/bin/../../lib/gcc/pic32mx/8.3.1/../../../../pic32mx/lib/fpu64/libc.a(doprnt_cdnopsuxX.eo)
 .debug_frame   0x00000000000075c0       0x6c /opt/microchip/xc32/v3.01/bin/bin/../../lib/gcc/pic32mx/8.3.1/../../../../pic32mx/lib/fpu64/libc.a(doprnt_fF.eo)
 .debug_frame   0x000000000000762c       0x30 /opt/microchip/xc32/v3.01/bin/bin/../../lib/gcc/pic32mx/8.3.1/../../../../pic32mx/lib/fpu64/libc.a(_flsbuf_simple.o)
 .debug_frame   0x000000000000765c       0x2c /opt/microchip/xc32/v3.01/bin/bin/../../lib/gcc/pic32mx/8.3.1/../../../../pic32mx/lib/fpu64/libmfd.a(s_cos.o)
 .debug_frame   0x0000000000007688       0x20 /opt/microchip/xc32/v3.01/bin/bin/../../lib/gcc/pic32mx/8.3.1/../../../../pic32mx/lib/fpu64/libmfd.a(s_fabs.o)
 .debug_frame   0x00000000000076a8       0x20 /opt/microchip/xc32/v3.01/bin/bin/../../lib/gcc/pic32mx/8.3.1/../../../../pic32mx/lib/fpu64/libmfd.a(s_frexp.o)
 .debug_frame   0x00000000000076c8       0x2c /opt/microchip/xc32/v3.01/bin/bin/../../lib/gcc/pic32mx/8.3.1/../../../../pic32mx/lib/fpu64/libmfd.a(s_sin.o)
 .debug_frame   0x00000000000076f4       0x34 /opt/microchip/xc32/v3.01/bin/bin/../../lib/gcc/pic32mx/8.3.1/../../../../pic32mx/lib/fpu64/libmfd.a(w_atan2.o)
 .debug_frame   0x0000000000007728       0x30 /opt/microchip/xc32/v3.01/bin/bin/../../lib/gcc/pic32mx/8.3.1/../../../../pic32mx/lib/fpu64/libmfd.a(w_exp.o)
 .debug_frame   0x0000000000007758       0x30 /opt/microchip/xc32/v3.01/bin/bin/../../lib/gcc/pic32mx/8.3.1/../../../../pic32mx/lib/fpu64/libmfd.a(w_log.o)
 .debug_frame   0x0000000000007788       0x30 /opt/microchip/xc32/v3.01/bin/bin/../../lib/gcc/pic32mx/8.3.1/../../../../pic32mx/lib/fpu64/libmfd.a(w_log10.o)
 .debug_frame   0x00000000000077b8       0x2c /opt/microchip/xc32/v3.01/bin/bin/../../lib/gcc/pic32mx/8.3.1/../../../../pic32mx/lib/fpu64/libmfd.a(w_pow.o)
 .debug_frame   0x00000000000077e4       0x2c /opt/microchip/xc32/v3.01/bin/bin/../../lib/gcc/pic32mx/8.3.1/../../../../pic32mx/lib/fpu64/libmfd.a(pic32_w_sqrt.o)
 .debug_frame   0x0000000000007810       0x2c /opt/microchip/xc32/v3.01/bin/bin/../../lib/gcc/pic32mx/8.3.1/../../../../pic32mx/lib/fpu64/libmfd.a(strtod.o)
 .debug_frame   0x000000000000783c       0x30 /opt/microchip/xc32/v3.01/bin/bin/../../lib/gcc/pic32mx/8.3.1/../../../../pic32mx/lib/fpu64/libmfd.a(e_atan2.o)
 .debug_frame   0x000000000000786c       0x2c /opt/microchip/xc32/v3.01/bin/bin/../../lib/gcc/pic32mx/8.3.1/../../../../pic32mx/lib/fpu64/libmfd.a(e_exp.o)
 .debug_frame   0x0000000000007898       0x20 /opt/microchip/xc32/v3.01/bin/bin/../../lib/gcc/pic32mx/8.3.1/../../../../pic32mx/lib/fpu64/libmfd.a(e_log.o)
 .debug_frame   0x00000000000078b8       0x30 /opt/microchip/xc32/v3.01/bin/bin/../../lib/gcc/pic32mx/8.3.1/../../../../pic32mx/lib/fpu64/libmfd.a(e_log10.o)
 .debug_frame   0x00000000000078e8       0x34 /opt/microchip/xc32/v3.01/bin/bin/../../lib/gcc/pic32mx/8.3.1/../../../../pic32mx/lib/fpu64/libmfd.a(e_pow.o)
 .debug_frame   0x000000000000791c       0x20 /opt/microchip/xc32/v3.01/bin/bin/../../lib/gcc/pic32mx/8.3.1/../../../../pic32mx/lib/fpu64/libmfd.a(e_rem_pio2.o)
 .debug_frame   0x000000000000793c       0x2c /opt/microchip/xc32/v3.01/bin/bin/../../lib/gcc/pic32mx/8.3.1/../../../../pic32mx/lib/fpu64/libmfd.a(k_cos.o)
 .debug_frame   0x0000000000007968       0x20 /opt/microchip/xc32/v3.01/bin/bin/../../lib/gcc/pic32mx/8.3.1/../../../../pic32mx/lib/fpu64/libmfd.a(k_sin.o)
 .debug_frame   0x0000000000007988       0x34 /opt/microchip/xc32/v3.01/bin/bin/../../lib/gcc/pic32mx/8.3.1/../../../../pic32mx/lib/fpu64/libmfd.a(k_standard.o)
 .debug_frame   0x00000000000079bc       0x2c /opt/microchip/xc32/v3.01/bin/bin/../../lib/gcc/pic32mx/8.3.1/../../../../pic32mx/lib/fpu64/libmfd.a(s_atan.o)
 .debug_frame   0x00000000000079e8       0x2c /opt/microchip/xc32/v3.01/bin/bin/../../lib/gcc/pic32mx/8.3.1/../../../../pic32mx/lib/fpu64/libmfd.a(s_rint.o)
 .debug_frame   0x0000000000007a14       0x30 /opt/microchip/xc32/v3.01/bin/bin/../../lib/gcc/pic32mx/8.3.1/../../../../pic32mx/lib/fpu64/libmfd.a(s_scalbn.o)
 .debug_frame   0x0000000000007a44       0x20 /opt/microchip/xc32/v3.01/bin/bin/../../lib/gcc/pic32mx/8.3.1/fpu64/libgcc.a(_lshrdi3.o)
 .debug_frame   0x0000000000007a64       0x20 /opt/microchip/xc32/v3.01/bin/bin/../../lib/gcc/pic32mx/8.3.1/fpu64/libgcc.a(_cmpdi2.o)
 .debug_frame   0x0000000000007a84       0x20 /opt/microchip/xc32/v3.01/bin/bin/../../lib/gcc/pic32mx/8.3.1/fpu64/libgcc.a(_umoddi3.o)
 .debug_frame   0x0000000000007aa4       0x98 /opt/microchip/xc32/v3.01/bin/bin/../../lib/gcc/pic32mx/8.3.1/../../../../pic32mx/lib/fpu64/libpic32.a(sbrk.o)
 .debug_frame   0x0000000000007b3c       0x34 /opt/microchip/xc32/v3.01/bin/bin/../../lib/gcc/pic32mx/8.3.1/../../../../pic32mx/lib/fpu64/libpic32.a(write.o)

.debug_str      0x0000000000000000   0x71b36a
 *.elf(.debug_str)
 *(.debug_str)
 .debug_str     0x0000000000000000    0x219cb build/pic32mz2048efm/production/_ext/1044926641/drv_sdspi.o
 .debug_str     0x00000000000219cb    0x20fb6 build/pic32mz2048efm/production/_ext/1044926641/drv_sdspi_driver_interface.o
 .debug_str     0x0000000000042981    0x1ed7b build/pic32mz2048efm/production/_ext/1044926641/drv_sdspi_file_system.o
 .debug_str     0x00000000000616fc    0x218e9 build/pic32mz2048efm/production/_ext/1807302558/drv_spi.o
 .debug_str     0x0000000000082fe5    0x22c44 build/pic32mz2048efm/production/_ext/1449458886/drv_usbhs.o
 .debug_str     0x00000000000a5c29    0x23d48 build/pic32mz2048efm/production/_ext/1449458886/drv_usbhs_device.o
 .debug_str     0x00000000000c9971    0x1ec75 build/pic32mz2048efm/production/_ext/1928555383/plib_cache.o
 .debug_str     0x00000000000e85e6       0x7c build/pic32mz2048efm/production/_ext/1928555383/plib_cache_pic32mz.o
 .debug_str     0x00000000000e8662    0x1e805 build/pic32mz2048efm/production/_ext/323794519/plib_clk.o
 .debug_str     0x0000000000106e67    0x1e8fe build/pic32mz2048efm/production/_ext/1871117435/plib_coretimer.o
 .debug_str     0x0000000000125765    0x1fae6 build/pic32mz2048efm/production/_ext/1447764726/plib_evic.o
 .debug_str     0x000000000014524b    0x1f13e build/pic32mz2048efm/production/_ext/1447818554/plib_gpio.o
 .debug_str     0x0000000000164389    0x1eb98 build/pic32mz2048efm/production/_ext/1683951966/plib_i2c2_master.o
 .debug_str     0x0000000000182f21    0x1eb98 build/pic32mz2048efm/production/_ext/1683951966/plib_i2c4_master.o
 .debug_str     0x00000000001a1ab9    0x1eaa0 build/pic32mz2048efm/production/_ext/1448149901/plib_rtcc.o
 .debug_str     0x00000000001c0559    0x1eb50 build/pic32mz2048efm/production/_ext/1007818685/plib_spi4_master.o
 .debug_str     0x00000000001df0a9    0x1eb50 build/pic32mz2048efm/production/_ext/1007818685/plib_spi5_master.o
 .debug_str     0x00000000001fdbf9    0x1eb50 build/pic32mz2048efm/production/_ext/1007818685/plib_spi2_master.o
 .debug_str     0x000000000021c749    0x1eb50 build/pic32mz2048efm/production/_ext/1007818685/plib_spi1_master.o
 .debug_str     0x000000000023b299    0x1e915 build/pic32mz2048efm/production/_ext/323810894/plib_tmr2.o
 .debug_str     0x0000000000259bae    0x1e915 build/pic32mz2048efm/production/_ext/323810894/plib_tmr3.o
 .debug_str     0x00000000002784c3    0x1eafa build/pic32mz2048efm/production/_ext/1448221497/plib_uart5.o
 .debug_str     0x0000000000296fbd    0x1ec0b build/pic32mz2048efm/production/_ext/1448221497/plib_uart6.o
 .debug_str     0x00000000002b5bc8    0x1ec0b build/pic32mz2048efm/production/_ext/1448221497/plib_uart3.o
 .debug_str     0x00000000002d47d3    0x1ec0b build/pic32mz2048efm/production/_ext/1448221497/plib_uart1.o
 .debug_str     0x00000000002f33de    0x1ec0b build/pic32mz2048efm/production/_ext/1448221497/plib_uart2.o
 .debug_str     0x0000000000311fe9    0x1e84f build/pic32mz2048efm/production/_ext/323813500/plib_wdt.o
 .debug_str     0x0000000000330838    0x213ca build/pic32mz2048efm/production/_ext/1212781247/xc32_monitor.o
 .debug_str     0x0000000000351c02    0x1ea5b build/pic32mz2048efm/production/_ext/191419926/sys_cache.o
 .debug_str     0x000000000037065d      0x5ee build/pic32mz2048efm/production/_ext/1336113504/sys_dma.o
 .debug_str     0x0000000000370c4b    0x1f04a build/pic32mz2048efm/production/_ext/1225530592/ff.o
 .debug_str     0x000000000038fc95    0x1e86c build/pic32mz2048efm/production/_ext/1225530592/ffunicode.o
 .debug_str     0x00000000003ae501    0x1eeb4 build/pic32mz2048efm/production/_ext/1545496361/diskio.o
 .debug_str     0x00000000003cd3b5    0x1f846 build/pic32mz2048efm/production/_ext/1538077638/sys_fs.o
 .debug_str     0x00000000003ecbfb    0x1f6a5 build/pic32mz2048efm/production/_ext/1538077638/sys_fs_media_manager.o
 .debug_str     0x000000000040c2a0    0x1ef6e build/pic32mz2048efm/production/_ext/1538077638/sys_fs_fat_interface.o
 .debug_str     0x000000000042b20e    0x1fad7 build/pic32mz2048efm/production/_ext/2145297452/sys_int.o
 .debug_str     0x000000000044ace5    0x20308 build/pic32mz2048efm/production/_ext/519320518/sys_time.o
 .debug_str     0x000000000046afed    0x223f3 build/pic32mz2048efm/production/_ext/196169617/usb_device.o
 .debug_str     0x000000000048d3e0    0x20a27 build/pic32mz2048efm/production/_ext/196169617/usb_device_cdc.o
 .debug_str     0x00000000004ade07    0x1f651 build/pic32mz2048efm/production/_ext/196169617/usb_device_cdc_acm.o
 .debug_str     0x00000000004cd458    0x21e03 build/pic32mz2048efm/production/_ext/2011215161/usb_device_init_data.o
 .debug_str     0x00000000004ef25b    0x213d3 build/pic32mz2048efm/production/_ext/2011215161/tasks.o
 .debug_str     0x000000000051062e    0x23127 build/pic32mz2048efm/production/_ext/2011215161/initialization.o
 .debug_str     0x0000000000533755    0x218de build/pic32mz2048efm/production/_ext/2011215161/interrupts.o
 .debug_str     0x0000000000555033    0x21725 build/pic32mz2048efm/production/_ext/2011215161/exceptions.o
 .debug_str     0x0000000000576758      0x95c build/pic32mz2048efm/production/_ext/858502545/figaro_gpr_fit.o
 .debug_str     0x00000000005770b4      0x3e0 build/pic32mz2048efm/production/_ext/858502545/figaro_gpr_params.o
 .debug_str     0x0000000000577494      0x7f6 build/pic32mz2048efm/production/_ext/858502545/mpfit.o
 .debug_str     0x0000000000577c8a     0x103a build/pic32mz2048efm/production/_ext/1230022092/BodyImpedance.o
 .debug_str     0x0000000000578cc4     0x1e3f build/pic32mz2048efm/production/_ext/1230022092/ad5940.o
 .debug_str     0x000000000057ab03    0x21dfd build/pic32mz2048efm/production/_ext/1230022092/pic32Port.o
 .debug_str     0x000000000059c900    0x21d11 build/pic32mz2048efm/production/_ext/1230022092/ad5940main.o
 .debug_str     0x00000000005be611    0x21e7e build/pic32mz2048efm/production/_ext/1360937237/app.o
 .debug_str     0x00000000005e048f    0x21388 build/pic32mz2048efm/production/_ext/1360937237/main.o
 .debug_str     0x0000000000601817    0x21a96 build/pic32mz2048efm/production/_ext/1360937237/communication.o
 .debug_str     0x00000000006232ad    0x2178a build/pic32mz2048efm/production/_ext/1360937237/eeprom.o
 .debug_str     0x0000000000644a37    0x21d5b build/pic32mz2048efm/production/_ext/1360937237/mdot.o
 .debug_str     0x0000000000666792    0x219ab build/pic32mz2048efm/production/_ext/1360937237/messaging.o
 .debug_str     0x000000000068813d    0x21888 build/pic32mz2048efm/production/_ext/1360937237/nmea.o
 .debug_str     0x00000000006a99c5      0x5c3 build/pic32mz2048efm/production/_ext/1360937237/stringbuffer.o
 .debug_str     0x00000000006a9f88    0x21b66 build/pic32mz2048efm/production/_ext/1360937237/time_keeping.o
 .debug_str     0x00000000006cbaee    0x213e1 build/pic32mz2048efm/production/_ext/1360937237/console.o
 .debug_str     0x00000000006ececf    0x21946 build/pic32mz2048efm/production/_ext/1360937237/auxillary_sensors.o
 .debug_str     0x000000000070e815      0x552 /opt/microchip/xc32/v3.01/bin/bin/../../lib/gcc/pic32mx/8.3.1/fpu64/libgcc.a(_udivdi3.o)
 .debug_str     0x000000000070ed67      0x39a /opt/microchip/xc32/v3.01/bin/bin/../../lib/gcc/pic32mx/8.3.1/../../../../pic32mx/lib/fpu64/libpic32.a(default-on-reset.o)
 .debug_str     0x000000000070f101      0x3a2 /opt/microchip/xc32/v3.01/bin/bin/../../lib/gcc/pic32mx/8.3.1/../../../../pic32mx/lib/fpu64/libpic32.a(default-on-bootstrap.o)
 .debug_str     0x000000000070f4a3      0x3b4 /opt/microchip/xc32/v3.01/bin/bin/../../lib/gcc/pic32mx/8.3.1/../../../../pic32mx/lib/fpu64/libpic32.a(defaultinterrupt.o)
 .debug_str     0x000000000070f857      0x3bd /opt/microchip/xc32/v3.01/bin/bin/../../lib/gcc/pic32mx/8.3.1/../../../../pic32mx/lib/fpu64/libc.a(_iob.o)
 .debug_str     0x000000000070fc14      0x3d3 /opt/microchip/xc32/v3.01/bin/bin/../../lib/gcc/pic32mx/8.3.1/../../../../pic32mx/lib/fpu64/libc.a(malloc.o)
 .debug_str     0x000000000070ffe7      0x3c8 /opt/microchip/xc32/v3.01/bin/bin/../../lib/gcc/pic32mx/8.3.1/../../../../pic32mx/lib/fpu64/libc.a(memmove.o)
 .debug_str     0x00000000007103af      0x3c8 /opt/microchip/xc32/v3.01/bin/bin/../../lib/gcc/pic32mx/8.3.1/../../../../pic32mx/lib/fpu64/libc.a(puts.o)
 .debug_str     0x0000000000710777      0x3ce /opt/microchip/xc32/v3.01/bin/bin/../../lib/gcc/pic32mx/8.3.1/../../../../pic32mx/lib/fpu64/libc.a(setbuf.o)
 .debug_str     0x0000000000710b45      0x3c6 /opt/microchip/xc32/v3.01/bin/bin/../../lib/gcc/pic32mx/8.3.1/../../../../pic32mx/lib/fpu64/libc.a(strchr.o)
 .debug_str     0x0000000000710f0b      0x3c8 /opt/microchip/xc32/v3.01/bin/bin/../../lib/gcc/pic32mx/8.3.1/../../../../pic32mx/lib/fpu64/libc.a(strncmp.o)
 .debug_str     0x00000000007112d3      0x3c8 /opt/microchip/xc32/v3.01/bin/bin/../../lib/gcc/pic32mx/8.3.1/../../../../pic32mx/lib/fpu64/libc.a(strncpy.o)
 .debug_str     0x000000000071169b      0x3ce /opt/microchip/xc32/v3.01/bin/bin/../../lib/gcc/pic32mx/8.3.1/../../../../pic32mx/lib/fpu64/libc.a(strtol.o)
 .debug_str     0x0000000000711a69      0x3d3 /opt/microchip/xc32/v3.01/bin/bin/../../lib/gcc/pic32mx/8.3.1/../../../../pic32mx/lib/fpu64/libc.a(printf_cdgGnopsuxX.eo)
 .debug_str     0x0000000000711e3c      0x3d3 /opt/microchip/xc32/v3.01/bin/bin/../../lib/gcc/pic32mx/8.3.1/../../../../pic32mx/lib/fpu64/libc.a(sprintf_cdnopsuxX.eo)
 .debug_str     0x000000000071220f      0x3cc /opt/microchip/xc32/v3.01/bin/bin/../../lib/gcc/pic32mx/8.3.1/../../../../pic32mx/lib/fpu64/libc.a(sprintf_fF.eo)
 .debug_str     0x00000000007125db      0x3c4 /opt/microchip/xc32/v3.01/bin/bin/../../lib/gcc/pic32mx/8.3.1/../../../../pic32mx/lib/fpu64/libc.a(_fputc_simple.o)
 .debug_str     0x000000000071299f      0x3ce /opt/microchip/xc32/v3.01/bin/bin/../../lib/gcc/pic32mx/8.3.1/../../../../pic32mx/lib/fpu64/libc.a(buf.o)
 .debug_str     0x0000000000712d6d      0x3be /opt/microchip/xc32/v3.01/bin/bin/../../lib/gcc/pic32mx/8.3.1/../../../../pic32mx/lib/fpu64/libc.a(ctype.o)
 .debug_str     0x000000000071312b      0x44a /opt/microchip/xc32/v3.01/bin/bin/../../lib/gcc/pic32mx/8.3.1/../../../../pic32mx/lib/fpu64/libc.a(ctypef.o)
 .debug_str     0x0000000000713575      0x3be /opt/microchip/xc32/v3.01/bin/bin/../../lib/gcc/pic32mx/8.3.1/../../../../pic32mx/lib/fpu64/libc.a(errno.o)
 .debug_str     0x0000000000713933      0x3e8 /opt/microchip/xc32/v3.01/bin/bin/../../lib/gcc/pic32mx/8.3.1/../../../../pic32mx/lib/fpu64/libc.a(doprnt_cdgGnopsuxX.eo)
 .debug_str     0x0000000000713d1b      0x3d3 /opt/microchip/xc32/v3.01/bin/bin/../../lib/gcc/pic32mx/8.3.1/../../../../pic32mx/lib/fpu64/libc.a(doprnt_cdnopsuxX.eo)
 .debug_str     0x00000000007140ee      0x3df /opt/microchip/xc32/v3.01/bin/bin/../../lib/gcc/pic32mx/8.3.1/../../../../pic32mx/lib/fpu64/libc.a(doprnt_fF.eo)
 .debug_str     0x00000000007144cd      0x3c7 /opt/microchip/xc32/v3.01/bin/bin/../../lib/gcc/pic32mx/8.3.1/../../../../pic32mx/lib/fpu64/libc.a(_flsbuf_simple.o)
 .debug_str     0x0000000000714894      0x3c1 /opt/microchip/xc32/v3.01/bin/bin/../../lib/gcc/pic32mx/8.3.1/../../../../pic32mx/lib/fpu64/libc.a(ldpowers.o)
 .debug_str     0x0000000000714c55      0x378 /opt/microchip/xc32/v3.01/bin/bin/../../lib/gcc/pic32mx/8.3.1/../../../../pic32mx/lib/fpu64/libmfd.a(s_cos.o)
 .debug_str     0x0000000000714fcd      0x37a /opt/microchip/xc32/v3.01/bin/bin/../../lib/gcc/pic32mx/8.3.1/../../../../pic32mx/lib/fpu64/libmfd.a(s_fabs.o)
 .debug_str     0x0000000000715347      0x37c /opt/microchip/xc32/v3.01/bin/bin/../../lib/gcc/pic32mx/8.3.1/../../../../pic32mx/lib/fpu64/libmfd.a(s_frexp.o)
 .debug_str     0x00000000007156c3      0x378 /opt/microchip/xc32/v3.01/bin/bin/../../lib/gcc/pic32mx/8.3.1/../../../../pic32mx/lib/fpu64/libmfd.a(s_sin.o)
 .debug_str     0x0000000000715a3b      0x37c /opt/microchip/xc32/v3.01/bin/bin/../../lib/gcc/pic32mx/8.3.1/../../../../pic32mx/lib/fpu64/libmfd.a(w_atan2.o)
 .debug_str     0x0000000000715db7      0x378 /opt/microchip/xc32/v3.01/bin/bin/../../lib/gcc/pic32mx/8.3.1/../../../../pic32mx/lib/fpu64/libmfd.a(w_exp.o)
 .debug_str     0x000000000071612f      0x378 /opt/microchip/xc32/v3.01/bin/bin/../../lib/gcc/pic32mx/8.3.1/../../../../pic32mx/lib/fpu64/libmfd.a(w_log.o)
 .debug_str     0x00000000007164a7      0x37c /opt/microchip/xc32/v3.01/bin/bin/../../lib/gcc/pic32mx/8.3.1/../../../../pic32mx/lib/fpu64/libmfd.a(w_log10.o)
 .debug_str     0x0000000000716823      0x378 /opt/microchip/xc32/v3.01/bin/bin/../../lib/gcc/pic32mx/8.3.1/../../../../pic32mx/lib/fpu64/libmfd.a(w_pow.o)
 .debug_str     0x0000000000716b9b      0x386 /opt/microchip/xc32/v3.01/bin/bin/../../lib/gcc/pic32mx/8.3.1/../../../../pic32mx/lib/fpu64/libmfd.a(pic32_w_sqrt.o)
 .debug_str     0x0000000000716f21      0x380 /opt/microchip/xc32/v3.01/bin/bin/../../lib/gcc/pic32mx/8.3.1/../../../../pic32mx/lib/fpu64/libmfd.a(strtod.o)
 .debug_str     0x00000000007172a1      0x384 /opt/microchip/xc32/v3.01/bin/bin/../../lib/gcc/pic32mx/8.3.1/../../../../pic32mx/lib/fpu64/libmfd.a(e_atan2.o)
 .debug_str     0x0000000000717625      0x380 /opt/microchip/xc32/v3.01/bin/bin/../../lib/gcc/pic32mx/8.3.1/../../../../pic32mx/lib/fpu64/libmfd.a(e_exp.o)
 .debug_str     0x00000000007179a5      0x380 /opt/microchip/xc32/v3.01/bin/bin/../../lib/gcc/pic32mx/8.3.1/../../../../pic32mx/lib/fpu64/libmfd.a(e_log.o)
 .debug_str     0x0000000000717d25      0x384 /opt/microchip/xc32/v3.01/bin/bin/../../lib/gcc/pic32mx/8.3.1/../../../../pic32mx/lib/fpu64/libmfd.a(e_log10.o)
 .debug_str     0x00000000007180a9      0x380 /opt/microchip/xc32/v3.01/bin/bin/../../lib/gcc/pic32mx/8.3.1/../../../../pic32mx/lib/fpu64/libmfd.a(e_pow.o)
 .debug_str     0x0000000000718429      0x38a /opt/microchip/xc32/v3.01/bin/bin/../../lib/gcc/pic32mx/8.3.1/../../../../pic32mx/lib/fpu64/libmfd.a(e_rem_pio2.o)
 .debug_str     0x00000000007187b3      0x37f /opt/microchip/xc32/v3.01/bin/bin/../../lib/gcc/pic32mx/8.3.1/../../../../pic32mx/lib/fpu64/libmfd.a(k_cos.o)
 .debug_str     0x0000000000718b32      0x37f /opt/microchip/xc32/v3.01/bin/bin/../../lib/gcc/pic32mx/8.3.1/../../../../pic32mx/lib/fpu64/libmfd.a(k_sin.o)
 .debug_str     0x0000000000718eb1      0x389 /opt/microchip/xc32/v3.01/bin/bin/../../lib/gcc/pic32mx/8.3.1/../../../../pic32mx/lib/fpu64/libmfd.a(k_standard.o)
 .debug_str     0x000000000071923a      0x37a /opt/microchip/xc32/v3.01/bin/bin/../../lib/gcc/pic32mx/8.3.1/../../../../pic32mx/lib/fpu64/libmfd.a(s_atan.o)
 .debug_str     0x00000000007195b4      0x378 /opt/microchip/xc32/v3.01/bin/bin/../../lib/gcc/pic32mx/8.3.1/../../../../pic32mx/lib/fpu64/libmfd.a(s_rint.o)
 .debug_str     0x000000000071992c      0x387 /opt/microchip/xc32/v3.01/bin/bin/../../lib/gcc/pic32mx/8.3.1/../../../../pic32mx/lib/fpu64/libmfd.a(s_scalbn.o)
 .debug_str     0x0000000000719cb3      0x515 /opt/microchip/xc32/v3.01/bin/bin/../../lib/gcc/pic32mx/8.3.1/fpu64/libgcc.a(_lshrdi3.o)
 .debug_str     0x000000000071a1c8      0x50b /opt/microchip/xc32/v3.01/bin/bin/../../lib/gcc/pic32mx/8.3.1/fpu64/libgcc.a(_cmpdi2.o)
 .debug_str     0x000000000071a6d3      0x552 /opt/microchip/xc32/v3.01/bin/bin/../../lib/gcc/pic32mx/8.3.1/fpu64/libgcc.a(_umoddi3.o)
 .debug_str     0x000000000071ac25      0x3ba /opt/microchip/xc32/v3.01/bin/bin/../../lib/gcc/pic32mx/8.3.1/../../../../pic32mx/lib/fpu64/libpic32.a(sbrk.o)
 .debug_str     0x000000000071afdf      0x38b /opt/microchip/xc32/v3.01/bin/bin/../../lib/gcc/pic32mx/8.3.1/../../../../pic32mx/lib/fpu64/libpic32.a(write.o)

.debug_loc      0x0000000000000000    0x366f7
 *.elf(.debug_loc)
 *(.debug_loc)
 .debug_loc     0x0000000000000000     0x281c build/pic32mz2048efm/production/_ext/1044926641/drv_sdspi.o
 .debug_loc     0x000000000000281c      0x772 build/pic32mz2048efm/production/_ext/1044926641/drv_sdspi_driver_interface.o
 .debug_loc     0x0000000000002f8e       0x25 build/pic32mz2048efm/production/_ext/1044926641/drv_sdspi_file_system.o
 .debug_loc     0x0000000000002fb3     0x188c build/pic32mz2048efm/production/_ext/1807302558/drv_spi.o
 .debug_loc     0x000000000000483f      0xbe7 build/pic32mz2048efm/production/_ext/1449458886/drv_usbhs.o
 .debug_loc     0x0000000000005426     0x6e60 build/pic32mz2048efm/production/_ext/1449458886/drv_usbhs_device.o
 .debug_loc     0x000000000000c286      0x284 build/pic32mz2048efm/production/_ext/1928555383/plib_cache.o
 .debug_loc     0x000000000000c50a       0xb3 build/pic32mz2048efm/production/_ext/1871117435/plib_coretimer.o
 .debug_loc     0x000000000000c5bd       0xc5 build/pic32mz2048efm/production/_ext/1447764726/plib_evic.o
 .debug_loc     0x000000000000c682      0x4a0 build/pic32mz2048efm/production/_ext/1447818554/plib_gpio.o
 .debug_loc     0x000000000000cb22       0xda build/pic32mz2048efm/production/_ext/1683951966/plib_i2c2_master.o
 .debug_loc     0x000000000000cbfc       0xda build/pic32mz2048efm/production/_ext/1683951966/plib_i2c4_master.o
 .debug_loc     0x000000000000ccd6      0x2cc build/pic32mz2048efm/production/_ext/1448149901/plib_rtcc.o
 .debug_loc     0x000000000000cfa2      0x3f3 build/pic32mz2048efm/production/_ext/1007818685/plib_spi4_master.o
 .debug_loc     0x000000000000d395      0x3f3 build/pic32mz2048efm/production/_ext/1007818685/plib_spi5_master.o
 .debug_loc     0x000000000000d788      0x3f3 build/pic32mz2048efm/production/_ext/1007818685/plib_spi2_master.o
 .debug_loc     0x000000000000db7b      0x3f3 build/pic32mz2048efm/production/_ext/1007818685/plib_spi1_master.o
 .debug_loc     0x000000000000df6e       0x16 build/pic32mz2048efm/production/_ext/323810894/plib_tmr2.o
 .debug_loc     0x000000000000df84       0x16 build/pic32mz2048efm/production/_ext/323810894/plib_tmr3.o
 .debug_loc     0x000000000000df9a      0x5c8 build/pic32mz2048efm/production/_ext/1448221497/plib_uart5.o
 .debug_loc     0x000000000000e562      0x3ec build/pic32mz2048efm/production/_ext/1448221497/plib_uart6.o
 .debug_loc     0x000000000000e94e      0x3ec build/pic32mz2048efm/production/_ext/1448221497/plib_uart3.o
 .debug_loc     0x000000000000ed3a      0x3ec build/pic32mz2048efm/production/_ext/1448221497/plib_uart1.o
 .debug_loc     0x000000000000f126      0x3ec build/pic32mz2048efm/production/_ext/1448221497/plib_uart2.o
 .debug_loc     0x000000000000f512       0x64 build/pic32mz2048efm/production/_ext/1212781247/xc32_monitor.o
 .debug_loc     0x000000000000f576      0x17a build/pic32mz2048efm/production/_ext/191419926/sys_cache.o
 .debug_loc     0x000000000000f6f0     0x8a5e build/pic32mz2048efm/production/_ext/1225530592/ff.o
 .debug_loc     0x000000000001814e      0x2b2 build/pic32mz2048efm/production/_ext/1225530592/ffunicode.o
 .debug_loc     0x0000000000018400      0x8b7 build/pic32mz2048efm/production/_ext/1545496361/diskio.o
 .debug_loc     0x0000000000018cb7     0x471e build/pic32mz2048efm/production/_ext/1538077638/sys_fs.o
 .debug_loc     0x000000000001d3d5     0x1415 build/pic32mz2048efm/production/_ext/1538077638/sys_fs_media_manager.o
 .debug_loc     0x000000000001e7ea     0x16dc build/pic32mz2048efm/production/_ext/1538077638/sys_fs_fat_interface.o
 .debug_loc     0x000000000001fec6       0xe8 build/pic32mz2048efm/production/_ext/2145297452/sys_int.o
 .debug_loc     0x000000000001ffae     0x17d3 build/pic32mz2048efm/production/_ext/519320518/sys_time.o
 .debug_loc     0x0000000000021781     0x2900 build/pic32mz2048efm/production/_ext/196169617/usb_device.o
 .debug_loc     0x0000000000024081     0x1491 build/pic32mz2048efm/production/_ext/196169617/usb_device_cdc.o
 .debug_loc     0x0000000000025512      0x25a build/pic32mz2048efm/production/_ext/196169617/usb_device_cdc_acm.o
 .debug_loc     0x000000000002576c       0x25 build/pic32mz2048efm/production/_ext/2011215161/initialization.o
 .debug_loc     0x0000000000025791     0x1df5 build/pic32mz2048efm/production/_ext/858502545/figaro_gpr_fit.o
 .debug_loc     0x0000000000027586     0x6aac build/pic32mz2048efm/production/_ext/858502545/mpfit.o
 .debug_loc     0x000000000002e032      0x7a4 build/pic32mz2048efm/production/_ext/1230022092/BodyImpedance.o
 .debug_loc     0x000000000002e7d6     0x53fc build/pic32mz2048efm/production/_ext/1230022092/ad5940.o
 .debug_loc     0x0000000000033bd2      0x17b build/pic32mz2048efm/production/_ext/1230022092/pic32Port.o
 .debug_loc     0x0000000000033d4d      0x15f build/pic32mz2048efm/production/_ext/1230022092/ad5940main.o
 .debug_loc     0x0000000000033eac       0x24 build/pic32mz2048efm/production/_ext/1360937237/app.o
 .debug_loc     0x0000000000033ed0      0x175 build/pic32mz2048efm/production/_ext/1360937237/communication.o
 .debug_loc     0x0000000000034045       0x2c build/pic32mz2048efm/production/_ext/1360937237/eeprom.o
 .debug_loc     0x0000000000034071      0x5b1 build/pic32mz2048efm/production/_ext/1360937237/mdot.o
 .debug_loc     0x0000000000034622      0x179 build/pic32mz2048efm/production/_ext/1360937237/messaging.o
 .debug_loc     0x000000000003479b      0x383 build/pic32mz2048efm/production/_ext/1360937237/nmea.o
 .debug_loc     0x0000000000034b1e      0x1f6 build/pic32mz2048efm/production/_ext/1360937237/stringbuffer.o
 .debug_loc     0x0000000000034d14       0xbb build/pic32mz2048efm/production/_ext/1360937237/time_keeping.o
 .debug_loc     0x0000000000034dcf      0x175 build/pic32mz2048efm/production/_ext/1360937237/console.o
 .debug_loc     0x0000000000034f44      0x1ca build/pic32mz2048efm/production/_ext/1360937237/auxillary_sensors.o
 .debug_loc     0x000000000003510e      0xb5b /opt/microchip/xc32/v3.01/bin/bin/../../lib/gcc/pic32mx/8.3.1/fpu64/libgcc.a(_udivdi3.o)
 .debug_loc     0x0000000000035c69       0x99 /opt/microchip/xc32/v3.01/bin/bin/../../lib/gcc/pic32mx/8.3.1/fpu64/libgcc.a(_lshrdi3.o)
 .debug_loc     0x0000000000035d02      0x969 /opt/microchip/xc32/v3.01/bin/bin/../../lib/gcc/pic32mx/8.3.1/fpu64/libgcc.a(_umoddi3.o)
 .debug_loc     0x000000000003666b       0x6c /opt/microchip/xc32/v3.01/bin/bin/../../lib/gcc/pic32mx/8.3.1/../../../../pic32mx/lib/fpu64/libpic32.a(sbrk.o)
 .debug_loc     0x00000000000366d7       0x20 /opt/microchip/xc32/v3.01/bin/bin/../../lib/gcc/pic32mx/8.3.1/../../../../pic32mx/lib/fpu64/libpic32.a(write.o)

.debug_macinfo
 *.elf(.debug_macinfo)
 *(.debug_macinfo)

.debug_weaknames
 *.elf(.debug_weaknames)
 *(.debug_weaknames)

.debug_funcnames
 *.elf(.debug_funcnames)
 *(.debug_funcnames)

.debug_typenames
 *.elf(.debug_typenames)
 *(.debug_typenames)

.debug_varnames
 *.elf(.debug_varnames)
 *(.debug_varnames)

.debug_pubtypes
 *.elf(.debug_pubtypes)
 *(.debug_pubtypes)

.debug_ranges   0x0000000000000000     0x4a68
 *.elf(.debug_ranges)
 *(.debug_ranges)
 .debug_ranges  0x0000000000000000      0x818 build/pic32mz2048efm/production/_ext/1044926641/drv_sdspi.o
 .debug_ranges  0x0000000000000818       0x80 build/pic32mz2048efm/production/_ext/1044926641/drv_sdspi_driver_interface.o
 .debug_ranges  0x0000000000000898       0x10 build/pic32mz2048efm/production/_ext/1044926641/drv_sdspi_file_system.o
 .debug_ranges  0x00000000000008a8      0x208 build/pic32mz2048efm/production/_ext/1807302558/drv_spi.o
 .debug_ranges  0x0000000000000ab0       0xa8 build/pic32mz2048efm/production/_ext/1449458886/drv_usbhs.o
 .debug_ranges  0x0000000000000b58      0xa30 build/pic32mz2048efm/production/_ext/1449458886/drv_usbhs_device.o
 .debug_ranges  0x0000000000001588       0xb0 build/pic32mz2048efm/production/_ext/1928555383/plib_cache.o
 .debug_ranges  0x0000000000001638       0x10 build/pic32mz2048efm/production/_ext/323794519/plib_clk.o
 .debug_ranges  0x0000000000001648       0x50 build/pic32mz2048efm/production/_ext/1871117435/plib_coretimer.o
 .debug_ranges  0x0000000000001698       0x58 build/pic32mz2048efm/production/_ext/1447764726/plib_evic.o
 .debug_ranges  0x00000000000016f0       0x88 build/pic32mz2048efm/production/_ext/1447818554/plib_gpio.o
 .debug_ranges  0x0000000000001778      0x118 build/pic32mz2048efm/production/_ext/1683951966/plib_i2c2_master.o
 .debug_ranges  0x0000000000001890      0x118 build/pic32mz2048efm/production/_ext/1683951966/plib_i2c4_master.o
 .debug_ranges  0x00000000000019a8       0x48 build/pic32mz2048efm/production/_ext/1448149901/plib_rtcc.o
 .debug_ranges  0x00000000000019f0       0x58 build/pic32mz2048efm/production/_ext/1007818685/plib_spi4_master.o
 .debug_ranges  0x0000000000001a48       0x58 build/pic32mz2048efm/production/_ext/1007818685/plib_spi5_master.o
 .debug_ranges  0x0000000000001aa0       0x58 build/pic32mz2048efm/production/_ext/1007818685/plib_spi2_master.o
 .debug_ranges  0x0000000000001af8       0x58 build/pic32mz2048efm/production/_ext/1007818685/plib_spi1_master.o
 .debug_ranges  0x0000000000001b50       0x60 build/pic32mz2048efm/production/_ext/323810894/plib_tmr2.o
 .debug_ranges  0x0000000000001bb0       0x60 build/pic32mz2048efm/production/_ext/323810894/plib_tmr3.o
 .debug_ranges  0x0000000000001c10       0x70 build/pic32mz2048efm/production/_ext/1448221497/plib_uart5.o
 .debug_ranges  0x0000000000001c80       0x98 build/pic32mz2048efm/production/_ext/1448221497/plib_uart6.o
 .debug_ranges  0x0000000000001d18       0x98 build/pic32mz2048efm/production/_ext/1448221497/plib_uart3.o
 .debug_ranges  0x0000000000001db0       0x98 build/pic32mz2048efm/production/_ext/1448221497/plib_uart1.o
 .debug_ranges  0x0000000000001e48       0x98 build/pic32mz2048efm/production/_ext/1448221497/plib_uart2.o
 .debug_ranges  0x0000000000001ee0       0x30 build/pic32mz2048efm/production/_ext/323813500/plib_wdt.o
 .debug_ranges  0x0000000000001f10       0x18 build/pic32mz2048efm/production/_ext/1212781247/xc32_monitor.o
 .debug_ranges  0x0000000000001f28       0x70 build/pic32mz2048efm/production/_ext/191419926/sys_cache.o
 .debug_ranges  0x0000000000001f98       0x20 build/pic32mz2048efm/production/_ext/1336113504/sys_dma.o
 .debug_ranges  0x0000000000001fb8      0x4b0 build/pic32mz2048efm/production/_ext/1225530592/ff.o
 .debug_ranges  0x0000000000002468       0x20 build/pic32mz2048efm/production/_ext/1225530592/ffunicode.o
 .debug_ranges  0x0000000000002488       0x50 build/pic32mz2048efm/production/_ext/1545496361/diskio.o
 .debug_ranges  0x00000000000024d8      0x5f0 build/pic32mz2048efm/production/_ext/1538077638/sys_fs.o
 .debug_ranges  0x0000000000002ac8      0x158 build/pic32mz2048efm/production/_ext/1538077638/sys_fs_media_manager.o
 .debug_ranges  0x0000000000002c20      0x120 build/pic32mz2048efm/production/_ext/1538077638/sys_fs_fat_interface.o
 .debug_ranges  0x0000000000002d40       0x30 build/pic32mz2048efm/production/_ext/2145297452/sys_int.o
 .debug_ranges  0x0000000000002d70      0x168 build/pic32mz2048efm/production/_ext/519320518/sys_time.o
 .debug_ranges  0x0000000000002ed8      0x190 build/pic32mz2048efm/production/_ext/196169617/usb_device.o
 .debug_ranges  0x0000000000003068       0xc0 build/pic32mz2048efm/production/_ext/196169617/usb_device_cdc.o
 .debug_ranges  0x0000000000003128       0x10 build/pic32mz2048efm/production/_ext/196169617/usb_device_cdc_acm.o
 .debug_ranges  0x0000000000003138       0x10 build/pic32mz2048efm/production/_ext/2011215161/tasks.o
 .debug_ranges  0x0000000000003148       0x10 build/pic32mz2048efm/production/_ext/2011215161/initialization.o
 .debug_ranges  0x0000000000003158      0x100 build/pic32mz2048efm/production/_ext/2011215161/interrupts.o
 .debug_ranges  0x0000000000003258       0x28 build/pic32mz2048efm/production/_ext/2011215161/exceptions.o
 .debug_ranges  0x0000000000003280      0x228 build/pic32mz2048efm/production/_ext/858502545/figaro_gpr_fit.o
 .debug_ranges  0x00000000000034a8      0x4b8 build/pic32mz2048efm/production/_ext/858502545/mpfit.o
 .debug_ranges  0x0000000000003960      0x118 build/pic32mz2048efm/production/_ext/1230022092/BodyImpedance.o
 .debug_ranges  0x0000000000003a78      0x618 build/pic32mz2048efm/production/_ext/1230022092/ad5940.o
 .debug_ranges  0x0000000000004090       0x90 build/pic32mz2048efm/production/_ext/1230022092/pic32Port.o
 .debug_ranges  0x0000000000004120       0x30 build/pic32mz2048efm/production/_ext/1230022092/ad5940main.o
 .debug_ranges  0x0000000000004150       0x40 build/pic32mz2048efm/production/_ext/1360937237/app.o
 .debug_ranges  0x0000000000004190       0x10 build/pic32mz2048efm/production/_ext/1360937237/main.o
 .debug_ranges  0x00000000000041a0       0xb8 build/pic32mz2048efm/production/_ext/1360937237/communication.o
 .debug_ranges  0x0000000000004258       0x30 build/pic32mz2048efm/production/_ext/1360937237/eeprom.o
 .debug_ranges  0x0000000000004288       0x80 build/pic32mz2048efm/production/_ext/1360937237/mdot.o
 .debug_ranges  0x0000000000004308       0x48 build/pic32mz2048efm/production/_ext/1360937237/messaging.o
 .debug_ranges  0x0000000000004350       0x70 build/pic32mz2048efm/production/_ext/1360937237/nmea.o
 .debug_ranges  0x00000000000043c0       0x28 build/pic32mz2048efm/production/_ext/1360937237/stringbuffer.o
 .debug_ranges  0x00000000000043e8       0x38 build/pic32mz2048efm/production/_ext/1360937237/time_keeping.o
 .debug_ranges  0x0000000000004420       0x28 build/pic32mz2048efm/production/_ext/1360937237/console.o
 .debug_ranges  0x0000000000004448       0x58 build/pic32mz2048efm/production/_ext/1360937237/auxillary_sensors.o
 .debug_ranges  0x00000000000044a0       0xd0 /opt/microchip/xc32/v3.01/bin/bin/../../lib/gcc/pic32mx/8.3.1/fpu64/libgcc.a(_udivdi3.o)
 .debug_ranges  0x0000000000004570       0x10 /opt/microchip/xc32/v3.01/bin/bin/../../lib/gcc/pic32mx/8.3.1/../../../../pic32mx/lib/fpu64/libpic32.a(default-on-reset.o)
 .debug_ranges  0x0000000000004580       0x10 /opt/microchip/xc32/v3.01/bin/bin/../../lib/gcc/pic32mx/8.3.1/../../../../pic32mx/lib/fpu64/libpic32.a(default-on-bootstrap.o)
 .debug_ranges  0x0000000000004590       0x10 /opt/microchip/xc32/v3.01/bin/bin/../../lib/gcc/pic32mx/8.3.1/../../../../pic32mx/lib/fpu64/libpic32.a(defaultinterrupt.o)
 .debug_ranges  0x00000000000045a0       0x20 /opt/microchip/xc32/v3.01/bin/bin/../../lib/gcc/pic32mx/8.3.1/../../../../pic32mx/lib/fpu64/libc.a(malloc.o)
 .debug_ranges  0x00000000000045c0       0x10 /opt/microchip/xc32/v3.01/bin/bin/../../lib/gcc/pic32mx/8.3.1/../../../../pic32mx/lib/fpu64/libc.a(memmove.o)
 .debug_ranges  0x00000000000045d0       0x18 /opt/microchip/xc32/v3.01/bin/bin/../../lib/gcc/pic32mx/8.3.1/../../../../pic32mx/lib/fpu64/libc.a(puts.o)
 .debug_ranges  0x00000000000045e8       0x18 /opt/microchip/xc32/v3.01/bin/bin/../../lib/gcc/pic32mx/8.3.1/../../../../pic32mx/lib/fpu64/libc.a(setbuf.o)
 .debug_ranges  0x0000000000004600       0x10 /opt/microchip/xc32/v3.01/bin/bin/../../lib/gcc/pic32mx/8.3.1/../../../../pic32mx/lib/fpu64/libc.a(strchr.o)
 .debug_ranges  0x0000000000004610       0x10 /opt/microchip/xc32/v3.01/bin/bin/../../lib/gcc/pic32mx/8.3.1/../../../../pic32mx/lib/fpu64/libc.a(strncmp.o)
 .debug_ranges  0x0000000000004620       0x10 /opt/microchip/xc32/v3.01/bin/bin/../../lib/gcc/pic32mx/8.3.1/../../../../pic32mx/lib/fpu64/libc.a(strncpy.o)
 .debug_ranges  0x0000000000004630       0x18 /opt/microchip/xc32/v3.01/bin/bin/../../lib/gcc/pic32mx/8.3.1/../../../../pic32mx/lib/fpu64/libc.a(strtol.o)
 .debug_ranges  0x0000000000004648       0x10 /opt/microchip/xc32/v3.01/bin/bin/../../lib/gcc/pic32mx/8.3.1/../../../../pic32mx/lib/fpu64/libc.a(printf_cdgGnopsuxX.eo)
 .debug_ranges  0x0000000000004658       0x10 /opt/microchip/xc32/v3.01/bin/bin/../../lib/gcc/pic32mx/8.3.1/../../../../pic32mx/lib/fpu64/libc.a(sprintf_cdnopsuxX.eo)
 .debug_ranges  0x0000000000004668       0x10 /opt/microchip/xc32/v3.01/bin/bin/../../lib/gcc/pic32mx/8.3.1/../../../../pic32mx/lib/fpu64/libc.a(sprintf_fF.eo)
 .debug_ranges  0x0000000000004678       0x10 /opt/microchip/xc32/v3.01/bin/bin/../../lib/gcc/pic32mx/8.3.1/../../../../pic32mx/lib/fpu64/libc.a(_fputc_simple.o)
 .debug_ranges  0x0000000000004688       0x18 /opt/microchip/xc32/v3.01/bin/bin/../../lib/gcc/pic32mx/8.3.1/../../../../pic32mx/lib/fpu64/libc.a(buf.o)
 .debug_ranges  0x00000000000046a0       0x90 /opt/microchip/xc32/v3.01/bin/bin/../../lib/gcc/pic32mx/8.3.1/../../../../pic32mx/lib/fpu64/libc.a(ctypef.o)
 .debug_ranges  0x0000000000004730       0x38 /opt/microchip/xc32/v3.01/bin/bin/../../lib/gcc/pic32mx/8.3.1/../../../../pic32mx/lib/fpu64/libc.a(doprnt_cdgGnopsuxX.eo)
 .debug_ranges  0x0000000000004768       0x10 /opt/microchip/xc32/v3.01/bin/bin/../../lib/gcc/pic32mx/8.3.1/../../../../pic32mx/lib/fpu64/libc.a(doprnt_cdnopsuxX.eo)
 .debug_ranges  0x0000000000004778       0x60 /opt/microchip/xc32/v3.01/bin/bin/../../lib/gcc/pic32mx/8.3.1/../../../../pic32mx/lib/fpu64/libc.a(doprnt_fF.eo)
 .debug_ranges  0x00000000000047d8       0x10 /opt/microchip/xc32/v3.01/bin/bin/../../lib/gcc/pic32mx/8.3.1/../../../../pic32mx/lib/fpu64/libc.a(_flsbuf_simple.o)
 .debug_ranges  0x00000000000047e8       0x10 /opt/microchip/xc32/v3.01/bin/bin/../../lib/gcc/pic32mx/8.3.1/../../../../pic32mx/lib/fpu64/libmfd.a(s_cos.o)
 .debug_ranges  0x00000000000047f8       0x10 /opt/microchip/xc32/v3.01/bin/bin/../../lib/gcc/pic32mx/8.3.1/../../../../pic32mx/lib/fpu64/libmfd.a(s_fabs.o)
 .debug_ranges  0x0000000000004808       0x10 /opt/microchip/xc32/v3.01/bin/bin/../../lib/gcc/pic32mx/8.3.1/../../../../pic32mx/lib/fpu64/libmfd.a(s_frexp.o)
 .debug_ranges  0x0000000000004818       0x10 /opt/microchip/xc32/v3.01/bin/bin/../../lib/gcc/pic32mx/8.3.1/../../../../pic32mx/lib/fpu64/libmfd.a(s_sin.o)
 .debug_ranges  0x0000000000004828       0x10 /opt/microchip/xc32/v3.01/bin/bin/../../lib/gcc/pic32mx/8.3.1/../../../../pic32mx/lib/fpu64/libmfd.a(w_atan2.o)
 .debug_ranges  0x0000000000004838       0x10 /opt/microchip/xc32/v3.01/bin/bin/../../lib/gcc/pic32mx/8.3.1/../../../../pic32mx/lib/fpu64/libmfd.a(w_exp.o)
 .debug_ranges  0x0000000000004848       0x10 /opt/microchip/xc32/v3.01/bin/bin/../../lib/gcc/pic32mx/8.3.1/../../../../pic32mx/lib/fpu64/libmfd.a(w_log.o)
 .debug_ranges  0x0000000000004858       0x10 /opt/microchip/xc32/v3.01/bin/bin/../../lib/gcc/pic32mx/8.3.1/../../../../pic32mx/lib/fpu64/libmfd.a(w_log10.o)
 .debug_ranges  0x0000000000004868       0x10 /opt/microchip/xc32/v3.01/bin/bin/../../lib/gcc/pic32mx/8.3.1/../../../../pic32mx/lib/fpu64/libmfd.a(w_pow.o)
 .debug_ranges  0x0000000000004878       0x10 /opt/microchip/xc32/v3.01/bin/bin/../../lib/gcc/pic32mx/8.3.1/../../../../pic32mx/lib/fpu64/libmfd.a(pic32_w_sqrt.o)
 .debug_ranges  0x0000000000004888       0x10 /opt/microchip/xc32/v3.01/bin/bin/../../lib/gcc/pic32mx/8.3.1/../../../../pic32mx/lib/fpu64/libmfd.a(strtod.o)
 .debug_ranges  0x0000000000004898       0x10 /opt/microchip/xc32/v3.01/bin/bin/../../lib/gcc/pic32mx/8.3.1/../../../../pic32mx/lib/fpu64/libmfd.a(e_atan2.o)
 .debug_ranges  0x00000000000048a8       0x10 /opt/microchip/xc32/v3.01/bin/bin/../../lib/gcc/pic32mx/8.3.1/../../../../pic32mx/lib/fpu64/libmfd.a(e_exp.o)
 .debug_ranges  0x00000000000048b8       0x10 /opt/microchip/xc32/v3.01/bin/bin/../../lib/gcc/pic32mx/8.3.1/../../../../pic32mx/lib/fpu64/libmfd.a(e_log.o)
 .debug_ranges  0x00000000000048c8       0x10 /opt/microchip/xc32/v3.01/bin/bin/../../lib/gcc/pic32mx/8.3.1/../../../../pic32mx/lib/fpu64/libmfd.a(e_log10.o)
 .debug_ranges  0x00000000000048d8       0x10 /opt/microchip/xc32/v3.01/bin/bin/../../lib/gcc/pic32mx/8.3.1/../../../../pic32mx/lib/fpu64/libmfd.a(e_pow.o)
 .debug_ranges  0x00000000000048e8       0x10 /opt/microchip/xc32/v3.01/bin/bin/../../lib/gcc/pic32mx/8.3.1/../../../../pic32mx/lib/fpu64/libmfd.a(e_rem_pio2.o)
 .debug_ranges  0x00000000000048f8       0x10 /opt/microchip/xc32/v3.01/bin/bin/../../lib/gcc/pic32mx/8.3.1/../../../../pic32mx/lib/fpu64/libmfd.a(k_cos.o)
 .debug_ranges  0x0000000000004908       0x10 /opt/microchip/xc32/v3.01/bin/bin/../../lib/gcc/pic32mx/8.3.1/../../../../pic32mx/lib/fpu64/libmfd.a(k_sin.o)
 .debug_ranges  0x0000000000004918       0x10 /opt/microchip/xc32/v3.01/bin/bin/../../lib/gcc/pic32mx/8.3.1/../../../../pic32mx/lib/fpu64/libmfd.a(k_standard.o)
 .debug_ranges  0x0000000000004928       0x10 /opt/microchip/xc32/v3.01/bin/bin/../../lib/gcc/pic32mx/8.3.1/../../../../pic32mx/lib/fpu64/libmfd.a(s_atan.o)
 .debug_ranges  0x0000000000004938       0x10 /opt/microchip/xc32/v3.01/bin/bin/../../lib/gcc/pic32mx/8.3.1/../../../../pic32mx/lib/fpu64/libmfd.a(s_rint.o)
 .debug_ranges  0x0000000000004948       0x18 /opt/microchip/xc32/v3.01/bin/bin/../../lib/gcc/pic32mx/8.3.1/../../../../pic32mx/lib/fpu64/libmfd.a(s_scalbn.o)
 .debug_ranges  0x0000000000004960       0xa0 /opt/microchip/xc32/v3.01/bin/bin/../../lib/gcc/pic32mx/8.3.1/fpu64/libgcc.a(_umoddi3.o)
 .debug_ranges  0x0000000000004a00       0x58 /opt/microchip/xc32/v3.01/bin/bin/../../lib/gcc/pic32mx/8.3.1/../../../../pic32mx/lib/fpu64/libpic32.a(sbrk.o)
 .debug_ranges  0x0000000000004a58       0x10 /opt/microchip/xc32/v3.01/bin/bin/../../lib/gcc/pic32mx/8.3.1/../../../../pic32mx/lib/fpu64/libpic32.a(write.o)

.gnu.attributes
                0x0000000000000000       0x10
 *(.gnu.attributes)
 .gnu.attributes
                0x0000000000000000       0x10 /opt/microchip/xc32/v3.01/bin/bin/../../lib/gcc/pic32mx/8.3.1/../../../../pic32mx/lib/fpu64/debug-exception-return.o
 .gnu.attributes
                0x0000000000000010       0x10 build/pic32mz2048efm/production/_ext/1044926641/drv_sdspi.o
 .gnu.attributes
                0x0000000000000020       0x10 build/pic32mz2048efm/production/_ext/1044926641/drv_sdspi_driver_interface.o
 .gnu.attributes
                0x0000000000000030       0x10 build/pic32mz2048efm/production/_ext/1044926641/drv_sdspi_file_system.o
 .gnu.attributes
                0x0000000000000040       0x10 build/pic32mz2048efm/production/_ext/1807302558/drv_spi.o
 .gnu.attributes
                0x0000000000000050       0x10 build/pic32mz2048efm/production/_ext/1449458886/drv_usbhs.o
 .gnu.attributes
                0x0000000000000060       0x10 build/pic32mz2048efm/production/_ext/1449458886/drv_usbhs_device.o
 .gnu.attributes
                0x0000000000000070       0x10 build/pic32mz2048efm/production/_ext/1928555383/plib_cache.o
 .gnu.attributes
                0x0000000000000080       0x10 build/pic32mz2048efm/production/_ext/1928555383/plib_cache_pic32mz.o
 .gnu.attributes
                0x0000000000000090       0x10 build/pic32mz2048efm/production/_ext/323794519/plib_clk.o
 .gnu.attributes
                0x00000000000000a0       0x10 build/pic32mz2048efm/production/_ext/1871117435/plib_coretimer.o
 .gnu.attributes
                0x00000000000000b0       0x10 build/pic32mz2048efm/production/_ext/1447764726/plib_evic.o
 .gnu.attributes
                0x00000000000000c0       0x10 build/pic32mz2048efm/production/_ext/1447818554/plib_gpio.o
 .gnu.attributes
                0x00000000000000d0       0x10 build/pic32mz2048efm/production/_ext/1683951966/plib_i2c2_master.o
 .gnu.attributes
                0x00000000000000e0       0x10 build/pic32mz2048efm/production/_ext/1683951966/plib_i2c4_master.o
 .gnu.attributes
                0x00000000000000f0       0x10 build/pic32mz2048efm/production/_ext/1448149901/plib_rtcc.o
 .gnu.attributes
                0x0000000000000100       0x10 build/pic32mz2048efm/production/_ext/1007818685/plib_spi4_master.o
 .gnu.attributes
                0x0000000000000110       0x10 build/pic32mz2048efm/production/_ext/1007818685/plib_spi5_master.o
 .gnu.attributes
                0x0000000000000120       0x10 build/pic32mz2048efm/production/_ext/1007818685/plib_spi2_master.o
 .gnu.attributes
                0x0000000000000130       0x10 build/pic32mz2048efm/production/_ext/1007818685/plib_spi1_master.o
 .gnu.attributes
                0x0000000000000140       0x10 build/pic32mz2048efm/production/_ext/323810894/plib_tmr2.o
 .gnu.attributes
                0x0000000000000150       0x10 build/pic32mz2048efm/production/_ext/323810894/plib_tmr3.o
 .gnu.attributes
                0x0000000000000160       0x10 build/pic32mz2048efm/production/_ext/1448221497/plib_uart5.o
 .gnu.attributes
                0x0000000000000170       0x10 build/pic32mz2048efm/production/_ext/1448221497/plib_uart6.o
 .gnu.attributes
                0x0000000000000180       0x10 build/pic32mz2048efm/production/_ext/1448221497/plib_uart3.o
 .gnu.attributes
                0x0000000000000190       0x10 build/pic32mz2048efm/production/_ext/1448221497/plib_uart1.o
 .gnu.attributes
                0x00000000000001a0       0x10 build/pic32mz2048efm/production/_ext/1448221497/plib_uart2.o
 .gnu.attributes
                0x00000000000001b0       0x10 build/pic32mz2048efm/production/_ext/323813500/plib_wdt.o
 .gnu.attributes
                0x00000000000001c0       0x10 build/pic32mz2048efm/production/_ext/1212781247/xc32_monitor.o
 .gnu.attributes
                0x00000000000001d0       0x10 build/pic32mz2048efm/production/_ext/191419926/sys_cache.o
 .gnu.attributes
                0x00000000000001e0       0x10 build/pic32mz2048efm/production/_ext/1336113504/sys_dma.o
 .gnu.attributes
                0x00000000000001f0       0x10 build/pic32mz2048efm/production/_ext/1225530592/ff.o
 .gnu.attributes
                0x0000000000000200       0x10 build/pic32mz2048efm/production/_ext/1225530592/ffunicode.o
 .gnu.attributes
                0x0000000000000210       0x10 build/pic32mz2048efm/production/_ext/1545496361/diskio.o
 .gnu.attributes
                0x0000000000000220       0x10 build/pic32mz2048efm/production/_ext/1538077638/sys_fs.o
 .gnu.attributes
                0x0000000000000230       0x10 build/pic32mz2048efm/production/_ext/1538077638/sys_fs_media_manager.o
 .gnu.attributes
                0x0000000000000240       0x10 build/pic32mz2048efm/production/_ext/1538077638/sys_fs_fat_interface.o
 .gnu.attributes
                0x0000000000000250       0x10 build/pic32mz2048efm/production/_ext/2145297452/sys_int.o
 .gnu.attributes
                0x0000000000000260       0x10 build/pic32mz2048efm/production/_ext/519320518/sys_time.o
 .gnu.attributes
                0x0000000000000270       0x10 build/pic32mz2048efm/production/_ext/196169617/usb_device.o
 .gnu.attributes
                0x0000000000000280       0x10 build/pic32mz2048efm/production/_ext/196169617/usb_device_cdc.o
 .gnu.attributes
                0x0000000000000290       0x10 build/pic32mz2048efm/production/_ext/196169617/usb_device_cdc_acm.o
 .gnu.attributes
                0x00000000000002a0       0x10 build/pic32mz2048efm/production/_ext/2011215161/usb_device_init_data.o
 .gnu.attributes
                0x00000000000002b0       0x10 build/pic32mz2048efm/production/_ext/2011215161/tasks.o
 .gnu.attributes
                0x00000000000002c0       0x10 build/pic32mz2048efm/production/_ext/2011215161/initialization.o
 .gnu.attributes
                0x00000000000002d0       0x10 build/pic32mz2048efm/production/_ext/2011215161/interrupts.o
 .gnu.attributes
                0x00000000000002e0       0x10 build/pic32mz2048efm/production/_ext/2011215161/exceptions.o
 .gnu.attributes
                0x00000000000002f0       0x10 build/pic32mz2048efm/production/_ext/858502545/figaro_gpr_fit.o
 .gnu.attributes
                0x0000000000000300       0x10 build/pic32mz2048efm/production/_ext/858502545/figaro_gpr_params.o
 .gnu.attributes
                0x0000000000000310       0x10 build/pic32mz2048efm/production/_ext/858502545/mpfit.o
 .gnu.attributes
                0x0000000000000320       0x10 build/pic32mz2048efm/production/_ext/1230022092/BodyImpedance.o
 .gnu.attributes
                0x0000000000000330       0x10 build/pic32mz2048efm/production/_ext/1230022092/ad5940.o
 .gnu.attributes
                0x0000000000000340       0x10 build/pic32mz2048efm/production/_ext/1230022092/pic32Port.o
 .gnu.attributes
                0x0000000000000350       0x10 build/pic32mz2048efm/production/_ext/1230022092/ad5940main.o
 .gnu.attributes
                0x0000000000000360       0x10 build/pic32mz2048efm/production/_ext/1360937237/app.o
 .gnu.attributes
                0x0000000000000370       0x10 build/pic32mz2048efm/production/_ext/1360937237/main.o
 .gnu.attributes
                0x0000000000000380       0x10 build/pic32mz2048efm/production/_ext/1360937237/communication.o
 .gnu.attributes
                0x0000000000000390       0x10 build/pic32mz2048efm/production/_ext/1360937237/eeprom.o
 .gnu.attributes
                0x00000000000003a0       0x10 build/pic32mz2048efm/production/_ext/1360937237/mdot.o
 .gnu.attributes
                0x00000000000003b0       0x10 build/pic32mz2048efm/production/_ext/1360937237/messaging.o
 .gnu.attributes
                0x00000000000003c0       0x10 build/pic32mz2048efm/production/_ext/1360937237/nmea.o
 .gnu.attributes
                0x00000000000003d0       0x10 build/pic32mz2048efm/production/_ext/1360937237/stringbuffer.o
 .gnu.attributes
                0x00000000000003e0       0x10 build/pic32mz2048efm/production/_ext/1360937237/time_keeping.o
 .gnu.attributes
                0x00000000000003f0       0x10 build/pic32mz2048efm/production/_ext/1360937237/console.o
 .gnu.attributes
                0x0000000000000400       0x10 build/pic32mz2048efm/production/_ext/1360937237/auxillary_sensors.o
 .gnu.attributes
                0x0000000000000410       0x10 /tmp/ccrPvX7l.o
 .gnu.attributes
                0x0000000000000420       0x10 /tmp/cc7YmRsm.o
 .gnu.attributes
                0x0000000000000430       0x10 /tmp/ccnC5Jjm.o
 .gnu.attributes
                0x0000000000000440       0x10 /tmp/ccqBJATo.o
 .gnu.attributes
                0x0000000000000450       0x10 /opt/microchip/xc32/v3.01/bin/bin/../../lib/gcc/pic32mx/8.3.1/../../../../pic32mx/lib/fpu64/pic32_software_reset.o
 .gnu.attributes
                0x0000000000000460       0x10 /opt/microchip/xc32/v3.01/bin/bin/../../lib/gcc/pic32mx/8.3.1/fpu64/libgcc.a(_udivdi3.o)
 .gnu.attributes
                0x0000000000000470       0x10 /opt/microchip/xc32/v3.01/bin/bin/../../lib/gcc/pic32mx/8.3.1/../../../../pic32mx/lib/fpu64/libpic32.a(memcmp.o)
 .gnu.attributes
                0x0000000000000480       0x10 /opt/microchip/xc32/v3.01/bin/bin/../../lib/gcc/pic32mx/8.3.1/../../../../pic32mx/lib/fpu64/libpic32.a(memcpy.o)
 .gnu.attributes
                0x0000000000000490       0x10 /opt/microchip/xc32/v3.01/bin/bin/../../lib/gcc/pic32mx/8.3.1/../../../../pic32mx/lib/fpu64/libpic32.a(memset.o)
 .gnu.attributes
                0x00000000000004a0       0x10 /opt/microchip/xc32/v3.01/bin/bin/../../lib/gcc/pic32mx/8.3.1/../../../../pic32mx/lib/fpu64/libpic32.a(strcmp.o)
 .gnu.attributes
                0x00000000000004b0       0x10 /opt/microchip/xc32/v3.01/bin/bin/../../lib/gcc/pic32mx/8.3.1/../../../../pic32mx/lib/fpu64/libpic32.a(strcpy.o)
 .gnu.attributes
                0x00000000000004c0       0x10 /opt/microchip/xc32/v3.01/bin/bin/../../lib/gcc/pic32mx/8.3.1/../../../../pic32mx/lib/fpu64/libpic32.a(strlen.o)
 .gnu.attributes
                0x00000000000004d0       0x10 /opt/microchip/xc32/v3.01/bin/bin/../../lib/gcc/pic32mx/8.3.1/../../../../pic32mx/lib/fpu64/libpic32.a(default-on-reset.o)
 .gnu.attributes
                0x00000000000004e0       0x10 /opt/microchip/xc32/v3.01/bin/bin/../../lib/gcc/pic32mx/8.3.1/../../../../pic32mx/lib/fpu64/libpic32.a(default-on-bootstrap.o)
 .gnu.attributes
                0x00000000000004f0       0x10 /opt/microchip/xc32/v3.01/bin/bin/../../lib/gcc/pic32mx/8.3.1/../../../../pic32mx/lib/fpu64/libpic32.a(default-nmi-handler.o)
 .gnu.attributes
                0x0000000000000500       0x10 /opt/microchip/xc32/v3.01/bin/bin/../../lib/gcc/pic32mx/8.3.1/../../../../pic32mx/lib/fpu64/libpic32.a(pic32_data_init.o)
 .gnu.attributes
                0x0000000000000510       0x10 /opt/microchip/xc32/v3.01/bin/bin/../../lib/gcc/pic32mx/8.3.1/../../../../pic32mx/lib/fpu64/libpic32.a(pic32_init_cache.o)
 .gnu.attributes
                0x0000000000000520       0x10 /opt/microchip/xc32/v3.01/bin/bin/../../lib/gcc/pic32mx/8.3.1/../../../../pic32mx/lib/fpu64/libpic32.a(pic32_init_tlb_ebi_sqi.o)
 .gnu.attributes
                0x0000000000000530       0x10 /opt/microchip/xc32/v3.01/bin/bin/../../lib/gcc/pic32mx/8.3.1/../../../../pic32mx/lib/fpu64/libpic32.a(general-exception.o)
 .gnu.attributes
                0x0000000000000540       0x10 /opt/microchip/xc32/v3.01/bin/bin/../../lib/gcc/pic32mx/8.3.1/../../../../pic32mx/lib/fpu64/libpic32.a(cache-err-exception.o)
 .gnu.attributes
                0x0000000000000550       0x10 /opt/microchip/xc32/v3.01/bin/bin/../../lib/gcc/pic32mx/8.3.1/../../../../pic32mx/lib/fpu64/libpic32.a(simple-tlb-refill-exception.o)
 .gnu.attributes
                0x0000000000000560       0x10 /opt/microchip/xc32/v3.01/bin/bin/../../lib/gcc/pic32mx/8.3.1/../../../../pic32mx/lib/fpu64/libpic32.a(defaultinterrupt.o)
 .gnu.attributes
                0x0000000000000570       0x10 /opt/microchip/xc32/v3.01/bin/bin/../../lib/gcc/pic32mx/8.3.1/../../../../pic32mx/lib/fpu64/libc.a(_iob.o)
 .gnu.attributes
                0x0000000000000580       0x10 /opt/microchip/xc32/v3.01/bin/bin/../../lib/gcc/pic32mx/8.3.1/../../../../pic32mx/lib/fpu64/libc.a(malloc.o)
 .gnu.attributes
                0x0000000000000590       0x10 /opt/microchip/xc32/v3.01/bin/bin/../../lib/gcc/pic32mx/8.3.1/../../../../pic32mx/lib/fpu64/libc.a(memmove.o)
 .gnu.attributes
                0x00000000000005a0       0x10 /opt/microchip/xc32/v3.01/bin/bin/../../lib/gcc/pic32mx/8.3.1/../../../../pic32mx/lib/fpu64/libc.a(puts.o)
 .gnu.attributes
                0x00000000000005b0       0x10 /opt/microchip/xc32/v3.01/bin/bin/../../lib/gcc/pic32mx/8.3.1/../../../../pic32mx/lib/fpu64/libc.a(setbuf.o)
 .gnu.attributes
                0x00000000000005c0       0x10 /opt/microchip/xc32/v3.01/bin/bin/../../lib/gcc/pic32mx/8.3.1/../../../../pic32mx/lib/fpu64/libc.a(strchr.o)
 .gnu.attributes
                0x00000000000005d0       0x10 /opt/microchip/xc32/v3.01/bin/bin/../../lib/gcc/pic32mx/8.3.1/../../../../pic32mx/lib/fpu64/libc.a(strncmp.o)
 .gnu.attributes
                0x00000000000005e0       0x10 /opt/microchip/xc32/v3.01/bin/bin/../../lib/gcc/pic32mx/8.3.1/../../../../pic32mx/lib/fpu64/libc.a(strncpy.o)
 .gnu.attributes
                0x00000000000005f0       0x10 /opt/microchip/xc32/v3.01/bin/bin/../../lib/gcc/pic32mx/8.3.1/../../../../pic32mx/lib/fpu64/libc.a(strtol.o)
 .gnu.attributes
                0x0000000000000600       0x10 /opt/microchip/xc32/v3.01/bin/bin/../../lib/gcc/pic32mx/8.3.1/../../../../pic32mx/lib/fpu64/libc.a(printf_cdgGnopsuxX.eo)
 .gnu.attributes
                0x0000000000000610       0x10 /opt/microchip/xc32/v3.01/bin/bin/../../lib/gcc/pic32mx/8.3.1/../../../../pic32mx/lib/fpu64/libc.a(sprintf_cdnopsuxX.eo)
 .gnu.attributes
                0x0000000000000620       0x10 /opt/microchip/xc32/v3.01/bin/bin/../../lib/gcc/pic32mx/8.3.1/../../../../pic32mx/lib/fpu64/libc.a(sprintf_fF.eo)
 .gnu.attributes
                0x0000000000000630       0x10 /opt/microchip/xc32/v3.01/bin/bin/../../lib/gcc/pic32mx/8.3.1/../../../../pic32mx/lib/fpu64/libc.a(_fputc_simple.o)
 .gnu.attributes
                0x0000000000000640       0x10 /opt/microchip/xc32/v3.01/bin/bin/../../lib/gcc/pic32mx/8.3.1/../../../../pic32mx/lib/fpu64/libc.a(buf.o)
 .gnu.attributes
                0x0000000000000650       0x10 /opt/microchip/xc32/v3.01/bin/bin/../../lib/gcc/pic32mx/8.3.1/../../../../pic32mx/lib/fpu64/libc.a(ctype.o)
 .gnu.attributes
                0x0000000000000660       0x10 /opt/microchip/xc32/v3.01/bin/bin/../../lib/gcc/pic32mx/8.3.1/../../../../pic32mx/lib/fpu64/libc.a(ctypef.o)
 .gnu.attributes
                0x0000000000000670       0x10 /opt/microchip/xc32/v3.01/bin/bin/../../lib/gcc/pic32mx/8.3.1/../../../../pic32mx/lib/fpu64/libc.a(errno.o)
 .gnu.attributes
                0x0000000000000680       0x10 /opt/microchip/xc32/v3.01/bin/bin/../../lib/gcc/pic32mx/8.3.1/../../../../pic32mx/lib/fpu64/libc.a(doprnt_cdgGnopsuxX.eo)
 .gnu.attributes
                0x0000000000000690       0x10 /opt/microchip/xc32/v3.01/bin/bin/../../lib/gcc/pic32mx/8.3.1/../../../../pic32mx/lib/fpu64/libc.a(doprnt_cdnopsuxX.eo)
 .gnu.attributes
                0x00000000000006a0       0x10 /opt/microchip/xc32/v3.01/bin/bin/../../lib/gcc/pic32mx/8.3.1/../../../../pic32mx/lib/fpu64/libc.a(doprnt_fF.eo)
 .gnu.attributes
                0x00000000000006b0       0x10 /opt/microchip/xc32/v3.01/bin/bin/../../lib/gcc/pic32mx/8.3.1/../../../../pic32mx/lib/fpu64/libc.a(_flsbuf_simple.o)
 .gnu.attributes
                0x00000000000006c0       0x10 /opt/microchip/xc32/v3.01/bin/bin/../../lib/gcc/pic32mx/8.3.1/../../../../pic32mx/lib/fpu64/libc.a(ldpowers.o)
 .gnu.attributes
                0x00000000000006d0       0x10 /opt/microchip/xc32/v3.01/bin/bin/../../lib/gcc/pic32mx/8.3.1/../../../../pic32mx/lib/fpu64/libmfd.a(s_cos.o)
 .gnu.attributes
                0x00000000000006e0       0x10 /opt/microchip/xc32/v3.01/bin/bin/../../lib/gcc/pic32mx/8.3.1/../../../../pic32mx/lib/fpu64/libmfd.a(s_fabs.o)
 .gnu.attributes
                0x00000000000006f0       0x10 /opt/microchip/xc32/v3.01/bin/bin/../../lib/gcc/pic32mx/8.3.1/../../../../pic32mx/lib/fpu64/libmfd.a(s_frexp.o)
 .gnu.attributes
                0x0000000000000700       0x10 /opt/microchip/xc32/v3.01/bin/bin/../../lib/gcc/pic32mx/8.3.1/../../../../pic32mx/lib/fpu64/libmfd.a(s_sin.o)
 .gnu.attributes
                0x0000000000000710       0x10 /opt/microchip/xc32/v3.01/bin/bin/../../lib/gcc/pic32mx/8.3.1/../../../../pic32mx/lib/fpu64/libmfd.a(w_atan2.o)
 .gnu.attributes
                0x0000000000000720       0x10 /opt/microchip/xc32/v3.01/bin/bin/../../lib/gcc/pic32mx/8.3.1/../../../../pic32mx/lib/fpu64/libmfd.a(w_exp.o)
 .gnu.attributes
                0x0000000000000730       0x10 /opt/microchip/xc32/v3.01/bin/bin/../../lib/gcc/pic32mx/8.3.1/../../../../pic32mx/lib/fpu64/libmfd.a(w_log.o)
 .gnu.attributes
                0x0000000000000740       0x10 /opt/microchip/xc32/v3.01/bin/bin/../../lib/gcc/pic32mx/8.3.1/../../../../pic32mx/lib/fpu64/libmfd.a(w_log10.o)
 .gnu.attributes
                0x0000000000000750       0x10 /opt/microchip/xc32/v3.01/bin/bin/../../lib/gcc/pic32mx/8.3.1/../../../../pic32mx/lib/fpu64/libmfd.a(w_pow.o)
 .gnu.attributes
                0x0000000000000760       0x10 /opt/microchip/xc32/v3.01/bin/bin/../../lib/gcc/pic32mx/8.3.1/../../../../pic32mx/lib/fpu64/libmfd.a(pic32_w_sqrt.o)
 .gnu.attributes
                0x0000000000000770       0x10 /opt/microchip/xc32/v3.01/bin/bin/../../lib/gcc/pic32mx/8.3.1/../../../../pic32mx/lib/fpu64/libmfd.a(sqrtfd.o)
 .gnu.attributes
                0x0000000000000780       0x10 /opt/microchip/xc32/v3.01/bin/bin/../../lib/gcc/pic32mx/8.3.1/../../../../pic32mx/lib/fpu64/libmfd.a(strtod.o)
 .gnu.attributes
                0x0000000000000790       0x10 /opt/microchip/xc32/v3.01/bin/bin/../../lib/gcc/pic32mx/8.3.1/../../../../pic32mx/lib/fpu64/libmfd.a(e_atan2.o)
 .gnu.attributes
                0x00000000000007a0       0x10 /opt/microchip/xc32/v3.01/bin/bin/../../lib/gcc/pic32mx/8.3.1/../../../../pic32mx/lib/fpu64/libmfd.a(e_exp.o)
 .gnu.attributes
                0x00000000000007b0       0x10 /opt/microchip/xc32/v3.01/bin/bin/../../lib/gcc/pic32mx/8.3.1/../../../../pic32mx/lib/fpu64/libmfd.a(e_log.o)
 .gnu.attributes
                0x00000000000007c0       0x10 /opt/microchip/xc32/v3.01/bin/bin/../../lib/gcc/pic32mx/8.3.1/../../../../pic32mx/lib/fpu64/libmfd.a(e_log10.o)
 .gnu.attributes
                0x00000000000007d0       0x10 /opt/microchip/xc32/v3.01/bin/bin/../../lib/gcc/pic32mx/8.3.1/../../../../pic32mx/lib/fpu64/libmfd.a(e_pow.o)
 .gnu.attributes
                0x00000000000007e0       0x10 /opt/microchip/xc32/v3.01/bin/bin/../../lib/gcc/pic32mx/8.3.1/../../../../pic32mx/lib/fpu64/libmfd.a(e_rem_pio2.o)
 .gnu.attributes
                0x00000000000007f0       0x10 /opt/microchip/xc32/v3.01/bin/bin/../../lib/gcc/pic32mx/8.3.1/../../../../pic32mx/lib/fpu64/libmfd.a(k_cos.o)
 .gnu.attributes
                0x0000000000000800       0x10 /opt/microchip/xc32/v3.01/bin/bin/../../lib/gcc/pic32mx/8.3.1/../../../../pic32mx/lib/fpu64/libmfd.a(k_sin.o)
 .gnu.attributes
                0x0000000000000810       0x10 /opt/microchip/xc32/v3.01/bin/bin/../../lib/gcc/pic32mx/8.3.1/../../../../pic32mx/lib/fpu64/libmfd.a(k_standard.o)
 .gnu.attributes
                0x0000000000000820       0x10 /opt/microchip/xc32/v3.01/bin/bin/../../lib/gcc/pic32mx/8.3.1/../../../../pic32mx/lib/fpu64/libmfd.a(s_atan.o)
 .gnu.attributes
                0x0000000000000830       0x10 /opt/microchip/xc32/v3.01/bin/bin/../../lib/gcc/pic32mx/8.3.1/../../../../pic32mx/lib/fpu64/libmfd.a(s_rint.o)
 .gnu.attributes
                0x0000000000000840       0x10 /opt/microchip/xc32/v3.01/bin/bin/../../lib/gcc/pic32mx/8.3.1/../../../../pic32mx/lib/fpu64/libmfd.a(s_scalbn.o)
 .gnu.attributes
                0x0000000000000850       0x10 /opt/microchip/xc32/v3.01/bin/bin/../../lib/gcc/pic32mx/8.3.1/fpu64/libgcc.a(_lshrdi3.o)
 .gnu.attributes
                0x0000000000000860       0x10 /opt/microchip/xc32/v3.01/bin/bin/../../lib/gcc/pic32mx/8.3.1/fpu64/libgcc.a(_cmpdi2.o)
 .gnu.attributes
                0x0000000000000870       0x10 /opt/microchip/xc32/v3.01/bin/bin/../../lib/gcc/pic32mx/8.3.1/fpu64/libgcc.a(_umoddi3.o)
 .gnu.attributes
                0x0000000000000880       0x10 /opt/microchip/xc32/v3.01/bin/bin/../../lib/gcc/pic32mx/8.3.1/../../../../pic32mx/lib/fpu64/libpic32.a(sbrk.o)
 .gnu.attributes
                0x0000000000000890       0x10 /opt/microchip/xc32/v3.01/bin/bin/../../lib/gcc/pic32mx/8.3.1/../../../../pic32mx/lib/fpu64/libpic32.a(write.o)
                0x000000009d000000                PROVIDE (__pic32_init_cache_program_base_addr = 0x9d000000)
                0x0000000080000000                PROVIDE (__pic32_init_cache_data_base_addr = 0x80000000)
                0x00000000d0000000                PROVIDE (__pic32_init_sqi_kseg2_virtual_base_addr = 0xd0000000)
                0x0000000030000000                PROVIDE (__pic32_init_sqi_kseg2_physical_base_addr = 0x30000000)
                0x000000000000001f                PROVIDE (__pic32_init_sqi_kseg2_entrylo0_bitset = 0x1f)
                0x00000000d0000000                __pic32_tlb_0_entryhi = __pic32_init_sqi_kseg2_virtual_base_addr
                0x0000000000c0001f                __pic32_tlb_0_entrylo0 = ((__pic32_init_sqi_kseg2_physical_base_addr >> 0x6) | __pic32_init_sqi_kseg2_entrylo0_bitset)
                0x0000000000c4001f                __pic32_tlb_0_entrylo1 = (__pic32_tlb_0_entrylo0 | ((__pic32_init_sqi_kseg2_physical_base_addr + 0x1000000) >> 0x6))
                0x00000000d2000000                __pic32_tlb_1_entryhi = (__pic32_init_sqi_kseg2_virtual_base_addr + 0x2000000)
                0x0000000000c8001f                __pic32_tlb_1_entrylo0 = (((__pic32_init_sqi_kseg2_physical_base_addr + 0x2000000) >> 0x6) | __pic32_init_sqi_kseg2_entrylo0_bitset)
                0x0000000000cc001f                __pic32_tlb_1_entrylo1 = (__pic32_tlb_1_entrylo0 | 0x40000)
                0x00000000f0000000                PROVIDE (__pic32_init_sqi_kseg3_virtual_base_addr = 0xf0000000)
                0x0000000030000000                PROVIDE (__pic32_init_sqi_kseg3_physical_base_addr = 0x30000000)
                0x0000000000000017                PROVIDE (__pic32_init_sqi_kseg3_entrylo0_bitset = 0x17)
                0x00000000f0000000                __pic32_tlb_2_entryhi = __pic32_init_sqi_kseg3_virtual_base_addr
                0x0000000000c00017                __pic32_tlb_2_entrylo0 = ((__pic32_init_sqi_kseg3_physical_base_addr >> 0x6) | __pic32_init_sqi_kseg3_entrylo0_bitset)
                0x0000000000c40017                __pic32_tlb_2_entrylo1 = (__pic32_tlb_2_entrylo0 | ((__pic32_init_sqi_kseg3_physical_base_addr + 0x1000000) >> 0x6))
                0x00000000f2000000                __pic32_tlb_3_entryhi = (__pic32_init_sqi_kseg3_virtual_base_addr + 0x2000000)
                0x0000000000c80017                __pic32_tlb_3_entrylo0 = (((__pic32_init_sqi_kseg3_physical_base_addr + 0x2000000) >> 0x6) | __pic32_init_sqi_kseg3_entrylo0_bitset)
                0x0000000000cc0017                __pic32_tlb_3_entrylo1 = (__pic32_tlb_3_entrylo0 | 0x40000)
                0x00000000c0000000                PROVIDE (__pic32_init_ebi_kseg2_virtual_base_addr = 0xc0000000)
                0x0000000020000000                PROVIDE (__pic32_init_ebi_kseg2_physical_base_addr = 0x20000000)
                0x000000000000001f                PROVIDE (__pic32_init_ebi_kseg2_entrylo0_bitset = 0x1f)
                0x00000000c0000000                __pic32_tlb_4_entryhi = __pic32_init_ebi_kseg2_virtual_base_addr
                0x000000000080001f                __pic32_tlb_4_entrylo0 = ((__pic32_init_ebi_kseg2_physical_base_addr >> 0x6) | __pic32_init_ebi_kseg2_entrylo0_bitset)
                0x000000000084001f                __pic32_tlb_4_entrylo1 = (__pic32_tlb_4_entrylo0 | ((__pic32_init_ebi_kseg2_physical_base_addr + 0x1000000) >> 0x6))
                0x00000000c2000000                __pic32_tlb_5_entryhi = (__pic32_init_ebi_kseg2_virtual_base_addr + 0x2000000)
                0x000000000088001f                __pic32_tlb_5_entrylo0 = (((__pic32_init_ebi_kseg2_physical_base_addr + 0x2000000) >> 0x6) | __pic32_init_ebi_kseg2_entrylo0_bitset)
                0x00000000008c001f                __pic32_tlb_5_entrylo1 = (__pic32_tlb_5_entrylo0 | 0x40000)
                0x00000000e0000000                PROVIDE (__pic32_init_ebi_kseg3_virtual_base_addr = 0xe0000000)
                0x0000000020000000                PROVIDE (__pic32_init_ebi_kseg3_physical_base_addr = 0x20000000)
                0x0000000000000017                PROVIDE (__pic32_init_ebi_kseg3_entrylo0_bitset = 0x17)
                0x00000000e0000000                __pic32_tlb_6_entryhi = __pic32_init_ebi_kseg3_virtual_base_addr
                0x0000000000800017                __pic32_tlb_6_entrylo0 = ((__pic32_init_ebi_kseg3_physical_base_addr >> 0x6) | __pic32_init_ebi_kseg3_entrylo0_bitset)
                0x0000000000840017                __pic32_tlb_6_entrylo1 = (__pic32_tlb_6_entrylo0 | ((__pic32_init_ebi_kseg3_physical_base_addr + 0x1000000) >> 0x6))
                0x00000000e2000000                __pic32_tlb_7_entryhi = (__pic32_init_ebi_kseg3_virtual_base_addr + 0x2000000)
                0x0000000000880017                __pic32_tlb_7_entrylo0 = (((__pic32_init_ebi_kseg3_physical_base_addr + 0x2000000) >> 0x6) | __pic32_init_ebi_kseg3_entrylo0_bitset)
                0x00000000008c0017                __pic32_tlb_7_entrylo1 = (__pic32_tlb_7_entrylo0 | 0x40000)

.tlb_init_values
                0x00000000bd000670       0x60
                0x00000000bd000670                . = ALIGN (0x4)
                0x00000000bd000670                __pic32_tlb_init_values_begin = ABSOLUTE (.)
                0x00000000bd000670        0x4 LONG 0xd0000000 __pic32_tlb_0_entryhi
                0x00000000bd000674        0x4 LONG 0xc0001f __pic32_tlb_0_entrylo0
                0x00000000bd000678        0x4 LONG 0xc4001f __pic32_tlb_0_entrylo1
                0x00000000bd00067c        0x4 LONG 0xd2000000 __pic32_tlb_1_entryhi
                0x00000000bd000680        0x4 LONG 0xc8001f __pic32_tlb_1_entrylo0
                0x00000000bd000684        0x4 LONG 0xcc001f __pic32_tlb_1_entrylo1
                0x00000000bd000688        0x4 LONG 0xf0000000 __pic32_tlb_2_entryhi
                0x00000000bd00068c        0x4 LONG 0xc00017 __pic32_tlb_2_entrylo0
                0x00000000bd000690        0x4 LONG 0xc40017 __pic32_tlb_2_entrylo1
                0x00000000bd000694        0x4 LONG 0xf2000000 __pic32_tlb_3_entryhi
                0x00000000bd000698        0x4 LONG 0xc80017 __pic32_tlb_3_entrylo0
                0x00000000bd00069c        0x4 LONG 0xcc0017 __pic32_tlb_3_entrylo1
                0x00000000bd0006a0        0x4 LONG 0xc0000000 __pic32_tlb_4_entryhi
                0x00000000bd0006a4        0x4 LONG 0x80001f __pic32_tlb_4_entrylo0
                0x00000000bd0006a8        0x4 LONG 0x84001f __pic32_tlb_4_entrylo1
                0x00000000bd0006ac        0x4 LONG 0xc2000000 __pic32_tlb_5_entryhi
                0x00000000bd0006b0        0x4 LONG 0x88001f __pic32_tlb_5_entrylo0
                0x00000000bd0006b4        0x4 LONG 0x8c001f __pic32_tlb_5_entrylo1
                0x00000000bd0006b8        0x4 LONG 0xe0000000 __pic32_tlb_6_entryhi
                0x00000000bd0006bc        0x4 LONG 0x800017 __pic32_tlb_6_entrylo0
                0x00000000bd0006c0        0x4 LONG 0x840017 __pic32_tlb_6_entrylo1
                0x00000000bd0006c4        0x4 LONG 0xe2000000 __pic32_tlb_7_entryhi
                0x00000000bd0006c8        0x4 LONG 0x880017 __pic32_tlb_7_entrylo0
                0x00000000bd0006cc        0x4 LONG 0x8c0017 __pic32_tlb_7_entrylo1
                0x00000000bd0006d0                __pic32_tlb_init_values_end = ABSOLUTE (.)
                0x00000000bd000678                __pic32_tlb_init_values_count = 0x8
                0x0000000000000200                _min_heap_size = 0x200
LOAD /tmp/ccrPvX7l.o
LOAD /tmp/cc7YmRsm.o
LOAD /tmp/ccnC5Jjm.o
LOAD /tmp/ccqBJATo.o
LOAD /opt/microchip/xc32/v3.01/bin/bin/../../lib/gcc/pic32mx/8.3.1/../../../../pic32mx/lib/fpu64/pic32_software_reset.o
LOAD /opt/microchip/xc32/v3.01/bin/bin/../../lib/gcc/pic32mx/8.3.1/fpu64/libgcc.a
START GROUP
LOAD /opt/microchip/xc32/v3.01/bin/bin/../../lib/gcc/pic32mx/8.3.1/../../../../pic32mx/lib/fpu64/libpic32.a
LOAD /opt/microchip/xc32/v3.01/bin/bin/../../lib/gcc/pic32mx/8.3.1/../../../../pic32mx/lib/fpu64/libdebug.a
LOAD /opt/microchip/xc32/v3.01/bin/bin/../../lib/gcc/pic32mx/8.3.1/../../../../pic32mx/lib/fpu64/libc.a
LOAD /opt/microchip/xc32/v3.01/bin/bin/../../lib/gcc/pic32mx/8.3.1/../../../../pic32mx/lib/fpu64/libmfd.a
LOAD /opt/microchip/xc32/v3.01/bin/bin/../../lib/gcc/pic32mx/8.3.1/../../../../pic32mx/lib/fpu64/libm.a
LOAD /opt/microchip/xc32/v3.01/bin/bin/../../lib/gcc/pic32mx/8.3.1/../../../../pic32mx/lib/fpu64/libe.a
LOAD /opt/microchip/xc32/v3.01/bin/bin/../../lib/gcc/pic32mx/8.3.1/../../../../pic32mx/lib/fpu64/libdspr2.a
LOAD /opt/microchip/xc32/v3.01/bin/bin/../../lib/gcc/pic32mx/8.3.1/../../../../pic32mx/lib/fpu64/libdsp.a
LOAD /opt/microchip/xc32/v3.01/bin/bin/../../lib/gcc/pic32mx/8.3.1/fpu64/libgcc.a
LOAD /opt/microchip/xc32/v3.01/bin/bin/../../lib/gcc/pic32mx/8.3.1/../../../../pic32mx/lib/fpu64/libpic32.a
END GROUP
LOAD /opt/microchip/xc32/v3.01/bin/bin/../../lib/gcc/pic32mx/8.3.1/fpu64/libgcc.a
OUTPUT(dist/pic32mz2048efm/production/GHA_App_EFM.X.production.elf elf32-tradlittlemips)
LOAD stack
LOAD data_init

.reginfo        0x0000000000000000       0x18
 .reginfo       0x0000000000000000       0x18 /opt/microchip/xc32/v3.01/bin/bin/../../lib/gcc/pic32mx/8.3.1/../../../../pic32mx/lib/fpu64/debug-exception-return.o

.stack          0x0000000080017810      0x400
 .stack         0x0000000080017810      0x400 stack

.__vector_offset_BF810540_data
                0x00000000bf810540      0x1b0
 .__vector_offset_BF810540_data
                0x00000000bf810540      0x1b0 /tmp/ccnC5Jjm.o

.__vector_offset_BF8106F4_data
                0x00000000bf8106f4      0x148
 .__vector_offset_BF8106F4_data
                0x00000000bf8106f4      0x148 /tmp/ccnC5Jjm.o

.__vector_offset_BF810874_data
                0x00000000bf810874       0x18
 .__vector_offset_BF810874_data
                0x00000000bf810874       0x18 /tmp/ccnC5Jjm.o

.__vector_offset_BF810858_data
                0x00000000bf810858       0x14
 .__vector_offset_BF810858_data
                0x00000000bf810858       0x14 /tmp/ccnC5Jjm.o

.__vector_offset_BF810840_data
                0x00000000bf810840        0xc
 .__vector_offset_BF810840_data
                0x00000000bf810840        0xc /tmp/ccnC5Jjm.o

.__vector_offset_BF810850_data
                0x00000000bf810850        0x4
 .__vector_offset_BF810850_data
                0x00000000bf810850        0x4 /tmp/ccnC5Jjm.o

.__vector_offset_BF810894_data
                0x00000000bf810894        0x4
 .__vector_offset_BF810894_data
                0x00000000bf810894        0x4 /tmp/ccnC5Jjm.o

.COHERENTBSS$   0x00000000a0000110     0x4b26
 .COHERENTBSS$  0x00000000a0000110     0x36b0 build/pic32mz2048efm/production/_ext/1538077638/sys_fs_fat_interface.o
 .bss.gSysFsDiskData.gSysFsDiskData
                0x00000000a00037c0      0x210 build/pic32mz2048efm/production/_ext/1545496361/diskio.o
 .bss.gUSBDeviceCDCSerialStateResponse.gUSBDeviceCDCSerialStateResponse
                0x00000000a00039d0        0xa build/pic32mz2048efm/production/_ext/196169617/usb_device_cdc.o
                0x00000000a00039d0                gUSBDeviceCDCSerialStateResponse
 *fill*         0x00000000a00039da        0x2 
 .bss.FATFSVolume.FATFSVolume
                0x00000000a00039dc      0x23c build/pic32mz2048efm/production/_ext/1538077638/sys_fs_fat_interface.o
 .bss.gSYSFSMediaBlockBuffer.gSYSFSMediaBlockBuffer
                0x00000000a0003c18      0x800 build/pic32mz2048efm/production/_ext/1538077638/sys_fs_media_manager.o
                0x00000000a0003c18                gSYSFSMediaBlockBuffer
 .bss.gSYSFSMediaBuffer.gSYSFSMediaBuffer
                0x00000000a0004418      0x200 build/pic32mz2048efm/production/_ext/1538077638/sys_fs_media_manager.o
                0x00000000a0004418                gSYSFSMediaBuffer
 .bss.gDrvSPIObj.gDrvSPIObj
                0x00000000a0004618       0x50 build/pic32mz2048efm/production/_ext/1807302558/drv_spi.o
 .bss.gDrvSDSPITempCidData.gDrvSDSPITempCidData
                0x00000000a0004668       0x14 build/pic32mz2048efm/production/_ext/1044926641/drv_sdspi.o
 .bss.gDrvSDSPICidData.gDrvSDSPICidData
                0x00000000a000467c       0x14 build/pic32mz2048efm/production/_ext/1044926641/drv_sdspi.o
 .bss.gDrvSDSPICsdData.gDrvSDSPICsdData
                0x00000000a0004690       0x14 build/pic32mz2048efm/production/_ext/1044926641/drv_sdspi.o
 .bss.gDrvSDSPICmdResponseBuffer.gDrvSDSPICmdResponseBuffer
                0x00000000a00046a4       0x10 build/pic32mz2048efm/production/_ext/1044926641/drv_sdspi.o
 .bss.FATFSDirObject.FATFSDirObject
                0x00000000a00046b4      0x578 build/pic32mz2048efm/production/_ext/1538077638/sys_fs_fat_interface.o
 .bss.gDrvSDSPIClkPulseData.gDrvSDSPIClkPulseData
                0x00000000a0004c2c        0xa build/pic32mz2048efm/production/_ext/1044926641/drv_sdspi.o

.data           0x0000000080004c40     0xd310
 .data          0x0000000080004c40     0xd310 build/pic32mz2048efm/production/_ext/858502545/figaro_gpr_params.o
                0x0000000080004c40                FigaroGPRR_2Param
                0x00000000800084c0                FigaroGPRR_3Param
                0x000000008000d010                FigaroGPRImag_6Param

.bss            0x0000000080011f50     0x2a10
 .bss           0x0000000080011f50     0x1c34 build/pic32mz2048efm/production/_ext/1538077638/sys_fs.o
                0x0000000080011f50                gSYSFSDirObj
                0x00000000800120e0                gSYSFSFileObj
                0x0000000080013b70                gSYSFSMountPoint
 .bss           0x0000000080013b84      0xddc build/pic32mz2048efm/production/_ext/1360937237/mdot.o
                0x0000000080013b84                strTest
                0x0000000080013c4c                stringBuffer
                0x0000000080014848                mDotData

.bss            0x0000000080014960      0xf94
 .bss           0x0000000080014960      0x990 build/pic32mz2048efm/production/_ext/1230022092/ad5940main.o
                0x0000000080014960                figImag
                0x0000000080014a28                figReal
                0x0000000080014af0                AppBuff
 .bss           0x00000000800152f0      0x604 build/pic32mz2048efm/production/_ext/1360937237/auxillary_sensors.o
                0x00000000800152f0                humidityRA
                0x00000000800154d8                temperatureRA
                0x00000000800156c0                pressureRA
                0x00000000800158a8                humidityData
                0x00000000800158b4                pressureData
                0x00000000800158cc                i2c2_rx_buffer
                0x00000000800158e0                i2c2_tx_buffer

.bss            0x00000000800158f4      0x4d0
 .bss           0x00000000800158f4      0x4d0 build/pic32mz2048efm/production/_ext/1360937237/communication.o
                0x00000000800158f4                uartComData2
                0x0000000080015b5c                uartComData6

.data           0x0000000080015dc4      0x3f0
 .data          0x0000000080015dc4      0x3f0 build/pic32mz2048efm/production/_ext/1230022092/BodyImpedance.o
                0x0000000080015dc4                AppBIACfg

.bss            0x00000000800161b4      0x5f8
 .bss           0x00000000800161b4      0x390 build/pic32mz2048efm/production/_ext/1225530592/ff.o
 .bss           0x0000000080016544      0x268 build/pic32mz2048efm/production/_ext/2011215161/initialization.o
                0x0000000080016544                sysObj

.bss            0x00000000800167ac      0x3a4
 .bss           0x00000000800167ac      0x1d4 build/pic32mz2048efm/production/_ext/1449458886/drv_usbhs.o
                0x00000000800167ac                gDrvUSBEndpoints
                0x000000008001684c                gDrvUSBObj
 .bss           0x0000000080016980      0x1d0 build/pic32mz2048efm/production/_ext/1360937237/nmea.o
                0x0000000080016980                strA
                0x0000000080016b10                rmcData

.bss            0x0000000080016b50      0x260
 .bss           0x0000000080016b50      0x158 build/pic32mz2048efm/production/_ext/196169617/usb_device.o
 .bss           0x0000000080016ca8      0x108 build/pic32mz2048efm/production/_ext/1360937237/app.o
                0x0000000080016ca8                appData

.bss            0x0000000080016db0      0x1ac
 .bss           0x0000000080016db0       0xdc build/pic32mz2048efm/production/_ext/519320518/sys_time.o
 .bss           0x0000000080016e8c       0xd0 build/pic32mz2048efm/production/_ext/1044926641/drv_sdspi.o

.bss            0x0000000080016f5c      0x184
 .bss           0x0000000080016f5c       0xcc build/pic32mz2048efm/production/_ext/1360937237/eeprom.o
                0x0000000080016f5c                eepromData
 .bss           0x0000000080017028       0xb8 build/pic32mz2048efm/production/_ext/1360937237/messaging.o
                0x0000000080017028                decommission
                0x0000000080017038                commisioning
                0x0000000080017060                firmwareUpdate
                0x0000000080017070                parameterUpdate
                0x0000000080017090                measurement

.bss            0x00000000800170e0       0xb0
 .bss           0x00000000800170e0       0xb0 build/pic32mz2048efm/production/_ext/196169617/usb_device_cdc.o
                0x00000000800170e0                gUSBDeviceCDCInstance
                0x0000000080017124                gUSBDeviceCDCIRP

.data           0x0000000080017190       0xf4
 .data          0x0000000080017190       0xa4 /opt/microchip/xc32/v3.01/bin/bin/../../lib/gcc/pic32mx/8.3.1/../../../../pic32mx/lib/fpu64/libc.a(_iob.o)
                0x0000000080017190                _Files
                0x0000000080017194                _iob
 .data          0x0000000080017234       0x50 build/pic32mz2048efm/production/_ext/1449458886/drv_usbhs_device.o
                0x0000000080017234                gDrvUSBHSDeviceInterface

.bss            0x0000000080017284       0x90
 .bss           0x0000000080017284       0x48 build/pic32mz2048efm/production/_ext/1538077638/sys_fs_media_manager.o
                0x0000000080017284                gSYSFSVolumeObject
                0x00000000800172a0                gSYSFSMediaObject
 .bss           0x00000000800172cc       0x48 build/pic32mz2048efm/production/_ext/1360937237/time_keeping.o
                0x00000000800172cc                alarm_time
                0x00000000800172f0                sys_time

.bss            0x0000000080017314       0x41
 .bss           0x0000000080017314       0x41 /opt/microchip/xc32/v3.01/bin/bin/../../lib/gcc/pic32mx/8.3.1/../../../../pic32mx/lib/fpu64/libc.a(_iob.o)
                0x0000000080017314                _sobuf
                0x0000000080017334                _sibuf
                0x0000000080017354                _outdone

.bss            0x0000000080017358       0x68
 .bss           0x0000000080017358       0x34 build/pic32mz2048efm/production/_ext/1683951966/plib_i2c2_master.o
 .bss           0x000000008001738c       0x34 build/pic32mz2048efm/production/_ext/1683951966/plib_i2c4_master.o

.bss            0x00000000800173c0       0x68
 .bss           0x00000000800173c0       0x34 build/pic32mz2048efm/production/_ext/1448221497/plib_uart6.o
                0x00000000800173c0                uart6Obj
 .bss           0x00000000800173f4       0x34 build/pic32mz2048efm/production/_ext/1448221497/plib_uart3.o
                0x00000000800173f4                uart3Obj

.bss            0x0000000080017428       0x68
 .bss           0x0000000080017428       0x34 build/pic32mz2048efm/production/_ext/1448221497/plib_uart1.o
                0x0000000080017428                uart1Obj
 .bss           0x000000008001745c       0x34 build/pic32mz2048efm/production/_ext/1448221497/plib_uart2.o
                0x000000008001745c                uart2Obj

.data           0x0000000080017490       0x2c
 .data          0x0000000080017490       0x2c build/pic32mz2048efm/production/_ext/1538077638/sys_fs_media_manager.o
                0x0000000080017490                gSYSFSMediaManagerObj
                0x00000000800174a8                gSYSFSVolumeName

.bss            0x00000000800174bc       0x50
 .bss           0x00000000800174bc       0x28 build/pic32mz2048efm/production/_ext/1007818685/plib_spi4_master.o
                0x00000000800174bc                spi4Obj
 .bss           0x00000000800174e4       0x28 build/pic32mz2048efm/production/_ext/1007818685/plib_spi5_master.o
                0x00000000800174e4                spi5Obj

.bss            0x000000008001750c       0x50
 .bss           0x000000008001750c       0x28 build/pic32mz2048efm/production/_ext/1007818685/plib_spi2_master.o
                0x000000008001750c                spi2Obj
 .bss           0x0000000080017534       0x28 build/pic32mz2048efm/production/_ext/1007818685/plib_spi1_master.o
                0x0000000080017534                spi1Obj

.bss            0x000000008001755c       0x48
 .bss           0x000000008001755c       0x24 build/pic32mz2048efm/production/_ext/1447818554/plib_gpio.o
                0x000000008001755c                portPinCbObj
 .bss           0x0000000080017580       0x24 /opt/microchip/xc32/v3.01/bin/bin/../../lib/gcc/pic32mx/8.3.1/../../../../pic32mx/lib/fpu64/libpic32.a(sbrk.o)
                0x000000008001759c                _maxbrk
                0x00000000800175a0                _minbrk

.bss            0x00000000800175a4       0x3c
 .bss           0x00000000800175a4       0x20 /opt/microchip/xc32/v3.01/bin/bin/../../lib/gcc/pic32mx/8.3.1/../../../../pic32mx/lib/fpu64/libc.a(malloc.o)
                0x00000000800175a4                __allocx
                0x00000000800175ac                __alloct
                0x00000000800175b0                __allocp
                0x00000000800175b4                __allocs
 .bss           0x00000000800175c4       0x1c build/pic32mz2048efm/production/_ext/1230022092/ad5940.o
                0x00000000800175c4                SeqGenDB

.data           0x00000000800175e0        0xb
 .data          0x00000000800175e0        0xb build/pic32mz2048efm/production/_ext/1447818554/plib_gpio.o
                0x00000000800175e0                portNumCb

.bss            0x00000000800175ec        0x4
 .bss           0x00000000800175ec        0x4 /opt/microchip/xc32/v3.01/bin/bin/../../lib/gcc/pic32mx/8.3.1/../../../../pic32mx/lib/fpu64/libc.a(buf.o)

.bss.errno      0x00000000800175f0        0x4
 .bss.errno     0x00000000800175f0        0x4 /opt/microchip/xc32/v3.01/bin/bin/../../lib/gcc/pic32mx/8.3.1/../../../../pic32mx/lib/fpu64/libc.a(errno.o)
                0x00000000800175f0                errno

.dinit          0x000000009d001340     0xdf80
 .dinit         0x000000009d001340     0xdf80 data_init

.text.mpfit     0x000000009d00f2c0     0x45a0
 .text.mpfit    0x000000009d00f2c0     0x45a0 build/pic32mz2048efm/production/_ext/858502545/mpfit.o
                0x000000009d00f2c0                mpfit

.text.DRV_SDSPI_Tasks
                0x000000009d013860     0x2bcc
 .text.DRV_SDSPI_Tasks
                0x000000009d013860     0x2bcc build/pic32mz2048efm/production/_ext/1044926641/drv_sdspi.o
                0x000000009d013860                DRV_SDSPI_Tasks

.text._vfprintf_cdgGnopsuxX
                0x000000009d01642c     0x16a4
 .text._vfprintf_cdgGnopsuxX
                0x000000009d01642c     0x16a4 /opt/microchip/xc32/v3.01/bin/bin/../../lib/gcc/pic32mx/8.3.1/../../../../pic32mx/lib/fpu64/libc.a(doprnt_cdgGnopsuxX.eo)
                0x000000009d01642c                _vfprintf_cdgGnopsuxX

.text._vfprintf_fF
                0x000000009d017ad0      0xecc
 .text._vfprintf_fF
                0x000000009d017ad0      0xecc /opt/microchip/xc32/v3.01/bin/bin/../../lib/gcc/pic32mx/8.3.1/../../../../pic32mx/lib/fpu64/libc.a(doprnt_fF.eo)
                0x000000009d017ad0                _vfprintf_fF

.text._DRV_SDSPI_CommandSend
                0x000000009d01899c      0xdbc
 .text._DRV_SDSPI_CommandSend
                0x000000009d01899c      0xdbc build/pic32mz2048efm/production/_ext/1044926641/drv_sdspi.o

.text.f_mkfs    0x000000009d019758      0xbc4
 .text.f_mkfs   0x000000009d019758      0xbc4 build/pic32mz2048efm/production/_ext/1225530592/ff.o
                0x000000009d019758                f_mkfs

.text._DRV_USBHS_DEVICE_Tasks_ISR
                0x000000009d01a31c      0x9b4
 .text._DRV_USBHS_DEVICE_Tasks_ISR
                0x000000009d01a31c      0x9b4 build/pic32mz2048efm/production/_ext/1449458886/drv_usbhs_device.o
                0x000000009d01a31c                _DRV_USBHS_DEVICE_Tasks_ISR

.text.__ieee754_pow
                0x000000009d01acd0      0x988
 .text.__ieee754_pow
                0x000000009d01acd0      0x988 /opt/microchip/xc32/v3.01/bin/bin/../../lib/gcc/pic32mx/8.3.1/../../../../pic32mx/lib/fpu64/libmfd.a(e_pow.o)
                0x000000009d01acd0                __ieee754_pow

.text._vfprintf_cdnopsuxX
                0x000000009d01b658      0x8cc
 .text._vfprintf_cdnopsuxX
                0x000000009d01b658      0x8cc /opt/microchip/xc32/v3.01/bin/bin/../../lib/gcc/pic32mx/8.3.1/../../../../pic32mx/lib/fpu64/libc.a(doprnt_cdnopsuxX.eo)
                0x000000009d01b658                _vfprintf_cdnopsuxX

.text.__kernel_standard
                0x000000009d01bf24      0x804
 .text.__kernel_standard
                0x000000009d01bf24      0x804 /opt/microchip/xc32/v3.01/bin/bin/../../lib/gcc/pic32mx/8.3.1/../../../../pic32mx/lib/fpu64/libmfd.a(k_standard.o)
                0x000000009d01bf24                __kernel_standard

.text.AppBIAInit
                0x000000009d01c728      0x7b4
 .text.AppBIAInit
                0x000000009d01c728      0x7b4 build/pic32mz2048efm/production/_ext/1230022092/BodyImpedance.o
                0x000000009d01c728                AppBIAInit

.text.SYS_FS_MEDIA_MANAGER_Tasks
                0x000000009d01cedc      0x6cc
 .text.SYS_FS_MEDIA_MANAGER_Tasks
                0x000000009d01cedc      0x6cc build/pic32mz2048efm/production/_ext/1538077638/sys_fs_media_manager.o
                0x000000009d01cedc                SYS_FS_MEDIA_MANAGER_Tasks

.text           0x000000009d01d5a8      0x6bc
 .text          0x000000009d01d5a8      0x6bc build/pic32mz2048efm/production/_ext/1928555383/plib_cache_pic32mz.o
                0x000000009d01d5a8                _pic32_init_cache
                0x000000009d01d6ac                _pic32_clean_cache
                0x000000009d01d6d8                _pic32_clean_dcache
                0x000000009d01d730                _pic32_clean_dcache_nowrite
                0x000000009d01d788                _pic32_clean_icache
                0x000000009d01d7e0                _pic32_flush_cache
                0x000000009d01d80c                _pic32_flush_dcache
                0x000000009d01d8a0                _pic32_flush_icache
                0x000000009d01d934                _pic32_lock_dcache
                0x000000009d01d98c                _pic32_lock_icache
                0x000000009d01d9e4                _pic32_sync_icache
                0x000000009d01da20                _pic32_get_dcache_associativity
                0x000000009d01da54                _pic32_get_icache_associativity
                0x000000009d01da8c                _pic32_get_dcache_linesize
                0x000000009d01dad0                _pic32_get_icache_linesize
                0x000000009d01db18                _pic32_get_dcache_lines_per_way
                0x000000009d01db54                _pic32_get_icache_lines_per_way
                0x000000009d01db94                _pic32_get_dcache_size
                0x000000009d01dbfc                _pic32_get_icache_size

.text.AD5940_HSRtiaCal
                0x000000009d01dc64      0x680
 .text.AD5940_HSRtiaCal
                0x000000009d01dc64      0x680 build/pic32mz2048efm/production/_ext/1230022092/ad5940.o
                0x000000009d01dc64                AD5940_HSRtiaCal

.text.follow_path
                0x000000009d01e2e4      0x670
 .text.follow_path
                0x000000009d01e2e4      0x670 build/pic32mz2048efm/production/_ext/1225530592/ff.o

.text.mount_volume
                0x000000009d01e954      0x58c
 .text.mount_volume
                0x000000009d01e954      0x58c build/pic32mz2048efm/production/_ext/1225530592/ff.o

.text.DRV_USBHS_Tasks
                0x000000009d01eee0      0x568
 .text.DRV_USBHS_Tasks
                0x000000009d01eee0      0x568 build/pic32mz2048efm/production/_ext/1449458886/drv_usbhs.o
                0x000000009d01eee0                DRV_USBHS_Tasks

.text.DRV_USBHS_DEVICE_IRPSubmit
                0x000000009d01f448      0x510
 .text.DRV_USBHS_DEVICE_IRPSubmit
                0x000000009d01f448      0x510 build/pic32mz2048efm/production/_ext/1449458886/drv_usbhs_device.o
                0x000000009d01f448                DRV_USBHS_DEVICE_IRPSubmit

.text.f_printf  0x000000009d01f958      0x4fc
 .text.f_printf
                0x000000009d01f958      0x4fc build/pic32mz2048efm/production/_ext/1225530592/ff.o
                0x000000009d01f958                f_printf

.text.I2C2_MASTER_InterruptHandler
                0x000000009d01fe54      0x4b4
 .text.I2C2_MASTER_InterruptHandler
                0x000000009d01fe54      0x4b4 build/pic32mz2048efm/production/_ext/1683951966/plib_i2c2_master.o
                0x000000009d01fe54                I2C2_MASTER_InterruptHandler

.text.I2C4_MASTER_InterruptHandler
                0x000000009d020308      0x4b4
 .text.I2C4_MASTER_InterruptHandler
                0x000000009d020308      0x4b4 build/pic32mz2048efm/production/_ext/1683951966/plib_i2c4_master.o
                0x000000009d020308                I2C4_MASTER_InterruptHandler

.text.dir_register
                0x000000009d0207bc      0x448
 .text.dir_register
                0x000000009d0207bc      0x448 build/pic32mz2048efm/production/_ext/1225530592/ff.o

.text._DRV_USBHS_ProcessIRPFIFO
                0x000000009d020c04      0x43c
 .text._DRV_USBHS_ProcessIRPFIFO
                0x000000009d020c04      0x43c build/pic32mz2048efm/production/_ext/1449458886/drv_usbhs_device.o
                0x000000009d020c04                _DRV_USBHS_ProcessIRPFIFO

.text           0x000000009d021040      0x3f8
 .text          0x000000009d021040      0x3f8 /opt/microchip/xc32/v3.01/bin/bin/../../lib/gcc/pic32mx/8.3.1/fpu64/libgcc.a(_umoddi3.o)
                0x000000009d021040                __umoddi3

.text.f_open    0x000000009d021438      0x3f0
 .text.f_open   0x000000009d021438      0x3f0 build/pic32mz2048efm/production/_ext/1225530592/ff.o
                0x000000009d021438                f_open

.text           0x000000009d021828      0x3ec
 .text          0x000000009d021828      0x3ec /opt/microchip/xc32/v3.01/bin/bin/../../lib/gcc/pic32mx/8.3.1/fpu64/libgcc.a(_udivdi3.o)
                0x000000009d021828                __udivdi3

.text.DRV_USBHS_DEVICE_EndpointEnable
                0x000000009d021c14      0x3e8
 .text.DRV_USBHS_DEVICE_EndpointEnable
                0x000000009d021c14      0x3e8 build/pic32mz2048efm/production/_ext/1449458886/drv_usbhs_device.o
                0x000000009d021c14                DRV_USBHS_DEVICE_EndpointEnable

.text.mDotCommand
                0x000000009d021ffc      0x3bc
 .text.mDotCommand
                0x000000009d021ffc      0x3bc build/pic32mz2048efm/production/_ext/1360937237/mdot.o
                0x000000009d021ffc                mDotCommand

.rodata         0x000000009d0223b8      0x3b0
 .rodata        0x000000009d0223b8      0x3b0 build/pic32mz2048efm/production/_ext/1225530592/ffunicode.o

.text.AD5940_ClksCalculate
                0x000000009d022768      0x38c
 .text.AD5940_ClksCalculate
                0x000000009d022768      0x38c build/pic32mz2048efm/production/_ext/1230022092/ad5940.o
                0x000000009d022768                AD5940_ClksCalculate

.text.__ieee754_rem_pio2
                0x000000009d022af4      0x34c
 .text.__ieee754_rem_pio2
                0x000000009d022af4      0x34c /opt/microchip/xc32/v3.01/bin/bin/../../lib/gcc/pic32mx/8.3.1/../../../../pic32mx/lib/fpu64/libmfd.a(e_rem_pio2.o)
                0x000000009d022af4                __ieee754_rem_pio2

.text.GPIO_Initialize
                0x000000009d022e40      0x338
 .text.GPIO_Initialize
                0x000000009d022e40      0x338 build/pic32mz2048efm/production/_ext/1447818554/plib_gpio.o
                0x000000009d022e40                GPIO_Initialize

.text.I2C2TASKS_Tasks
                0x000000009d023178      0x330
 .text.I2C2TASKS_Tasks
                0x000000009d023178      0x330 build/pic32mz2048efm/production/_ext/1360937237/auxillary_sensors.o
                0x000000009d023178                I2C2TASKS_Tasks

.text.DRV_SDSPI_SetupXfer
                0x000000009d0234a8      0x32c
 .text.DRV_SDSPI_SetupXfer
                0x000000009d0234a8      0x32c build/pic32mz2048efm/production/_ext/1044926641/drv_sdspi.o
                0x000000009d0234a8                DRV_SDSPI_SetupXfer

.text.f_write   0x000000009d0237d4      0x328
 .text.f_write  0x000000009d0237d4      0x328 build/pic32mz2048efm/production/_ext/1225530592/ff.o
                0x000000009d0237d4                f_write

.text.SPI4_RX_InterruptHandler
                0x000000009d023afc      0x324
 .text.SPI4_RX_InterruptHandler
                0x000000009d023afc      0x324 build/pic32mz2048efm/production/_ext/1007818685/plib_spi4_master.o
                0x000000009d023afc                SPI4_RX_InterruptHandler

.text.SPI5_RX_InterruptHandler
                0x000000009d023e20      0x324
 .text.SPI5_RX_InterruptHandler
                0x000000009d023e20      0x324 build/pic32mz2048efm/production/_ext/1007818685/plib_spi5_master.o
                0x000000009d023e20                SPI5_RX_InterruptHandler

.text.SPI2_RX_InterruptHandler
                0x000000009d024144      0x324
 .text.SPI2_RX_InterruptHandler
                0x000000009d024144      0x324 build/pic32mz2048efm/production/_ext/1007818685/plib_spi2_master.o
                0x000000009d024144                SPI2_RX_InterruptHandler

.text.SPI1_RX_InterruptHandler
                0x000000009d024468      0x324
 .text.SPI1_RX_InterruptHandler
                0x000000009d024468      0x324 build/pic32mz2048efm/production/_ext/1007818685/plib_spi1_master.o
                0x000000009d024468                SPI1_RX_InterruptHandler

.text.SPI4_WriteRead
                0x000000009d02478c      0x310
 .text.SPI4_WriteRead
                0x000000009d02478c      0x310 build/pic32mz2048efm/production/_ext/1007818685/plib_spi4_master.o
                0x000000009d02478c                SPI4_WriteRead

.text.DRV_SPI_WriteReadTransferAdd
                0x000000009d024a9c      0x304
 .text.DRV_SPI_WriteReadTransferAdd
                0x000000009d024a9c      0x304 build/pic32mz2048efm/production/_ext/1807302558/drv_spi.o
                0x000000009d024a9c                DRV_SPI_WriteReadTransferAdd

.text.AppBIAISR
                0x000000009d024da0      0x300
 .text.AppBIAISR
                0x000000009d024da0      0x300 build/pic32mz2048efm/production/_ext/1230022092/BodyImpedance.o
                0x000000009d024da0                AppBIAISR

.text.strtod    0x000000009d0250a0      0x300
 .text.strtod   0x000000009d0250a0      0x300 /opt/microchip/xc32/v3.01/bin/bin/../../lib/gcc/pic32mx/8.3.1/../../../../pic32mx/lib/fpu64/libmfd.a(strtod.o)
                0x000000009d0250a0                strtod

.text.SYS_FS_MEDIA_MANAGER_SectorWrite
                0x000000009d0253a0      0x2f8
 .text.SYS_FS_MEDIA_MANAGER_SectorWrite
                0x000000009d0253a0      0x2f8 build/pic32mz2048efm/production/_ext/1538077638/sys_fs_media_manager.o
                0x000000009d0253a0                SYS_FS_MEDIA_MANAGER_SectorWrite

.text.f_lseek   0x000000009d025698      0x2f0
 .text.f_lseek  0x000000009d025698      0x2f0 build/pic32mz2048efm/production/_ext/1225530592/ff.o
                0x000000009d025698                f_lseek

.text.dir_find  0x000000009d025988      0x2e0
 .text.dir_find
                0x000000009d025988      0x2e0 build/pic32mz2048efm/production/_ext/1225530592/ff.o

.text.figaro_r_mox_func_fit
                0x000000009d025c68      0x2d0
 .text.figaro_r_mox_func_fit
                0x000000009d025c68      0x2d0 build/pic32mz2048efm/production/_ext/858502545/figaro_gpr_fit.o
                0x000000009d025c68                figaro_r_mox_func_fit

.text.parseNMEAstring
                0x000000009d025f38      0x2cc
 .text.parseNMEAstring
                0x000000009d025f38      0x2cc build/pic32mz2048efm/production/_ext/1360937237/nmea.o
                0x000000009d025f38                parseNMEAstring

.text.__ieee754_atan2
                0x000000009d026204      0x2cc
 .text.__ieee754_atan2
                0x000000009d026204      0x2cc /opt/microchip/xc32/v3.01/bin/bin/../../lib/gcc/pic32mx/8.3.1/../../../../pic32mx/lib/fpu64/libmfd.a(e_atan2.o)
                0x000000009d026204                __ieee754_atan2

.text.get_fileinfo
                0x000000009d0264d0      0x2c0
 .text.get_fileinfo
                0x000000009d0264d0      0x2c0 build/pic32mz2048efm/production/_ext/1225530592/ff.o

.text.__ieee754_exp
                0x000000009d026790      0x2c0
 .text.__ieee754_exp
                0x000000009d026790      0x2c0 /opt/microchip/xc32/v3.01/bin/bin/../../lib/gcc/pic32mx/8.3.1/../../../../pic32mx/lib/fpu64/libmfd.a(e_exp.o)
                0x000000009d026790                __ieee754_exp

.text.f_setlabel
                0x000000009d026a50      0x2bc
 .text.f_setlabel
                0x000000009d026a50      0x2bc build/pic32mz2048efm/production/_ext/1225530592/ff.o
                0x000000009d026a50                f_setlabel

.text.f_read    0x000000009d026d0c      0x2b8
 .text.f_read   0x000000009d026d0c      0x2b8 build/pic32mz2048efm/production/_ext/1225530592/ff.o
                0x000000009d026d0c                f_read

.text.measurement2Bytes
                0x000000009d026fc4      0x2b8
 .text.measurement2Bytes
                0x000000009d026fc4      0x2b8 build/pic32mz2048efm/production/_ext/1360937237/messaging.o
                0x000000009d026fc4                measurement2Bytes

.text.__ieee754_log
                0x000000009d02727c      0x2b0
 .text.__ieee754_log
                0x000000009d02727c      0x2b0 /opt/microchip/xc32/v3.01/bin/bin/../../lib/gcc/pic32mx/8.3.1/../../../../pic32mx/lib/fpu64/libmfd.a(e_log.o)
                0x000000009d02727c                __ieee754_log

.text._atanx    0x000000009d02752c      0x2b0
 .text._atanx   0x000000009d02752c      0x2b0 /opt/microchip/xc32/v3.01/bin/bin/../../lib/gcc/pic32mx/8.3.1/../../../../pic32mx/lib/fpu64/libmfd.a(s_atan.o)
                0x000000009d02752c                _atanx

.text.mDotTasks
                0x000000009d0277dc      0x298
 .text.mDotTasks
                0x000000009d0277dc      0x298 build/pic32mz2048efm/production/_ext/1360937237/mdot.o
                0x000000009d0277dc                mDotTasks

.text._DRV_USBHS_DEVICE_Tasks_ISR_USBDMA
                0x000000009d027a74      0x294
 .text._DRV_USBHS_DEVICE_Tasks_ISR_USBDMA
                0x000000009d027a74      0x294 build/pic32mz2048efm/production/_ext/1449458886/drv_usbhs_device.o
                0x000000009d027a74                _DRV_USBHS_DEVICE_Tasks_ISR_USBDMA

.text.create_partition
                0x000000009d027d08      0x290
 .text.create_partition
                0x000000009d027d08      0x290 build/pic32mz2048efm/production/_ext/1225530592/ff.o

.text.DRV_USBHS_DEVICE_Detach
                0x000000009d027f98      0x270
 .text.DRV_USBHS_DEVICE_Detach
                0x000000009d027f98      0x270 build/pic32mz2048efm/production/_ext/1449458886/drv_usbhs_device.o
                0x000000009d027f98                DRV_USBHS_DEVICE_Detach

.text.DRV_USBHS_DEVICE_EndpointDisable
                0x000000009d028208      0x26c
 .text.DRV_USBHS_DEVICE_EndpointDisable
                0x000000009d028208      0x26c build/pic32mz2048efm/production/_ext/1449458886/drv_usbhs_device.o
                0x000000009d028208                DRV_USBHS_DEVICE_EndpointDisable

.text.dir_read  0x000000009d028474      0x258
 .text.dir_read
                0x000000009d028474      0x258 build/pic32mz2048efm/production/_ext/1225530592/ff.o

.rodata         0x000000009d0286d0      0x258
 .rodata        0x000000009d0286d0      0x258 build/pic32mz2048efm/production/_ext/858502545/figaro_gpr_fit.o

.text.mp_enorm  0x000000009d028928      0x254
 .text.mp_enorm
                0x000000009d028928      0x254 build/pic32mz2048efm/production/_ext/858502545/mpfit.o

.text.createMeasurementGA
                0x000000009d028b7c      0x250
 .text.createMeasurementGA
                0x000000009d028b7c      0x250 build/pic32mz2048efm/production/_ext/1360937237/messaging.o
                0x000000009d028b7c                createMeasurementGA

.text.USB_DEVICE_Tasks
                0x000000009d028dcc      0x248
 .text.USB_DEVICE_Tasks
                0x000000009d028dcc      0x248 build/pic32mz2048efm/production/_ext/196169617/usb_device.o
                0x000000009d028dcc                USB_DEVICE_Tasks

.text.f_getcwd  0x000000009d029014      0x244
 .text.f_getcwd
                0x000000009d029014      0x244 build/pic32mz2048efm/production/_ext/1225530592/ff.o
                0x000000009d029014                f_getcwd

.text._USB_DEVICE_ControlTransferHandler
                0x000000009d029258      0x230
 .text._USB_DEVICE_ControlTransferHandler
                0x000000009d029258      0x230 build/pic32mz2048efm/production/_ext/196169617/usb_device.o
                0x000000009d029258                _USB_DEVICE_ControlTransferHandler

.text.uart2_comTasks
                0x000000009d029488      0x230
 .text.uart2_comTasks
                0x000000009d029488      0x230 build/pic32mz2048efm/production/_ext/1360937237/communication.o
                0x000000009d029488                uart2_comTasks

.text.create_chain
                0x000000009d0296b8      0x22c
 .text.create_chain
                0x000000009d0296b8      0x22c build/pic32mz2048efm/production/_ext/1225530592/ff.o

.text._powx     0x000000009d0298e4      0x228
 .text._powx    0x000000009d0298e4      0x228 /opt/microchip/xc32/v3.01/bin/bin/../../lib/gcc/pic32mx/8.3.1/../../../../pic32mx/lib/fpu64/libmfd.a(w_pow.o)
                0x000000009d0298e4                _powx

.text.malloc    0x000000009d029b0c      0x224
 .text.malloc   0x000000009d029b0c      0x224 /opt/microchip/xc32/v3.01/bin/bin/../../lib/gcc/pic32mx/8.3.1/../../../../pic32mx/lib/fpu64/libc.a(malloc.o)
                0x000000009d029b0c                malloc

.text.DRV_USBHS_DEVICE_EndpointStall
                0x000000009d029d30      0x220
 .text.DRV_USBHS_DEVICE_EndpointStall
                0x000000009d029d30      0x220 build/pic32mz2048efm/production/_ext/1449458886/drv_usbhs_device.o
                0x000000009d029d30                DRV_USBHS_DEVICE_EndpointStall

.text._USB_DEVICE_ProcessStandardDeviceSetRequests
                0x000000009d029f50      0x220
 .text._USB_DEVICE_ProcessStandardDeviceSetRequests
                0x000000009d029f50      0x220 build/pic32mz2048efm/production/_ext/196169617/usb_device.o
                0x000000009d029f50                _USB_DEVICE_ProcessStandardDeviceSetRequests

.text.RTCC_TimeSet
                0x000000009d02a170      0x218
 .text.RTCC_TimeSet
                0x000000009d02a170      0x218 build/pic32mz2048efm/production/_ext/1448149901/plib_rtcc.o
                0x000000009d02a170                RTCC_TimeSet

.text._USB_DEVICE_Other_Speed_Descriptor_Request
                0x000000009d02a388      0x214
 .text._USB_DEVICE_Other_Speed_Descriptor_Request
                0x000000009d02a388      0x214 build/pic32mz2048efm/production/_ext/196169617/usb_device.o
                0x000000009d02a388                _USB_DEVICE_Other_Speed_Descriptor_Request

.text._USB_DEVICE_ProcessStandardDeviceGetRequests
                0x000000009d02a59c      0x20c
 .text._USB_DEVICE_ProcessStandardDeviceGetRequests
                0x000000009d02a59c      0x20c build/pic32mz2048efm/production/_ext/196169617/usb_device.o
                0x000000009d02a59c                _USB_DEVICE_ProcessStandardDeviceGetRequests

.text.AD5940_SweepNext
                0x000000009d02a7a8      0x20c
 .text.AD5940_SweepNext
                0x000000009d02a7a8      0x20c build/pic32mz2048efm/production/_ext/1230022092/ad5940.o
                0x000000009d02a7a8                AD5940_SweepNext

.text.put_fat   0x000000009d02a9b4      0x208
 .text.put_fat  0x000000009d02a9b4      0x208 build/pic32mz2048efm/production/_ext/1225530592/ff.o

.text.disk_write
                0x000000009d02abbc      0x208
 .text.disk_write
                0x000000009d02abbc      0x208 build/pic32mz2048efm/production/_ext/1545496361/diskio.o
                0x000000009d02abbc                disk_write

.text.DRV_USBHS_DEVICE_EndpointStallClear
                0x000000009d02adc4      0x1f4
 .text.DRV_USBHS_DEVICE_EndpointStallClear
                0x000000009d02adc4      0x1f4 build/pic32mz2048efm/production/_ext/1449458886/drv_usbhs_device.o
                0x000000009d02adc4                DRV_USBHS_DEVICE_EndpointStallClear

.text.f_mkdir   0x000000009d02afb8      0x1f0
 .text.f_mkdir  0x000000009d02afb8      0x1f0 build/pic32mz2048efm/production/_ext/1225530592/ff.o
                0x000000009d02afb8                f_mkdir

.text.disk_read
                0x000000009d02b1a8      0x1f0
 .text.disk_read
                0x000000009d02b1a8      0x1f0 build/pic32mz2048efm/production/_ext/1545496361/diskio.o
                0x000000009d02b1a8                disk_read

.text.AppBIACtrl
                0x000000009d02b398      0x1f0
 .text.AppBIACtrl
                0x000000009d02b398      0x1f0 build/pic32mz2048efm/production/_ext/1230022092/BodyImpedance.o
                0x000000009d02b398                AppBIACtrl

.text.RTCC_AlarmSet
                0x000000009d02b588      0x1ec
 .text.RTCC_AlarmSet
                0x000000009d02b588      0x1ec build/pic32mz2048efm/production/_ext/1448149901/plib_rtcc.o
                0x000000009d02b588                RTCC_AlarmSet

.text.SYS_TIME_PLIBCallback
                0x000000009d02b774      0x1e0
 .text.SYS_TIME_PLIBCallback
                0x000000009d02b774      0x1e0 build/pic32mz2048efm/production/_ext/519320518/sys_time.o

.text.strtoul   0x000000009d02b954      0x1d8
 .text.strtoul  0x000000009d02b954      0x1d8 /opt/microchip/xc32/v3.01/bin/bin/../../lib/gcc/pic32mx/8.3.1/../../../../pic32mx/lib/fpu64/libc.a(strtol.o)
                0x000000009d02b954                strtoul

.rodata         0x000000009d02bb2c      0x1d4
 .rodata        0x000000009d02bb2c      0x1d4 build/pic32mz2048efm/production/_ext/1230022092/ad5940.o

.text.f_rename  0x000000009d02bd00      0x1d0
 .text.f_rename
                0x000000009d02bd00      0x1d0 build/pic32mz2048efm/production/_ext/1225530592/ff.o
                0x000000009d02bd00                f_rename

.text.TIMER_2_Handler
                0x000000009d02bed0      0x1d0
 .text.TIMER_2_Handler
                0x000000009d02bed0      0x1d0 build/pic32mz2048efm/production/_ext/2011215161/interrupts.o
                0x000000009d02bed0                TIMER_2_Handler

.text.TIMER_3_Handler
                0x000000009d02c0a0      0x1d0
 .text.TIMER_3_Handler
                0x000000009d02c0a0      0x1d0 build/pic32mz2048efm/production/_ext/2011215161/interrupts.o
                0x000000009d02c0a0                TIMER_3_Handler

.text.SPI1_RX_Handler
                0x000000009d02c270      0x1d0
 .text.SPI1_RX_Handler
                0x000000009d02c270      0x1d0 build/pic32mz2048efm/production/_ext/2011215161/interrupts.o
                0x000000009d02c270                SPI1_RX_Handler

.text.SPI1_TX_Handler
                0x000000009d02c440      0x1d0
 .text.SPI1_TX_Handler
                0x000000009d02c440      0x1d0 build/pic32mz2048efm/production/_ext/2011215161/interrupts.o
                0x000000009d02c440                SPI1_TX_Handler

.text.UART1_FAULT_Handler
                0x000000009d02c610      0x1d0
 .text.UART1_FAULT_Handler
                0x000000009d02c610      0x1d0 build/pic32mz2048efm/production/_ext/2011215161/interrupts.o
                0x000000009d02c610                UART1_FAULT_Handler

.text.UART1_RX_Handler
                0x000000009d02c7e0      0x1d0
 .text.UART1_RX_Handler
                0x000000009d02c7e0      0x1d0 build/pic32mz2048efm/production/_ext/2011215161/interrupts.o
                0x000000009d02c7e0                UART1_RX_Handler

.text.UART1_TX_Handler
                0x000000009d02c9b0      0x1d0
 .text.UART1_TX_Handler
                0x000000009d02c9b0      0x1d0 build/pic32mz2048efm/production/_ext/2011215161/interrupts.o
                0x000000009d02c9b0                UART1_TX_Handler

.text.CHANGE_NOTICE_B_Handler
                0x000000009d02cb80      0x1d0
 .text.CHANGE_NOTICE_B_Handler
                0x000000009d02cb80      0x1d0 build/pic32mz2048efm/production/_ext/2011215161/interrupts.o
                0x000000009d02cb80                CHANGE_NOTICE_B_Handler

.text.CHANGE_NOTICE_J_Handler
                0x000000009d02cd50      0x1d0
 .text.CHANGE_NOTICE_J_Handler
                0x000000009d02cd50      0x1d0 build/pic32mz2048efm/production/_ext/2011215161/interrupts.o
                0x000000009d02cd50                CHANGE_NOTICE_J_Handler

.text.USB_Handler
                0x000000009d02cf20      0x1d0
 .text.USB_Handler
                0x000000009d02cf20      0x1d0 build/pic32mz2048efm/production/_ext/2011215161/interrupts.o
                0x000000009d02cf20                USB_Handler

.text.USB_DMA_Handler
                0x000000009d02d0f0      0x1d0
 .text.USB_DMA_Handler
                0x000000009d02d0f0      0x1d0 build/pic32mz2048efm/production/_ext/2011215161/interrupts.o
                0x000000009d02d0f0                USB_DMA_Handler

.text.SPI2_RX_Handler
                0x000000009d02d2c0      0x1d0
 .text.SPI2_RX_Handler
                0x000000009d02d2c0      0x1d0 build/pic32mz2048efm/production/_ext/2011215161/interrupts.o
                0x000000009d02d2c0                SPI2_RX_Handler

.text.SPI2_TX_Handler
                0x000000009d02d490      0x1d0
 .text.SPI2_TX_Handler
                0x000000009d02d490      0x1d0 build/pic32mz2048efm/production/_ext/2011215161/interrupts.o
                0x000000009d02d490                SPI2_TX_Handler

.text.UART2_FAULT_Handler
                0x000000009d02d660      0x1d0
 .text.UART2_FAULT_Handler
                0x000000009d02d660      0x1d0 build/pic32mz2048efm/production/_ext/2011215161/interrupts.o
                0x000000009d02d660                UART2_FAULT_Handler

.text.UART2_RX_Handler
                0x000000009d02d830      0x1d0
 .text.UART2_RX_Handler
                0x000000009d02d830      0x1d0 build/pic32mz2048efm/production/_ext/2011215161/interrupts.o
                0x000000009d02d830                UART2_RX_Handler

.text.UART2_TX_Handler
                0x000000009d02da00      0x1d0
 .text.UART2_TX_Handler
                0x000000009d02da00      0x1d0 build/pic32mz2048efm/production/_ext/2011215161/interrupts.o
                0x000000009d02da00                UART2_TX_Handler

.text.I2C2_BUS_Handler
                0x000000009d02dbd0      0x1d0
 .text.I2C2_BUS_Handler
                0x000000009d02dbd0      0x1d0 build/pic32mz2048efm/production/_ext/2011215161/interrupts.o
                0x000000009d02dbd0                I2C2_BUS_Handler

.text.I2C2_MASTER_Handler
                0x000000009d02dda0      0x1d0
 .text.I2C2_MASTER_Handler
                0x000000009d02dda0      0x1d0 build/pic32mz2048efm/production/_ext/2011215161/interrupts.o
                0x000000009d02dda0                I2C2_MASTER_Handler

.text.UART3_FAULT_Handler
                0x000000009d02df70      0x1d0
 .text.UART3_FAULT_Handler
                0x000000009d02df70      0x1d0 build/pic32mz2048efm/production/_ext/2011215161/interrupts.o
                0x000000009d02df70                UART3_FAULT_Handler

.text.UART3_RX_Handler
                0x000000009d02e140      0x1d0
 .text.UART3_RX_Handler
                0x000000009d02e140      0x1d0 build/pic32mz2048efm/production/_ext/2011215161/interrupts.o
                0x000000009d02e140                UART3_RX_Handler

.text.UART3_TX_Handler
                0x000000009d02e310      0x1d0
 .text.UART3_TX_Handler
                0x000000009d02e310      0x1d0 build/pic32mz2048efm/production/_ext/2011215161/interrupts.o
                0x000000009d02e310                UART3_TX_Handler

.text.SPI4_RX_Handler
                0x000000009d02e4e0      0x1d0
 .text.SPI4_RX_Handler
                0x000000009d02e4e0      0x1d0 build/pic32mz2048efm/production/_ext/2011215161/interrupts.o
                0x000000009d02e4e0                SPI4_RX_Handler

.text.SPI4_TX_Handler
                0x000000009d02e6b0      0x1d0
 .text.SPI4_TX_Handler
                0x000000009d02e6b0      0x1d0 build/pic32mz2048efm/production/_ext/2011215161/interrupts.o
                0x000000009d02e6b0                SPI4_TX_Handler

.text.RTCC_Handler
                0x000000009d02e880      0x1d0
 .text.RTCC_Handler
                0x000000009d02e880      0x1d0 build/pic32mz2048efm/production/_ext/2011215161/interrupts.o
                0x000000009d02e880                RTCC_Handler

.text.I2C4_BUS_Handler
                0x000000009d02ea50      0x1d0
 .text.I2C4_BUS_Handler
                0x000000009d02ea50      0x1d0 build/pic32mz2048efm/production/_ext/2011215161/interrupts.o
                0x000000009d02ea50                I2C4_BUS_Handler

.text.I2C4_MASTER_Handler
                0x000000009d02ec20      0x1d0
 .text.I2C4_MASTER_Handler
                0x000000009d02ec20      0x1d0 build/pic32mz2048efm/production/_ext/2011215161/interrupts.o
                0x000000009d02ec20                I2C4_MASTER_Handler

.text.SPI5_RX_Handler
                0x000000009d02edf0      0x1d0
 .text.SPI5_RX_Handler
                0x000000009d02edf0      0x1d0 build/pic32mz2048efm/production/_ext/2011215161/interrupts.o
                0x000000009d02edf0                SPI5_RX_Handler

.text.SPI5_TX_Handler
                0x000000009d02efc0      0x1d0
 .text.SPI5_TX_Handler
                0x000000009d02efc0      0x1d0 build/pic32mz2048efm/production/_ext/2011215161/interrupts.o
                0x000000009d02efc0                SPI5_TX_Handler

.text.UART6_FAULT_Handler
                0x000000009d02f190      0x1d0
 .text.UART6_FAULT_Handler
                0x000000009d02f190      0x1d0 build/pic32mz2048efm/production/_ext/2011215161/interrupts.o
                0x000000009d02f190                UART6_FAULT_Handler

.text.UART6_RX_Handler
                0x000000009d02f360      0x1d0
 .text.UART6_RX_Handler
                0x000000009d02f360      0x1d0 build/pic32mz2048efm/production/_ext/2011215161/interrupts.o
                0x000000009d02f360                UART6_RX_Handler

.text.UART6_TX_Handler
                0x000000009d02f530      0x1d0
 .text.UART6_TX_Handler
                0x000000009d02f530      0x1d0 build/pic32mz2048efm/production/_ext/2011215161/interrupts.o
                0x000000009d02f530                UART6_TX_Handler

.text.DRV_USBHS_DEVICE_IRPCancelAll
                0x000000009d02f700      0x1c4
 .text.DRV_USBHS_DEVICE_IRPCancelAll
                0x000000009d02f700      0x1c4 build/pic32mz2048efm/production/_ext/1449458886/drv_usbhs_device.o
                0x000000009d02f700                DRV_USBHS_DEVICE_IRPCancelAll

.text.AD5940_Notch50HzAvailable
                0x000000009d02f8c4      0x1c0
 .text.AD5940_Notch50HzAvailable
                0x000000009d02f8c4      0x1c0 build/pic32mz2048efm/production/_ext/1230022092/ad5940.o
                0x000000009d02f8c4                AD5940_Notch50HzAvailable

.text.APP_Tasks
                0x000000009d02fa84      0x1c0
 .text.APP_Tasks
                0x000000009d02fa84      0x1c0 build/pic32mz2048efm/production/_ext/1360937237/app.o
                0x000000009d02fa84                APP_Tasks

.text.uart6_comTasks
                0x000000009d02fc44      0x1b8
 .text.uart6_comTasks
                0x000000009d02fc44      0x1b8 build/pic32mz2048efm/production/_ext/1360937237/communication.o
                0x000000009d02fc44                uart6_comTasks

.text._DRV_SPI_PlibCallbackHandler
                0x000000009d02fdfc      0x1b4
 .text._DRV_SPI_PlibCallbackHandler
                0x000000009d02fdfc      0x1b4 build/pic32mz2048efm/production/_ext/1807302558/drv_spi.o

.text.DRV_SPI_Lock
                0x000000009d02ffb0      0x1b4
 .text.DRV_SPI_Lock
                0x000000009d02ffb0      0x1b4 build/pic32mz2048efm/production/_ext/1807302558/drv_spi.o
                0x000000009d02ffb0                DRV_SPI_Lock

.text.f_getfree
                0x000000009d030164      0x1b0
 .text.f_getfree
                0x000000009d030164      0x1b0 build/pic32mz2048efm/production/_ext/1225530592/ff.o
                0x000000009d030164                f_getfree

.text.unixTimestamp
                0x000000009d030314      0x1b0
 .text.unixTimestamp
                0x000000009d030314      0x1b0 build/pic32mz2048efm/production/_ext/1360937237/messaging.o
                0x000000009d030314                unixTimestamp

.text.AD5940_WUPTCfg
                0x000000009d0304c4      0x1ac
 .text.AD5940_WUPTCfg
                0x000000009d0304c4      0x1ac build/pic32mz2048efm/production/_ext/1230022092/ad5940.o
                0x000000009d0304c4                AD5940_WUPTCfg

.text.AD5940_CLKCfg
                0x000000009d030670      0x1ac
 .text.AD5940_CLKCfg
                0x000000009d030670      0x1ac build/pic32mz2048efm/production/_ext/1230022092/ad5940.o
                0x000000009d030670                AD5940_CLKCfg

.rodata         0x000000009d03081c      0x1a8
 .rodata        0x000000009d03081c      0x1a8 build/pic32mz2048efm/production/_ext/2011215161/usb_device_init_data.o
                0x000000009d03081c                usbDevInitData
                0x000000009d030850                usbMasterDescriptor
                0x000000009d03087c                stringDescriptors
                0x000000009d030888                sd002
                0x000000009d0308bc                sd001
                0x000000009d0308f0                sd000
                0x000000009d0308f4                fullSpeedConfigDescSet
                0x000000009d0308f8                fullSpeedConfigurationDescriptor
                0x000000009d03093c                highSpeedConfigDescSet
                0x000000009d030940                highSpeedConfigurationDescriptor
                0x000000009d030984                deviceQualifierDescriptor1
                0x000000009d030990                deviceDescriptor
                0x000000009d0309a4                funcRegistrationTable
                0x000000009d0309b8                cdcInit0

.text.DRV_SDSPI_Initialize
                0x000000009d0309c4      0x1a4
 .text.DRV_SDSPI_Initialize
                0x000000009d0309c4      0x1a4 build/pic32mz2048efm/production/_ext/1044926641/drv_sdspi.o
                0x000000009d0309c4                DRV_SDSPI_Initialize

.text           0x000000009d030b68      0x1a0
 .text          0x000000009d030b68      0x1a0 /opt/microchip/xc32/v3.01/bin/bin/../../lib/gcc/pic32mx/8.3.1/../../../../pic32mx/lib/fpu64/libpic32.a(strcpy.o)
                0x000000009d030b68                strcpy

.text.DRV_SPI_Open
                0x000000009d030d08      0x19c
 .text.DRV_SPI_Open
                0x000000009d030d08      0x19c build/pic32mz2048efm/production/_ext/1807302558/drv_spi.o
                0x000000009d030d08                DRV_SPI_Open

.text.dir_next  0x000000009d030ea4      0x194
 .text.dir_next
                0x000000009d030ea4      0x194 build/pic32mz2048efm/production/_ext/1225530592/ff.o

.text.check_fs  0x000000009d031038      0x194
 .text.check_fs
                0x000000009d031038      0x194 build/pic32mz2048efm/production/_ext/1225530592/ff.o

.rodata         0x000000009d0311cc      0x194
 .rodata        0x000000009d0311cc      0x194 build/pic32mz2048efm/production/_ext/2011215161/initialization.o
                0x000000009d0311cc                sysTimeInitData
                0x000000009d0311d4                sysTimePlibAPI
                0x000000009d0311e8                sysFSInit
                0x000000009d0311f0                FatFsFunctions
                0x000000009d031278                sysfsMountTable
                0x000000009d031288                drvUSBInit
                0x000000009d0312b8                drvSPI0InitData
                0x000000009d0312dc                drvSPI0InterruptSources
                0x000000009d0312ec                drvSPI0remapClockPhase
                0x000000009d0312f4                drvSPI0remapClockPolarity
                0x000000009d0312fc                drvSPI0remapDataBits
                0x000000009d031324                drvSPI0PlibAPI
                0x000000009d031334                drvSDSPI0InitData

.text._USB_DEVICE_Ep0ReceiveCompleteCallback
                0x000000009d031360      0x190
 .text._USB_DEVICE_Ep0ReceiveCompleteCallback
                0x000000009d031360      0x190 build/pic32mz2048efm/production/_ext/196169617/usb_device.o
                0x000000009d031360                _USB_DEVICE_Ep0ReceiveCompleteCallback

.text.pressureTasks
                0x000000009d0314f0      0x190
 .text.pressureTasks
                0x000000009d0314f0      0x190 build/pic32mz2048efm/production/_ext/1360937237/auxillary_sensors.o
                0x000000009d0314f0                pressureTasks

.text.AD5940_Notch60HzAvailable
                0x000000009d031680      0x188
 .text.AD5940_Notch60HzAvailable
                0x000000009d031680      0x188 build/pic32mz2048efm/production/_ext/1230022092/ad5940.o
                0x000000009d031680                AD5940_Notch60HzAvailable

.text.rint      0x000000009d031808      0x188
 .text.rint     0x000000009d031808      0x188 /opt/microchip/xc32/v3.01/bin/bin/../../lib/gcc/pic32mx/8.3.1/../../../../pic32mx/lib/fpu64/libmfd.a(s_rint.o)
                0x000000009d031808                rint

.text.get_fat   0x000000009d031990      0x184
 .text.get_fat  0x000000009d031990      0x184 build/pic32mz2048efm/production/_ext/1225530592/ff.o

.text.SYS_Initialize
                0x000000009d031b14      0x184
 .text.SYS_Initialize
                0x000000009d031b14      0x184 build/pic32mz2048efm/production/_ext/2011215161/initialization.o
                0x000000009d031b14                SYS_Initialize

.text.DRV_SDSPI_Open
                0x000000009d031c98      0x178
 .text.DRV_SDSPI_Open
                0x000000009d031c98      0x178 build/pic32mz2048efm/production/_ext/1044926641/drv_sdspi.o
                0x000000009d031c98                DRV_SDSPI_Open

.text.__kernel_cos
                0x000000009d031e10      0x174
 .text.__kernel_cos
                0x000000009d031e10      0x174 /opt/microchip/xc32/v3.01/bin/bin/../../lib/gcc/pic32mx/8.3.1/../../../../pic32mx/lib/fpu64/libmfd.a(k_cos.o)
                0x000000009d031e10                __kernel_cos

.text._USB_DEVICE_CDC_ACMSetUpPacketHandler
                0x000000009d031f84      0x170
 .text._USB_DEVICE_CDC_ACMSetUpPacketHandler
                0x000000009d031f84      0x170 build/pic32mz2048efm/production/_ext/196169617/usb_device_cdc_acm.o
                0x000000009d031f84                _USB_DEVICE_CDC_ACMSetUpPacketHandler

.text.SPI4_TX_InterruptHandler
                0x000000009d0320f4      0x16c
 .text.SPI4_TX_InterruptHandler
                0x000000009d0320f4      0x16c build/pic32mz2048efm/production/_ext/1007818685/plib_spi4_master.o
                0x000000009d0320f4                SPI4_TX_InterruptHandler

.text.SPI5_TX_InterruptHandler
                0x000000009d032260      0x16c
 .text.SPI5_TX_InterruptHandler
                0x000000009d032260      0x16c build/pic32mz2048efm/production/_ext/1007818685/plib_spi5_master.o
                0x000000009d032260                SPI5_TX_InterruptHandler

.text.SPI2_TX_InterruptHandler
                0x000000009d0323cc      0x16c
 .text.SPI2_TX_InterruptHandler
                0x000000009d0323cc      0x16c build/pic32mz2048efm/production/_ext/1007818685/plib_spi2_master.o
                0x000000009d0323cc                SPI2_TX_InterruptHandler

.text.SPI1_TX_InterruptHandler
                0x000000009d032538      0x16c
 .text.SPI1_TX_InterruptHandler
                0x000000009d032538      0x16c build/pic32mz2048efm/production/_ext/1007818685/plib_spi1_master.o
                0x000000009d032538                SPI1_TX_InterruptHandler

.text.dir_sdi   0x000000009d0326a4      0x16c
 .text.dir_sdi  0x000000009d0326a4      0x16c build/pic32mz2048efm/production/_ext/1225530592/ff.o

.text           0x000000009d032810      0x2d0
 .text          0x000000009d032810      0x168 /opt/microchip/xc32/v3.01/bin/bin/../../lib/gcc/pic32mx/8.3.1/../../../../pic32mx/lib/fpu64/libpic32.a(memcpy.o)
                0x000000009d032810                memcpy
 .text          0x000000009d032978      0x168 /opt/microchip/xc32/v3.01/bin/bin/../../lib/gcc/pic32mx/8.3.1/../../../../pic32mx/lib/fpu64/libpic32.a(strlen.o)
                0x000000009d032978                strlen

.text.our_scalbn
                0x000000009d032ae0      0x168
 .text.our_scalbn
                0x000000009d032ae0      0x168 /opt/microchip/xc32/v3.01/bin/bin/../../lib/gcc/pic32mx/8.3.1/../../../../pic32mx/lib/fpu64/libmfd.a(s_scalbn.o)
                0x000000009d032ae0                our_scalbn

.text.DRV_USBHS_DEVICE_TestModeEnter
                0x000000009d032c48      0x164
 .text.DRV_USBHS_DEVICE_TestModeEnter
                0x000000009d032c48      0x164 build/pic32mz2048efm/production/_ext/1449458886/drv_usbhs_device.o
                0x000000009d032c48                DRV_USBHS_DEVICE_TestModeEnter

.rodata         0x000000009d032db0      0x160
 .rodata        0x000000009d032db0      0x160 /opt/microchip/xc32/v3.01/bin/bin/../../lib/gcc/pic32mx/8.3.1/../../../../pic32mx/lib/fpu64/libc.a(ldpowers.o)
                0x000000009d032db0                _npowers_
                0x000000009d032e60                _powers_

.text.f_truncate
                0x000000009d032f10      0x15c
 .text.f_truncate
                0x000000009d032f10      0x15c build/pic32mz2048efm/production/_ext/1225530592/ff.o
                0x000000009d032f10                f_truncate

.text.USB_DEVICE_Initialize
                0x000000009d03306c      0x15c
 .text.USB_DEVICE_Initialize
                0x000000009d03306c      0x15c build/pic32mz2048efm/production/_ext/196169617/usb_device.o
                0x000000009d03306c                USB_DEVICE_Initialize

.text.DRV_SDSPI_Close
                0x000000009d0331c8      0x158
 .text.DRV_SDSPI_Close
                0x000000009d0331c8      0x158 build/pic32mz2048efm/production/_ext/1044926641/drv_sdspi.o
                0x000000009d0331c8                DRV_SDSPI_Close

.text.scale     0x000000009d033320      0x2b0
 .text.scale    0x000000009d033320      0x158 /opt/microchip/xc32/v3.01/bin/bin/../../lib/gcc/pic32mx/8.3.1/../../../../pic32mx/lib/fpu64/libc.a(doprnt_cdgGnopsuxX.eo)
 .text.scale    0x000000009d033478      0x158 /opt/microchip/xc32/v3.01/bin/bin/../../lib/gcc/pic32mx/8.3.1/../../../../pic32mx/lib/fpu64/libc.a(doprnt_fF.eo)

.text._USB_DEVICE_CDC_Initialization
                0x000000009d0335d0      0x154
 .text._USB_DEVICE_CDC_Initialization
                0x000000009d0335d0      0x154 build/pic32mz2048efm/production/_ext/196169617/usb_device_cdc.o
                0x000000009d0335d0                _USB_DEVICE_CDC_Initialization

.text.AD5940_HSTIACfgS
                0x000000009d033724      0x154
 .text.AD5940_HSTIACfgS
                0x000000009d033724      0x154 build/pic32mz2048efm/production/_ext/1230022092/ad5940.o
                0x000000009d033724                AD5940_HSTIACfgS

.text.BIAShowResult
                0x000000009d033878      0x154
 .text.BIAShowResult
                0x000000009d033878      0x154 build/pic32mz2048efm/production/_ext/1230022092/ad5940main.o
                0x000000009d033878                BIAShowResult

.text._sbrk_init
                0x000000009d0339cc      0x154
 .text._sbrk_init
                0x000000009d0339cc      0x154 /opt/microchip/xc32/v3.01/bin/bin/../../lib/gcc/pic32mx/8.3.1/../../../../pic32mx/lib/fpu64/libpic32.a(sbrk.o)
                0x000000009d0339cc                _sbrk_init

.text.predFigaroGPR
                0x000000009d033b20      0x150
 .text.predFigaroGPR
                0x000000009d033b20      0x150 build/pic32mz2048efm/production/_ext/858502545/figaro_gpr_fit.o
                0x000000009d033b20                predFigaroGPR

.text.f_unlink  0x000000009d033c70      0x148
 .text.f_unlink
                0x000000009d033c70      0x148 build/pic32mz2048efm/production/_ext/1225530592/ff.o
                0x000000009d033c70                f_unlink

.text.DRV_USBHS_Tasks_ISR
                0x000000009d033db8      0x144
 .text.DRV_USBHS_Tasks_ISR
                0x000000009d033db8      0x144 build/pic32mz2048efm/production/_ext/1449458886/drv_usbhs.o
                0x000000009d033db8                DRV_USBHS_Tasks_ISR

.rodata         0x000000009d033efc      0x140
 .rodata        0x000000009d033efc      0x140 build/pic32mz2048efm/production/_ext/1044926641/drv_sdspi.o
                0x000000009d033efc                gDrvSDSPICmdTable

.text.ff_wtoupper
                0x000000009d03403c      0x140
 .text.ff_wtoupper
                0x000000009d03403c      0x140 build/pic32mz2048efm/production/_ext/1225530592/ffunicode.o
                0x000000009d03403c                ff_wtoupper

.text.f_getlabel
                0x000000009d03417c      0x13c
 .text.f_getlabel
                0x000000009d03417c      0x13c build/pic32mz2048efm/production/_ext/1225530592/ff.o
                0x000000009d03417c                f_getlabel

.text._DRV_SPI_UpdateTransferSetupAndAssertCS
                0x000000009d0342b8      0x138
 .text._DRV_SPI_UpdateTransferSetupAndAssertCS
                0x000000009d0342b8      0x138 build/pic32mz2048efm/production/_ext/1807302558/drv_spi.o

.text.inc_lock  0x000000009d0343f0      0x138
 .text.inc_lock
                0x000000009d0343f0      0x138 build/pic32mz2048efm/production/_ext/1225530592/ff.o

.text.AD5940_WriteReg
                0x000000009d034528      0x138
 .text.AD5940_WriteReg
                0x000000009d034528      0x138 build/pic32mz2048efm/production/_ext/1230022092/ad5940.o
                0x000000009d034528                AD5940_WriteReg

.text.strtol    0x000000009d034660      0x138
 .text.strtol   0x000000009d034660      0x138 /opt/microchip/xc32/v3.01/bin/bin/../../lib/gcc/pic32mx/8.3.1/../../../../pic32mx/lib/fpu64/libc.a(strtol.o)
                0x000000009d034660                strtol

.text.FATFS_open
                0x000000009d034798      0x134
 .text.FATFS_open
                0x000000009d034798      0x134 build/pic32mz2048efm/production/_ext/1538077638/sys_fs_fat_interface.o
                0x000000009d034798                FATFS_open

.text.SYS_TIME_TimerObjectCreate
                0x000000009d0348cc      0x130
 .text.SYS_TIME_TimerObjectCreate
                0x000000009d0348cc      0x130 build/pic32mz2048efm/production/_ext/519320518/sys_time.o

.text.AD5940_FIFORd
                0x000000009d0349fc      0x12c
 .text.AD5940_FIFORd
                0x000000009d0349fc      0x12c build/pic32mz2048efm/production/_ext/1230022092/ad5940.o
                0x000000009d0349fc                AD5940_FIFORd

.text.AD5940_REFCfgS
                0x000000009d034b28      0x128
 .text.AD5940_REFCfgS
                0x000000009d034b28      0x128 build/pic32mz2048efm/production/_ext/1230022092/ad5940.o
                0x000000009d034b28                AD5940_REFCfgS

.text.fputc     0x000000009d034c50      0x128
 .text.fputc    0x000000009d034c50      0x128 /opt/microchip/xc32/v3.01/bin/bin/../../lib/gcc/pic32mx/8.3.1/../../../../pic32mx/lib/fpu64/libc.a(_fputc_simple.o)
                0x000000009d034c50                fputc

.text._DRV_USBHS_DEVICE_FIFOAllocate
                0x000000009d034d78      0x124
 .text._DRV_USBHS_DEVICE_FIFOAllocate
                0x000000009d034d78      0x124 build/pic32mz2048efm/production/_ext/1449458886/drv_usbhs_device.o
                0x000000009d034d78                _DRV_USBHS_DEVICE_FIFOAllocate

.text.remove_chain
                0x000000009d034e9c      0x120
 .text.remove_chain
                0x000000009d034e9c      0x120 build/pic32mz2048efm/production/_ext/1225530592/ff.o

.rodata.str1.4  0x000000009d034fbc      0x120
 .rodata.str1.4
                0x000000009d034fbc      0x120 build/pic32mz2048efm/production/_ext/1360937237/mdot.o

.text.setUart2Device
                0x000000009d0350dc      0x118
 .text.setUart2Device
                0x000000009d0350dc      0x118 build/pic32mz2048efm/production/_ext/1360937237/communication.o
                0x000000009d0350dc                setUart2Device

.text.__ieee754_log10
                0x000000009d0351f4      0x118
 .text.__ieee754_log10
                0x000000009d0351f4      0x118 /opt/microchip/xc32/v3.01/bin/bin/../../lib/gcc/pic32mx/8.3.1/../../../../pic32mx/lib/fpu64/libmfd.a(e_log10.o)
                0x000000009d0351f4                __ieee754_log10

.text.DRV_SPI_TransferSetup
                0x000000009d03530c      0x110
 .text.DRV_SPI_TransferSetup
                0x000000009d03530c      0x110 build/pic32mz2048efm/production/_ext/1807302558/drv_spi.o
                0x000000009d03530c                DRV_SPI_TransferSetup

.text.UART6_RX_InterruptHandler
                0x000000009d03541c      0x110
 .text.UART6_RX_InterruptHandler
                0x000000009d03541c      0x110 build/pic32mz2048efm/production/_ext/1448221497/plib_uart6.o
                0x000000009d03541c                UART6_RX_InterruptHandler

.text.UART3_RX_InterruptHandler
                0x000000009d03552c      0x110
 .text.UART3_RX_InterruptHandler
                0x000000009d03552c      0x110 build/pic32mz2048efm/production/_ext/1448221497/plib_uart3.o
                0x000000009d03552c                UART3_RX_InterruptHandler

.text.UART1_RX_InterruptHandler
                0x000000009d03563c      0x110
 .text.UART1_RX_InterruptHandler
                0x000000009d03563c      0x110 build/pic32mz2048efm/production/_ext/1448221497/plib_uart1.o
                0x000000009d03563c                UART1_RX_InterruptHandler

.text.UART2_RX_InterruptHandler
                0x000000009d03574c      0x110
 .text.UART2_RX_InterruptHandler
                0x000000009d03574c      0x110 build/pic32mz2048efm/production/_ext/1448221497/plib_uart2.o
                0x000000009d03574c                UART2_RX_InterruptHandler

.text.f_opendir
                0x000000009d03585c      0x110
 .text.f_opendir
                0x000000009d03585c      0x110 build/pic32mz2048efm/production/_ext/1225530592/ff.o
                0x000000009d03585c                f_opendir

.text._sinx     0x000000009d03596c      0x110
 .text._sinx    0x000000009d03596c      0x110 /opt/microchip/xc32/v3.01/bin/bin/../../lib/gcc/pic32mx/8.3.1/../../../../pic32mx/lib/fpu64/libmfd.a(s_sin.o)
                0x000000009d03596c                _sinx

.text._USB_DEVICE_ConfigureDevice
                0x000000009d035a7c      0x10c
 .text._USB_DEVICE_ConfigureDevice
                0x000000009d035a7c      0x10c build/pic32mz2048efm/production/_ext/196169617/usb_device.o
                0x000000009d035a7c                _USB_DEVICE_ConfigureDevice

.text._flsbuf   0x000000009d035b88      0x10c
 .text._flsbuf  0x000000009d035b88      0x10c /opt/microchip/xc32/v3.01/bin/bin/../../lib/gcc/pic32mx/8.3.1/../../../../pic32mx/lib/fpu64/libc.a(_flsbuf_simple.o)
                0x000000009d035b88                _flsbuf

.text.f_sync    0x000000009d035c94      0x108
 .text.f_sync   0x000000009d035c94      0x108 build/pic32mz2048efm/production/_ext/1225530592/ff.o
                0x000000009d035c94                f_sync

.text._cosx     0x000000009d035d9c      0x108
 .text._cosx    0x000000009d035d9c      0x108 /opt/microchip/xc32/v3.01/bin/bin/../../lib/gcc/pic32mx/8.3.1/../../../../pic32mx/lib/fpu64/libmfd.a(s_cos.o)
                0x000000009d035d9c                _cosx

.text._USB_DEVICE_CDC_ControlTransferHandler
                0x000000009d035ea4      0x104
 .text._USB_DEVICE_CDC_ControlTransferHandler
                0x000000009d035ea4      0x104 build/pic32mz2048efm/production/_ext/196169617/usb_device_cdc.o
                0x000000009d035ea4                _USB_DEVICE_CDC_ControlTransferHandler

.rodata         0x000000009d035fa8      0x104
 .rodata        0x000000009d035fa8      0x104 /opt/microchip/xc32/v3.01/bin/bin/../../lib/gcc/pic32mx/8.3.1/../../../../pic32mx/lib/fpu64/libc.a(ctype.o)
                0x000000009d035fa8                _ctype

.text.UART6_TX_InterruptHandler
                0x000000009d0360ac      0x100
 .text.UART6_TX_InterruptHandler
                0x000000009d0360ac      0x100 build/pic32mz2048efm/production/_ext/1448221497/plib_uart6.o
                0x000000009d0360ac                UART6_TX_InterruptHandler

.text.UART3_TX_InterruptHandler
                0x000000009d0361ac      0x100
 .text.UART3_TX_InterruptHandler
                0x000000009d0361ac      0x100 build/pic32mz2048efm/production/_ext/1448221497/plib_uart3.o
                0x000000009d0361ac                UART3_TX_InterruptHandler

.text.UART1_TX_InterruptHandler
                0x000000009d0362ac      0x100
 .text.UART1_TX_InterruptHandler
                0x000000009d0362ac      0x100 build/pic32mz2048efm/production/_ext/1448221497/plib_uart1.o
                0x000000009d0362ac                UART1_TX_InterruptHandler

.text.UART2_TX_InterruptHandler
                0x000000009d0363ac      0x100
 .text.UART2_TX_InterruptHandler
                0x000000009d0363ac      0x100 build/pic32mz2048efm/production/_ext/1448221497/plib_uart2.o
                0x000000009d0363ac                UART2_TX_InterruptHandler

.text._USB_DEVICE_ProcessStandardEndpointRequest
                0x000000009d0364ac      0x100
 .text._USB_DEVICE_ProcessStandardEndpointRequest
                0x000000009d0364ac      0x100 build/pic32mz2048efm/production/_ext/196169617/usb_device.o
                0x000000009d0364ac                _USB_DEVICE_ProcessStandardEndpointRequest

.text.AD5940_WGCfgS
                0x000000009d0365ac      0x100
 .text.AD5940_WGCfgS
                0x000000009d0365ac      0x100 build/pic32mz2048efm/production/_ext/1230022092/ad5940.o
                0x000000009d0365ac                AD5940_WGCfgS

.rodata.cst8    0x000000009d0366b0       0xf8
 .rodata.cst8   0x000000009d0366b0       0xf8 /opt/microchip/xc32/v3.01/bin/bin/../../lib/gcc/pic32mx/8.3.1/../../../../pic32mx/lib/fpu64/libmfd.a(e_pow.o)

.text.AD5940_WGFreqWordCal
                0x000000009d0367a8       0xf4
 .text.AD5940_WGFreqWordCal
                0x000000009d0367a8       0xf4 build/pic32mz2048efm/production/_ext/1230022092/ad5940.o
                0x000000009d0367a8                AD5940_WGFreqWordCal

.text.RTCC_TimeGet
                0x000000009d001010       0xf0
 .text.RTCC_TimeGet
                0x000000009d001010       0xf0 build/pic32mz2048efm/production/_ext/1448149901/plib_rtcc.o
                0x000000009d001010                RTCC_TimeGet

.text.AD5940MAIN_Tasks
                0x000000009d03689c       0xf0
 .text.AD5940MAIN_Tasks
                0x000000009d03689c       0xf0 build/pic32mz2048efm/production/_ext/1230022092/ad5940main.o
                0x000000009d03689c                AD5940MAIN_Tasks

.text._DRV_SPI_ResourceLock
                0x000000009d03698c       0xec
 .text._DRV_SPI_ResourceLock
                0x000000009d03698c       0xec build/pic32mz2048efm/production/_ext/1807302558/drv_spi.o

.text.DRV_SPI_Initialize
                0x000000009d036a78       0xec
 .text.DRV_SPI_Initialize
                0x000000009d036a78       0xec build/pic32mz2048efm/production/_ext/1807302558/drv_spi.o
                0x000000009d036a78                DRV_SPI_Initialize

.text.EVIC_Initialize
                0x000000009d036b64       0xec
 .text.EVIC_Initialize
                0x000000009d036b64       0xec build/pic32mz2048efm/production/_ext/1447764726/plib_evic.o
                0x000000009d036b64                EVIC_Initialize

.text.FATFS_unmount
                0x000000009d036c50       0xec
 .text.FATFS_unmount
                0x000000009d036c50       0xec build/pic32mz2048efm/production/_ext/1538077638/sys_fs_fat_interface.o
                0x000000009d036c50                FATFS_unmount

.text.FATFS_opendir
                0x000000009d036d3c       0xe8
 .text.FATFS_opendir
                0x000000009d036d3c       0xe8 build/pic32mz2048efm/production/_ext/1538077638/sys_fs_fat_interface.o
                0x000000009d036d3c                FATFS_opendir

.text.SYS_TIME_AddToList
                0x000000009d036e24       0xe8
 .text.SYS_TIME_AddToList
                0x000000009d036e24       0xe8 build/pic32mz2048efm/production/_ext/519320518/sys_time.o

.text.figaro_r_mox_func_fit_default
                0x000000009d036f0c       0xe8
 .text.figaro_r_mox_func_fit_default
                0x000000009d036f0c       0xe8 build/pic32mz2048efm/production/_ext/858502545/figaro_gpr_fit.o
                0x000000009d036f0c                figaro_r_mox_func_fit_default

.text.DRV_USBHS_Tasks_ISR_USBDMA
                0x000000009d036ff4       0xe4
 .text.DRV_USBHS_Tasks_ISR_USBDMA
                0x000000009d036ff4       0xe4 build/pic32mz2048efm/production/_ext/1449458886/drv_usbhs.o
                0x000000009d036ff4                DRV_USBHS_Tasks_ISR_USBDMA

.text.sync_fs   0x000000009d0370d8       0xe4
 .text.sync_fs  0x000000009d0370d8       0xe4 build/pic32mz2048efm/production/_ext/1225530592/ff.o

.text.AD5940_SEQInfoCfg
                0x000000009d0371bc       0xe4
 .text.AD5940_SEQInfoCfg
                0x000000009d0371bc       0xe4 build/pic32mz2048efm/production/_ext/1230022092/ad5940.o
                0x000000009d0371bc                AD5940_SEQInfoCfg

.text.AD5940PlatformCfg
                0x000000009d0372a0       0xe4
 .text.AD5940PlatformCfg
                0x000000009d0372a0       0xe4 build/pic32mz2048efm/production/_ext/1230022092/ad5940main.o
                0x000000009d0372a0                AD5940PlatformCfg

.text._DRV_SPI_ResourceUnlock
                0x000000009d037384       0xe0
 .text._DRV_SPI_ResourceUnlock
                0x000000009d037384       0xe0 build/pic32mz2048efm/production/_ext/1807302558/drv_spi.o

.text.timeKeepingTasks
                0x000000009d037464       0xe0
 .text.timeKeepingTasks
                0x000000009d037464       0xe0 build/pic32mz2048efm/production/_ext/1360937237/time_keeping.o
                0x000000009d037464                timeKeepingTasks

.text.setvbuf   0x000000009d037544       0xe0
 .text.setvbuf  0x000000009d037544       0xe0 /opt/microchip/xc32/v3.01/bin/bin/../../lib/gcc/pic32mx/8.3.1/../../../../pic32mx/lib/fpu64/libc.a(setbuf.o)
                0x000000009d037544                setvbuf

.text.SYS_FS_MEDIA_MANAGER_SectorRead
                0x000000009d037624       0xdc
 .text.SYS_FS_MEDIA_MANAGER_SectorRead
                0x000000009d037624       0xdc build/pic32mz2048efm/production/_ext/1538077638/sys_fs_media_manager.o
                0x000000009d037624                SYS_FS_MEDIA_MANAGER_SectorRead

.text.AD5940_Initialize
                0x000000009d037700       0xdc
 .text.AD5940_Initialize
                0x000000009d037700       0xdc build/pic32mz2048efm/production/_ext/1230022092/ad5940.o
                0x000000009d037700                AD5940_Initialize

.text.general_exception
                0x000000009d0377dc       0xdc
 .text.general_exception
                0x000000009d0377dc       0xdc /opt/microchip/xc32/v3.01/bin/bin/../../lib/gcc/pic32mx/8.3.1/../../../../pic32mx/lib/fpu64/libpic32.a(general-exception.o)
                0x000000009d0377dc                _general_exception_context

.text.figaro_mox_func
                0x000000009d0378b8       0xd8
 .text.figaro_mox_func
                0x000000009d0378b8       0xd8 build/pic32mz2048efm/production/_ext/858502545/figaro_gpr_fit.o
                0x000000009d0378b8                figaro_mox_func

.text._cache_err_exception_context
                0x000000009d037990       0xd8
 .text._cache_err_exception_context
                0x000000009d037990       0xd8 /opt/microchip/xc32/v3.01/bin/bin/../../lib/gcc/pic32mx/8.3.1/../../../../pic32mx/lib/fpu64/libpic32.a(cache-err-exception.o)
                0x000000009d037990                _cache_err_exception_context

.text.simple_tlb_refill_context
                0x000000009d037a68       0xd8
 .text.simple_tlb_refill_context
                0x000000009d037a68       0xd8 /opt/microchip/xc32/v3.01/bin/bin/../../lib/gcc/pic32mx/8.3.1/../../../../pic32mx/lib/fpu64/libpic32.a(simple-tlb-refill-exception.o)
                0x000000009d037a68                _simple_tlb_refill_exception_context

.rodata         0x000000009d037b40       0xd4
 .rodata        0x000000009d037b40       0xd4 build/pic32mz2048efm/production/_ext/1225530592/ff.o

.text.GPIO_PinIntEnable
                0x000000009d037c14       0xd0
 .text.GPIO_PinIntEnable
                0x000000009d037c14       0xd0 build/pic32mz2048efm/production/_ext/1447818554/plib_gpio.o
                0x000000009d037c14                GPIO_PinIntEnable

.text._USB_DEVICE_GetStringDescriptorRequestProcess
                0x000000009d037ce4       0xd0
 .text._USB_DEVICE_GetStringDescriptorRequestProcess
                0x000000009d037ce4       0xd0 build/pic32mz2048efm/production/_ext/196169617/usb_device.o
                0x000000009d037ce4                _USB_DEVICE_GetStringDescriptorRequestProcess

.text.SPI4_TransferSetup
                0x000000009d037db4       0xcc
 .text.SPI4_TransferSetup
                0x000000009d037db4       0xcc build/pic32mz2048efm/production/_ext/1007818685/plib_spi4_master.o
                0x000000009d037db4                SPI4_TransferSetup

.text.FATFS_mount
                0x000000009d037e80       0xcc
 .text.FATFS_mount
                0x000000009d037e80       0xcc build/pic32mz2048efm/production/_ext/1538077638/sys_fs_fat_interface.o
                0x000000009d037e80                FATFS_mount

.text._DRV_USBHS_DEVICE_FIFOFree
                0x000000009d037f4c       0xc8
 .text._DRV_USBHS_DEVICE_FIFOFree
                0x000000009d037f4c       0xc8 build/pic32mz2048efm/production/_ext/1449458886/drv_usbhs_device.o
                0x000000009d037f4c                _DRV_USBHS_DEVICE_FIFOFree

.rodata.cst8    0x000000009d038018       0xc8
 .rodata.cst8   0x000000009d038018       0xc8 build/pic32mz2048efm/production/_ext/858502545/figaro_gpr_fit.o

.text.DRV_USBHS_Initialize
                0x000000009d0380e0       0xc4
 .text.DRV_USBHS_Initialize
                0x000000009d0380e0       0xc4 build/pic32mz2048efm/production/_ext/1449458886/drv_usbhs.o
                0x000000009d0380e0                DRV_USBHS_Initialize

.text.SYS_FS_Initialize
                0x000000009d0381a4       0xc4
 .text.SYS_FS_Initialize
                0x000000009d0381a4       0xc4 build/pic32mz2048efm/production/_ext/1538077638/sys_fs.o
                0x000000009d0381a4                SYS_FS_Initialize

.text.fround    0x000000009d038268       0xc4
 .text.fround   0x000000009d038268       0xc4 /opt/microchip/xc32/v3.01/bin/bin/../../lib/gcc/pic32mx/8.3.1/../../../../pic32mx/lib/fpu64/libc.a(doprnt_cdgGnopsuxX.eo)

.text._expx     0x000000009d03832c       0xc4
 .text._expx    0x000000009d03832c       0xc4 /opt/microchip/xc32/v3.01/bin/bin/../../lib/gcc/pic32mx/8.3.1/../../../../pic32mx/lib/fpu64/libmfd.a(w_exp.o)
                0x000000009d03832c                _expx

.text.__kernel_sin
                0x000000009d0383f0       0xc4
 .text.__kernel_sin
                0x000000009d0383f0       0xc4 /opt/microchip/xc32/v3.01/bin/bin/../../lib/gcc/pic32mx/8.3.1/../../../../pic32mx/lib/fpu64/libmfd.a(k_sin.o)
                0x000000009d0383f0                __kernel_sin

.text.DRV_USBHS_Open
                0x000000009d0384b4       0xc0
 .text.DRV_USBHS_Open
                0x000000009d0384b4       0xc0 build/pic32mz2048efm/production/_ext/1449458886/drv_usbhs.o
                0x000000009d0384b4                DRV_USBHS_Open

.text.DRV_USBHS_ClientEventCallBackSet
                0x000000009d038574       0xc0
 .text.DRV_USBHS_ClientEventCallBackSet
                0x000000009d038574       0xc0 build/pic32mz2048efm/production/_ext/1449458886/drv_usbhs.o
                0x000000009d038574                DRV_USBHS_ClientEventCallBackSet

.text.CLK_Initialize
                0x000000009d038634       0xc0
 .text.CLK_Initialize
                0x000000009d038634       0xc0 build/pic32mz2048efm/production/_ext/323794519/plib_clk.o
                0x000000009d038634                CLK_Initialize

.text.dir_alloc
                0x000000009d0386f4       0xc0
 .text.dir_alloc
                0x000000009d0386f4       0xc0 build/pic32mz2048efm/production/_ext/1225530592/ff.o

.text.dir_remove
                0x000000009d0387b4       0xc0
 .text.dir_remove
                0x000000009d0387b4       0xc0 build/pic32mz2048efm/production/_ext/1225530592/ff.o

.text.f_mount   0x000000009d038874       0xc0
 .text.f_mount  0x000000009d038874       0xc0 build/pic32mz2048efm/production/_ext/1225530592/ff.o
                0x000000009d038874                f_mount

.text.SYS_TIME_Initialize
                0x000000009d038934       0xc0
 .text.SYS_TIME_Initialize
                0x000000009d038934       0xc0 build/pic32mz2048efm/production/_ext/519320518/sys_time.o
                0x000000009d038934                SYS_TIME_Initialize

.text._USB_DEVICE_Ep0TransmitCompleteCallback
                0x000000009d0389f4       0xc0
 .text._USB_DEVICE_Ep0TransmitCompleteCallback
                0x000000009d0389f4       0xc0 build/pic32mz2048efm/production/_ext/196169617/usb_device.o
                0x000000009d0389f4                _USB_DEVICE_Ep0TransmitCompleteCallback

.rodata.str1.4  0x000000009d038ab4       0xc0
 .rodata.str1.4
                0x000000009d038ab4       0xc0 build/pic32mz2048efm/production/_ext/858502545/mpfit.o

.text.UART6_Write
                0x000000009d038b74       0xbc
 .text.UART6_Write
                0x000000009d038b74       0xbc build/pic32mz2048efm/production/_ext/1448221497/plib_uart6.o
                0x000000009d038b74                UART6_Write

.text.UART2_Write
                0x000000009d038c30       0xbc
 .text.UART2_Write
                0x000000009d038c30       0xbc build/pic32mz2048efm/production/_ext/1448221497/plib_uart2.o
                0x000000009d038c30                UART2_Write

.text.dir_clear
                0x000000009d038cec       0xbc
 .text.dir_clear
                0x000000009d038cec       0xbc build/pic32mz2048efm/production/_ext/1225530592/ff.o

.text.f_gets    0x000000009d038da8       0xbc
 .text.f_gets   0x000000009d038da8       0xbc build/pic32mz2048efm/production/_ext/1225530592/ff.o
                0x000000009d038da8                f_gets

.text.disk_checkCommandStatus
                0x000000009d038e64       0xbc
 .text.disk_checkCommandStatus
                0x000000009d038e64       0xbc build/pic32mz2048efm/production/_ext/1545496361/diskio.o

.text.AD5940_LPDACCfgS
                0x000000009d038f20       0xbc
 .text.AD5940_LPDACCfgS
                0x000000009d038f20       0xbc build/pic32mz2048efm/production/_ext/1230022092/ad5940.o
                0x000000009d038f20                AD5940_LPDACCfgS

.text.AD5940_HFOSC32MHzCtrl
                0x000000009d038fdc       0xbc
 .text.AD5940_HFOSC32MHzCtrl
                0x000000009d038fdc       0xbc build/pic32mz2048efm/production/_ext/1230022092/ad5940.o
                0x000000009d038fdc                AD5940_HFOSC32MHzCtrl

.tlb.__pic32_tlb_init_ebi_sqi
                0x000000009d039098       0xbc
 .tlb.__pic32_tlb_init_ebi_sqi
                0x000000009d039098       0xbc /opt/microchip/xc32/v3.01/bin/bin/../../lib/gcc/pic32mx/8.3.1/../../../../pic32mx/lib/fpu64/libpic32.a(pic32_init_tlb_ebi_sqi.o)
                0x000000009d039098                __pic32_tlb_init_ebi_sqi

.text.DRV_SDSPI_CommandStatusGet
                0x000000009d039154       0xb8
 .text.DRV_SDSPI_CommandStatusGet
                0x000000009d039154       0xb8 build/pic32mz2048efm/production/_ext/1044926641/drv_sdspi.o
                0x000000009d039154                DRV_SDSPI_CommandStatusGet

.text.GPIO_PinInterruptCallbackRegister
                0x000000009d03920c       0xb8
 .text.GPIO_PinInterruptCallbackRegister
                0x000000009d03920c       0xb8 build/pic32mz2048efm/production/_ext/1447818554/plib_gpio.o
                0x000000009d03920c                GPIO_PinInterruptCallbackRegister

.text._DRV_SDSPI_DriverHandleValidate
                0x000000009d0392c4       0xb4
 .text._DRV_SDSPI_DriverHandleValidate
                0x000000009d0392c4       0xb4 build/pic32mz2048efm/production/_ext/1044926641/drv_sdspi.o

.text.chk_lock  0x000000009d039378       0xb4
 .text.chk_lock
                0x000000009d039378       0xb4 build/pic32mz2048efm/production/_ext/1225530592/ff.o

.text.sync_window
                0x000000009d03942c       0xb4
 .text.sync_window
                0x000000009d03942c       0xb4 build/pic32mz2048efm/production/_ext/1225530592/ff.o

.text.f_chdir   0x000000009d0394e0       0xb4
 .text.f_chdir  0x000000009d0394e0       0xb4 build/pic32mz2048efm/production/_ext/1225530592/ff.o
                0x000000009d0394e0                f_chdir

.text._USB_DEVICE_DeInitializeAllFunctionDrivers
                0x000000009d039594       0xb4
 .text._USB_DEVICE_DeInitializeAllFunctionDrivers
                0x000000009d039594       0xb4 build/pic32mz2048efm/production/_ext/196169617/usb_device.o
                0x000000009d039594                _USB_DEVICE_DeInitializeAllFunctionDrivers

.text.AD5940_LPAMPCfgS
                0x000000009d039648       0xb4
 .text.AD5940_LPAMPCfgS
                0x000000009d039648       0xb4 build/pic32mz2048efm/production/_ext/1230022092/ad5940.o
                0x000000009d039648                AD5940_LPAMPCfgS

.text.AD5940_SEQCfg
                0x000000009d0396fc       0xb4
 .text.AD5940_SEQCfg
                0x000000009d0396fc       0xb4 build/pic32mz2048efm/production/_ext/1230022092/ad5940.o
                0x000000009d0396fc                AD5940_SEQCfg

.text._sbrk     0x000000009d0397b0       0xb0
 .text._sbrk    0x000000009d0397b0       0xb0 /opt/microchip/xc32/v3.01/bin/bin/../../lib/gcc/pic32mx/8.3.1/../../../../pic32mx/lib/fpu64/libpic32.a(sbrk.o)
                0x000000009d0397b0                _sbrk

.text.f_chmod   0x000000009d039860       0xac
 .text.f_chmod  0x000000009d039860       0xac build/pic32mz2048efm/production/_ext/1225530592/ff.o
                0x000000009d039860                f_chmod

.text.SYS_TIME_CallbackRegisterMS
                0x000000009d03990c       0xac
 .text.SYS_TIME_CallbackRegisterMS
                0x000000009d03990c       0xac build/pic32mz2048efm/production/_ext/519320518/sys_time.o
                0x000000009d03990c                SYS_TIME_CallbackRegisterMS

.text.CHANGE_NOTICE_J_InterruptHandler
                0x000000009d0399b8       0xa8
 .text.CHANGE_NOTICE_J_InterruptHandler
                0x000000009d0399b8       0xa8 build/pic32mz2048efm/production/_ext/1447818554/plib_gpio.o
                0x000000009d0399b8                CHANGE_NOTICE_J_InterruptHandler

.text.pop       0x000000009d039a60       0xa8
 .text.pop      0x000000009d039a60       0xa8 build/pic32mz2048efm/production/_ext/1360937237/stringbuffer.o
                0x000000009d039a60                pop

.text           0x000000009d039b08       0xa8
 .text          0x000000009d039b08       0xa8 /opt/microchip/xc32/v3.01/bin/bin/../../lib/gcc/pic32mx/8.3.1/../../../../pic32mx/lib/fpu64/libpic32.a(memset.o)
                0x000000009d039b08                memset

.text.AD5940_AFECtrlS
                0x000000009d039bb0       0xa4
 .text.AD5940_AFECtrlS
                0x000000009d039bb0       0xa4 build/pic32mz2048efm/production/_ext/1230022092/ad5940.o
                0x000000009d039bb0                AD5940_AFECtrlS

.text.AD5940_ADCFilterCfgS
                0x000000009d039c54       0xa4
 .text.AD5940_ADCFilterCfgS
                0x000000009d039c54       0xa4 build/pic32mz2048efm/production/_ext/1230022092/ad5940.o
                0x000000009d039c54                AD5940_ADCFilterCfgS

.text.validate  0x000000009d039cf8       0xa0
 .text.validate
                0x000000009d039cf8       0xa0 build/pic32mz2048efm/production/_ext/1225530592/ff.o

.text._USB_DEVICE_ForwardControlXfrToFunction
                0x000000009d039d98       0xa0
 .text._USB_DEVICE_ForwardControlXfrToFunction
                0x000000009d039d98       0xa0 build/pic32mz2048efm/production/_ext/196169617/usb_device.o
                0x000000009d039d98                _USB_DEVICE_ForwardControlXfrToFunction

.text.AD5940_ReadWriteNBytes
                0x000000009d039e38       0xa0
 .text.AD5940_ReadWriteNBytes
                0x000000009d039e38       0xa0 build/pic32mz2048efm/production/_ext/1230022092/pic32Port.o
                0x000000009d039e38                AD5940_ReadWriteNBytes

.rodata         0x000000009d039ed8      0x140
 .rodata        0x000000009d039ed8       0xa0 /opt/microchip/xc32/v3.01/bin/bin/../../lib/gcc/pic32mx/8.3.1/../../../../pic32mx/lib/fpu64/libc.a(doprnt_cdgGnopsuxX.eo)
 .rodata        0x000000009d039f78       0xa0 /opt/microchip/xc32/v3.01/bin/bin/../../lib/gcc/pic32mx/8.3.1/../../../../pic32mx/lib/fpu64/libc.a(doprnt_cdnopsuxX.eo)

.rodata         0x000000009d03a018       0xa0
 .rodata        0x000000009d03a018       0xa0 /opt/microchip/xc32/v3.01/bin/bin/../../lib/gcc/pic32mx/8.3.1/../../../../pic32mx/lib/fpu64/libc.a(doprnt_fF.eo)

.text.f_utime   0x000000009d03a0b8       0x9c
 .text.f_utime  0x000000009d03a0b8       0x9c build/pic32mz2048efm/production/_ext/1225530592/ff.o
                0x000000009d03a0b8                f_utime

.text.figaro_r_t_rh_calibration_realimag_error
                0x000000009d03a154       0x9c
 .text.figaro_r_t_rh_calibration_realimag_error
                0x000000009d03a154       0x9c build/pic32mz2048efm/production/_ext/858502545/figaro_gpr_fit.o
                0x000000009d03a154                figaro_r_t_rh_calibration_realimag_error

.text._DRV_USBHS_DEVICE_AttachStateMachine
                0x000000009d03a1f0       0x98
 .text._DRV_USBHS_DEVICE_AttachStateMachine
                0x000000009d03a1f0       0x98 build/pic32mz2048efm/production/_ext/1449458886/drv_usbhs_device.o
                0x000000009d03a1f0                _DRV_USBHS_DEVICE_AttachStateMachine

.text.uart6_counters
                0x000000009d03a288       0x98
 .text.uart6_counters
                0x000000009d03a288       0x98 build/pic32mz2048efm/production/_ext/1360937237/communication.o
                0x000000009d03a288                uart6_counters

.text.sendStringU6
                0x000000009d03a320       0x98
 .text.sendStringU6
                0x000000009d03a320       0x98 build/pic32mz2048efm/production/_ext/1360937237/communication.o
                0x000000009d03a320                sendStringU6

.text.push      0x000000009d03a3b8       0x98
 .text.push     0x000000009d03a3b8       0x98 build/pic32mz2048efm/production/_ext/1360937237/stringbuffer.o
                0x000000009d03a3b8                push

.text           0x000000009d03a450       0x98
 .text          0x000000009d03a450       0x98 /opt/microchip/xc32/v3.01/bin/bin/../../lib/gcc/pic32mx/8.3.1/../../../../pic32mx/lib/fpu64/libpic32.a(memcmp.o)
                0x000000009d03a450                memcmp

.text._frexpx   0x000000009d03a4e8       0x98
 .text._frexpx  0x000000009d03a4e8       0x98 /opt/microchip/xc32/v3.01/bin/bin/../../lib/gcc/pic32mx/8.3.1/../../../../pic32mx/lib/fpu64/libmfd.a(s_frexp.o)
                0x000000009d03a4e8                _frexpx

.text._DRV_SDSPI_SPIWriteWithChipSelectDisabled
                0x000000009d03a580       0x94
 .text._DRV_SDSPI_SPIWriteWithChipSelectDisabled
                0x000000009d03a580       0x94 build/pic32mz2048efm/production/_ext/1044926641/drv_sdspi_driver_interface.o
                0x000000009d03a580                _DRV_SDSPI_SPIWriteWithChipSelectDisabled

.text.f_readdir
                0x000000009d03a614       0x94
 .text.f_readdir
                0x000000009d03a614       0x94 build/pic32mz2048efm/production/_ext/1225530592/ff.o
                0x000000009d03a614                f_readdir

.text.SYS_TIME_TimerStart
                0x000000009d03a6a8       0x94
 .text.SYS_TIME_TimerStart
                0x000000009d03a6a8       0x94 build/pic32mz2048efm/production/_ext/519320518/sys_time.o
                0x000000009d03a6a8                SYS_TIME_TimerStart

.text.AD5940_ReadReg
                0x000000009d03a73c       0x94
 .text.AD5940_ReadReg
                0x000000009d03a73c       0x94 build/pic32mz2048efm/production/_ext/1230022092/ad5940.o
                0x000000009d03a73c                AD5940_ReadReg

.text.cyclicCallback
                0x000000009d03a7d0       0x94
 .text.cyclicCallback
                0x000000009d03a7d0       0x94 build/pic32mz2048efm/production/_ext/1360937237/app.o
                0x000000009d03a7d0                cyclicCallback

.text.sendMeasurementGA
                0x000000009d03a864       0x94
 .text.sendMeasurementGA
                0x000000009d03a864       0x94 build/pic32mz2048efm/production/_ext/1360937237/mdot.o
                0x000000009d03a864                sendMeasurementGA

.text.getDOW    0x000000009d03a8f8       0x94
 .text.getDOW   0x000000009d03a8f8       0x94 build/pic32mz2048efm/production/_ext/1360937237/time_keeping.o
                0x000000009d03a8f8                getDOW

.text.UART6_Read
                0x000000009d03a98c       0x90
 .text.UART6_Read
                0x000000009d03a98c       0x90 build/pic32mz2048efm/production/_ext/1448221497/plib_uart6.o
                0x000000009d03a98c                UART6_Read

.text.UART2_Read
                0x000000009d03aa1c       0x90
 .text.UART2_Read
                0x000000009d03aa1c       0x90 build/pic32mz2048efm/production/_ext/1448221497/plib_uart2.o
                0x000000009d03aa1c                UART2_Read

.text.putc_bfd  0x000000009d03aaac       0x90
 .text.putc_bfd
                0x000000009d03aaac       0x90 build/pic32mz2048efm/production/_ext/1225530592/ff.o

.rodata.cst8    0x000000009d03ab40       0x90
 .rodata.cst8   0x000000009d03ab40       0x90 build/pic32mz2048efm/production/_ext/858502545/mpfit.o

.text.getGPStime
                0x000000009d03abd0       0x90
 .text.getGPStime
                0x000000009d03abd0       0x90 build/pic32mz2048efm/production/_ext/1360937237/time_keeping.o
                0x000000009d03abd0                getGPStime

.rodata.cst8    0x000000009d03ac60       0x90
 .rodata.cst8   0x000000009d03ac60       0x90 /opt/microchip/xc32/v3.01/bin/bin/../../lib/gcc/pic32mx/8.3.1/../../../../pic32mx/lib/fpu64/libmfd.a(s_atan.o)

.text.I2C2_WriteRead
                0x000000009d03acf0       0x8c
 .text.I2C2_WriteRead
                0x000000009d03acf0       0x8c build/pic32mz2048efm/production/_ext/1683951966/plib_i2c2_master.o
                0x000000009d03acf0                I2C2_WriteRead

.text.SPI4_Initialize
                0x000000009d03ad7c       0x8c
 .text.SPI4_Initialize
                0x000000009d03ad7c       0x8c build/pic32mz2048efm/production/_ext/1007818685/plib_spi4_master.o
                0x000000009d03ad7c                SPI4_Initialize

.text.dec_lock  0x000000009d03ae08       0x8c
 .text.dec_lock
                0x000000009d03ae08       0x8c build/pic32mz2048efm/production/_ext/1225530592/ff.o

.text.get_ldnumber
                0x000000009d03ae94       0x8c
 .text.get_ldnumber
                0x000000009d03ae94       0x8c build/pic32mz2048efm/production/_ext/1225530592/ff.o

.text.SYS_TIME_GetTimerObject
                0x000000009d03af20       0x8c
 .text.SYS_TIME_GetTimerObject
                0x000000009d03af20       0x8c build/pic32mz2048efm/production/_ext/519320518/sys_time.o

.text.SYS_TIME_RemoveFromList
                0x000000009d03afac       0x8c
 .text.SYS_TIME_RemoveFromList
                0x000000009d03afac       0x8c build/pic32mz2048efm/production/_ext/519320518/sys_time.o

.text._USB_DEVICE_GetFunctionDriverEntryByInterface
                0x000000009d03b038       0x8c
 .text._USB_DEVICE_GetFunctionDriverEntryByInterface
                0x000000009d03b038       0x8c build/pic32mz2048efm/production/_ext/196169617/usb_device.o
                0x000000009d03b038                _USB_DEVICE_GetFunctionDriverEntryByInterface

.text.AD5940_FIFOCfg
                0x000000009d03b0c4       0x8c
 .text.AD5940_FIFOCfg
                0x000000009d03b0c4       0x8c build/pic32mz2048efm/production/_ext/1230022092/ad5940.o
                0x000000009d03b0c4                AD5940_FIFOCfg

.text._DRV_SPI_DriverHandleValidate
                0x000000009d03b150       0x88
 .text._DRV_SPI_DriverHandleValidate
                0x000000009d03b150       0x88 build/pic32mz2048efm/production/_ext/1807302558/drv_spi.o

.text.DRV_SPI_TransferEventHandlerSet
                0x000000009d03b1d8       0x88
 .text.DRV_SPI_TransferEventHandlerSet
                0x000000009d03b1d8       0x88 build/pic32mz2048efm/production/_ext/1807302558/drv_spi.o
                0x000000009d03b1d8                DRV_SPI_TransferEventHandlerSet

.text.I2C2_Read
                0x000000009d03b260       0x88
 .text.I2C2_Read
                0x000000009d03b260       0x88 build/pic32mz2048efm/production/_ext/1683951966/plib_i2c2_master.o
                0x000000009d03b260                I2C2_Read

.text.I2C2_Write
                0x000000009d03b2e8       0x88
 .text.I2C2_Write
                0x000000009d03b2e8       0x88 build/pic32mz2048efm/production/_ext/1683951966/plib_i2c2_master.o
                0x000000009d03b2e8                I2C2_Write

.text.SPI5_Initialize
                0x000000009d03b370       0x88
 .text.SPI5_Initialize
                0x000000009d03b370       0x88 build/pic32mz2048efm/production/_ext/1007818685/plib_spi5_master.o
                0x000000009d03b370                SPI5_Initialize

.text.SPI2_Initialize
                0x000000009d03b3f8       0x88
 .text.SPI2_Initialize
                0x000000009d03b3f8       0x88 build/pic32mz2048efm/production/_ext/1007818685/plib_spi2_master.o
                0x000000009d03b3f8                SPI2_Initialize

.text.SPI1_Initialize
                0x000000009d03b480       0x88
 .text.SPI1_Initialize
                0x000000009d03b480       0x88 build/pic32mz2048efm/production/_ext/1007818685/plib_spi1_master.o
                0x000000009d03b480                SPI1_Initialize

.text.UART6_Initialize
                0x000000009d03b508       0x88
 .text.UART6_Initialize
                0x000000009d03b508       0x88 build/pic32mz2048efm/production/_ext/1448221497/plib_uart6.o
                0x000000009d03b508                UART6_Initialize

.text.UART3_Initialize
                0x000000009d03b590       0x88
 .text.UART3_Initialize
                0x000000009d03b590       0x88 build/pic32mz2048efm/production/_ext/1448221497/plib_uart3.o
                0x000000009d03b590                UART3_Initialize

.text.UART1_Initialize
                0x000000009d03b618       0x88
 .text.UART1_Initialize
                0x000000009d03b618       0x88 build/pic32mz2048efm/production/_ext/1448221497/plib_uart1.o
                0x000000009d03b618                UART1_Initialize

.text.AD5940_SPIReadReg
                0x000000009d03b6a0       0x88
 .text.AD5940_SPIReadReg
                0x000000009d03b6a0       0x88 build/pic32mz2048efm/production/_ext/1230022092/ad5940.o

.text.write     0x000000009d03b728       0x88
 .text.write    0x000000009d03b728       0x88 /opt/microchip/xc32/v3.01/bin/bin/../../lib/gcc/pic32mx/8.3.1/../../../../pic32mx/lib/fpu64/libpic32.a(write.o)
                0x000000009d03b728                write

.text.UART2_Initialize
                0x000000009d03b7b0       0x84
 .text.UART2_Initialize
                0x000000009d03b7b0       0x84 build/pic32mz2048efm/production/_ext/1448221497/plib_uart2.o
                0x000000009d03b7b0                UART2_Initialize

.text.USB_DEVICE_ControlSend
                0x000000009d03b834       0x84
 .text.USB_DEVICE_ControlSend
                0x000000009d03b834       0x84 build/pic32mz2048efm/production/_ext/196169617/usb_device.o
                0x000000009d03b834                USB_DEVICE_ControlSend

.text.AD5940_DFTCfgS
                0x000000009d03b8b8       0x84
 .text.AD5940_DFTCfgS
                0x000000009d03b8b8       0x84 build/pic32mz2048efm/production/_ext/1230022092/ad5940.o
                0x000000009d03b8b8                AD5940_DFTCfgS

.text           0x000000009d03b93c       0x84
 .text          0x000000009d03b93c       0x84 /opt/microchip/xc32/v3.01/bin/bin/../../lib/gcc/pic32mx/8.3.1/../../../../pic32mx/lib/fpu64/libpic32.a(pic32_data_init.o)
                0x000000009d03b93c                __pic32_data_init

.text.UART5_Write
                0x000000009d03b9c0       0x80
 .text.UART5_Write
                0x000000009d03b9c0       0x80 build/pic32mz2048efm/production/_ext/1448221497/plib_uart5.o
                0x000000009d03b9c0                UART5_Write

.text.f_stat    0x000000009d03ba40       0x80
 .text.f_stat   0x000000009d03ba40       0x80 build/pic32mz2048efm/production/_ext/1225530592/ff.o
                0x000000009d03ba40                f_stat

.text._USB_DEVICE_FindEndpoint
                0x000000009d03bac0       0x80
 .text._USB_DEVICE_FindEndpoint
                0x000000009d03bac0       0x80 build/pic32mz2048efm/production/_ext/196169617/usb_device.o
                0x000000009d03bac0                _USB_DEVICE_FindEndpoint

.text.predFigaroGPRR3Param
                0x000000009d03bb40       0x80
 .text.predFigaroGPRR3Param
                0x000000009d03bb40       0x80 build/pic32mz2048efm/production/_ext/858502545/figaro_gpr_fit.o
                0x000000009d03bb40                predFigaroGPRR3Param

.rodata.cst4    0x000000009d03bbc0       0x80
 .rodata.cst4   0x000000009d03bbc0       0x80 build/pic32mz2048efm/production/_ext/1230022092/ad5940.o

.rodata         0x000000009d03bc40       0x80
 .rodata        0x000000009d03bc40       0x80 /opt/microchip/xc32/v3.01/bin/bin/../../lib/gcc/pic32mx/8.3.1/../../../../pic32mx/lib/fpu64/libmfd.a(e_rem_pio2.o)

.text.f_fdisk   0x000000009d03bcc0       0x7c
 .text.f_fdisk  0x000000009d03bcc0       0x7c build/pic32mz2048efm/production/_ext/1225530592/ff.o
                0x000000009d03bcc0                f_fdisk

.text.disk_ioctl
                0x000000009d03bd3c       0x7c
 .text.disk_ioctl
                0x000000009d03bd3c       0x7c build/pic32mz2048efm/production/_ext/1545496361/diskio.o
                0x000000009d03bd3c                disk_ioctl

.text.FATFS_getclusters
                0x000000009d03bdb8       0x7c
 .text.FATFS_getclusters
                0x000000009d03bdb8       0x7c build/pic32mz2048efm/production/_ext/1538077638/sys_fs_fat_interface.o
                0x000000009d03bdb8                FATFS_getclusters

.text.SYS_TIME_TimerDestroy
                0x000000009d03be34       0x7c
 .text.SYS_TIME_TimerDestroy
                0x000000009d03be34       0x7c build/pic32mz2048efm/production/_ext/519320518/sys_time.o
                0x000000009d03be34                SYS_TIME_TimerDestroy

.text.USB_DEVICE_ControlStatus
                0x000000009d03beb0       0x7c
 .text.USB_DEVICE_ControlStatus
                0x000000009d03beb0       0x7c build/pic32mz2048efm/production/_ext/196169617/usb_device.o
                0x000000009d03beb0                USB_DEVICE_ControlStatus

.text.CHANGE_NOTICE_B_InterruptHandler
                0x000000009d03bf2c       0x78
 .text.CHANGE_NOTICE_B_InterruptHandler
                0x000000009d03bf2c       0x78 build/pic32mz2048efm/production/_ext/1447818554/plib_gpio.o
                0x000000009d03bf2c                CHANGE_NOTICE_B_InterruptHandler

.text.UART6_ErrorClear
                0x000000009d03bfa4       0x78
 .text.UART6_ErrorClear
                0x000000009d03bfa4       0x78 build/pic32mz2048efm/production/_ext/1448221497/plib_uart6.o

.text.UART3_ErrorClear
                0x000000009d03c01c       0x78
 .text.UART3_ErrorClear
                0x000000009d03c01c       0x78 build/pic32mz2048efm/production/_ext/1448221497/plib_uart3.o

.text.UART1_ErrorClear
                0x000000009d03c094       0x78
 .text.UART1_ErrorClear
                0x000000009d03c094       0x78 build/pic32mz2048efm/production/_ext/1448221497/plib_uart1.o

.text.UART2_ErrorClear
                0x000000009d03c10c       0x78
 .text.UART2_ErrorClear
                0x000000009d03c10c       0x78 build/pic32mz2048efm/production/_ext/1448221497/plib_uart2.o

.text.parseCDLstring
                0x000000009d03c184       0x78
 .text.parseCDLstring
                0x000000009d03c184       0x78 build/pic32mz2048efm/production/_ext/1360937237/nmea.o
                0x000000009d03c184                parseCDLstring

.text._atan2x   0x000000009d03c1fc       0x78
 .text._atan2x  0x000000009d03c1fc       0x78 /opt/microchip/xc32/v3.01/bin/bin/../../lib/gcc/pic32mx/8.3.1/../../../../pic32mx/lib/fpu64/libmfd.a(w_atan2.o)
                0x000000009d03c1fc                _atan2x

.text._log10x   0x000000009d03c274       0x78
 .text._log10x  0x000000009d03c274       0x78 /opt/microchip/xc32/v3.01/bin/bin/../../lib/gcc/pic32mx/8.3.1/../../../../pic32mx/lib/fpu64/libmfd.a(w_log10.o)
                0x000000009d03c274                _log10x

.rodata.cst8    0x000000009d03c2f0       0x78
 .rodata.cst8   0x000000009d03c2f0       0x78 /opt/microchip/xc32/v3.01/bin/bin/../../lib/gcc/pic32mx/8.3.1/../../../../pic32mx/lib/fpu64/libmfd.a(e_log.o)

.text.move_window
                0x000000009d03c368       0x74
 .text.move_window
                0x000000009d03c368       0x74 build/pic32mz2048efm/production/_ext/1225530592/ff.o

.text.ff_uni2oem
                0x000000009d03c3dc       0x74
 .text.ff_uni2oem
                0x000000009d03c3dc       0x74 build/pic32mz2048efm/production/_ext/1225530592/ffunicode.o
                0x000000009d03c3dc                ff_uni2oem

.text.disk_read_aligned
                0x000000009d03c450       0x74
 .text.disk_read_aligned
                0x000000009d03c450       0x74 build/pic32mz2048efm/production/_ext/1545496361/diskio.o

.text.SYS_FS_MEDIA_MANAGER_IsFSFat
                0x000000009d03c4c4       0x74
 .text.SYS_FS_MEDIA_MANAGER_IsFSFat
                0x000000009d03c4c4       0x74 build/pic32mz2048efm/production/_ext/1538077638/sys_fs_media_manager.o

.text.getAuxSensorAveragesD
                0x000000009d03c538       0x74
 .text.getAuxSensorAveragesD
                0x000000009d03c538       0x74 build/pic32mz2048efm/production/_ext/1360937237/auxillary_sensors.o
                0x000000009d03c538                getAuxSensorAveragesD

.text._USB_DEVICE_CDC_Deinitialization
                0x000000009d001110       0x70
 .text._USB_DEVICE_CDC_Deinitialization
                0x000000009d001110       0x70 build/pic32mz2048efm/production/_ext/196169617/usb_device_cdc.o
                0x000000009d001110                _USB_DEVICE_CDC_Deinitialization

.text.getRollAve
                0x000000009d001190       0x70
 .text.getRollAve
                0x000000009d001190       0x70 build/pic32mz2048efm/production/_ext/1360937237/auxillary_sensors.o
                0x000000009d001190                getRollAve

.rodata.cst8    0x000000009d03c5b0       0x70
 .rodata.cst8   0x000000009d03c5b0       0x70 /opt/microchip/xc32/v3.01/bin/bin/../../lib/gcc/pic32mx/8.3.1/../../../../pic32mx/lib/fpu64/libmfd.a(e_exp.o)

.text.AD5940_SEQRegInfoInsert
                0x000000009d03c620       0x6c
 .text.AD5940_SEQRegInfoInsert
                0x000000009d03c620       0x6c build/pic32mz2048efm/production/_ext/1230022092/ad5940.o

.text.AD5940_SEQCmdWrite
                0x000000009d03c68c       0x6c
 .text.AD5940_SEQCmdWrite
                0x000000009d03c68c       0x6c build/pic32mz2048efm/production/_ext/1230022092/ad5940.o
                0x000000009d03c68c                AD5940_SEQCmdWrite

.text.memmove   0x000000009d03c6f8       0x6c
 .text.memmove  0x000000009d03c6f8       0x6c /opt/microchip/xc32/v3.01/bin/bin/../../lib/gcc/pic32mx/8.3.1/../../../../pic32mx/lib/fpu64/libc.a(memmove.o)
                0x000000009d03c6f8                memmove

.text._DRV_USBHS_DEVICE_IRPQueueFlush
                0x000000009d03c764       0x68
 .text._DRV_USBHS_DEVICE_IRPQueueFlush
                0x000000009d03c764       0x68 build/pic32mz2048efm/production/_ext/1449458886/drv_usbhs_device.o
                0x000000009d03c764                _DRV_USBHS_DEVICE_IRPQueueFlush

.text.RTCC_Initialize
                0x000000009d03c7cc       0x68
 .text.RTCC_Initialize
                0x000000009d03c7cc       0x68 build/pic32mz2048efm/production/_ext/1448149901/plib_rtcc.o
                0x000000009d03c7cc                RTCC_Initialize

.text.f_puts    0x000000009d03c834       0x68
 .text.f_puts   0x000000009d03c834       0x68 build/pic32mz2048efm/production/_ext/1225530592/ff.o
                0x000000009d03c834                f_puts

.text.expKernel
                0x000000009d03c89c       0x68
 .text.expKernel
                0x000000009d03c89c       0x68 build/pic32mz2048efm/production/_ext/858502545/figaro_gpr_fit.o
                0x000000009d03c89c                expKernel

.text.AD5940_ReadWrite32B
                0x000000009d03c904       0x68
 .text.AD5940_ReadWrite32B
                0x000000009d03c904       0x68 build/pic32mz2048efm/production/_ext/1230022092/ad5940.o

.text.AD5940_INTCCfg
                0x000000009d03c96c       0x68
 .text.AD5940_INTCCfg
                0x000000009d03c96c       0x68 build/pic32mz2048efm/production/_ext/1230022092/ad5940.o
                0x000000009d03c96c                AD5940_INTCCfg

.text.uart2_readCallback
                0x000000009d03c9d4       0x68
 .text.uart2_readCallback
                0x000000009d03c9d4       0x68 build/pic32mz2048efm/production/_ext/1360937237/communication.o
                0x000000009d03c9d4                uart2_readCallback

.text.getAuxSensorAverages
                0x000000009d03ca3c       0x68
 .text.getAuxSensorAverages
                0x000000009d03ca3c       0x68 build/pic32mz2048efm/production/_ext/1360937237/auxillary_sensors.o
                0x000000009d03ca3c                getAuxSensorAverages

.text._bufallo  0x000000009d03caa4       0x68
 .text._bufallo
                0x000000009d03caa4       0x68 /opt/microchip/xc32/v3.01/bin/bin/../../lib/gcc/pic32mx/8.3.1/../../../../pic32mx/lib/fpu64/libc.a(buf.o)
                0x000000009d03caa4                _bufallo

.text.I2C2_Initialize
                0x000000009d03cb0c       0x64
 .text.I2C2_Initialize
                0x000000009d03cb0c       0x64 build/pic32mz2048efm/production/_ext/1683951966/plib_i2c2_master.o
                0x000000009d03cb0c                I2C2_Initialize

.text.UART6_FAULT_InterruptHandler
                0x000000009d03cb70       0x64
 .text.UART6_FAULT_InterruptHandler
                0x000000009d03cb70       0x64 build/pic32mz2048efm/production/_ext/1448221497/plib_uart6.o
                0x000000009d03cb70                UART6_FAULT_InterruptHandler

.text.UART3_FAULT_InterruptHandler
                0x000000009d03cbd4       0x64
 .text.UART3_FAULT_InterruptHandler
                0x000000009d03cbd4       0x64 build/pic32mz2048efm/production/_ext/1448221497/plib_uart3.o
                0x000000009d03cbd4                UART3_FAULT_InterruptHandler

.text.UART1_FAULT_InterruptHandler
                0x000000009d03cc38       0x64
 .text.UART1_FAULT_InterruptHandler
                0x000000009d03cc38       0x64 build/pic32mz2048efm/production/_ext/1448221497/plib_uart1.o
                0x000000009d03cc38                UART1_FAULT_InterruptHandler

.text.UART2_FAULT_InterruptHandler
                0x000000009d03cc9c       0x64
 .text.UART2_FAULT_InterruptHandler
                0x000000009d03cc9c       0x64 build/pic32mz2048efm/production/_ext/1448221497/plib_uart2.o
                0x000000009d03cc9c                UART2_FAULT_InterruptHandler

.text.putc_flush
                0x000000009d03cd00       0x64
 .text.putc_flush
                0x000000009d03cd00       0x64 build/pic32mz2048efm/production/_ext/1225530592/ff.o

.text.f_closedir
                0x000000009d03cd64       0x64
 .text.f_closedir
                0x000000009d03cd64       0x64 build/pic32mz2048efm/production/_ext/1225530592/ff.o
                0x000000009d03cd64                f_closedir

.text.AD5940_SEQCycleTime
                0x000000009d03cdc8       0x64
 .text.AD5940_SEQCycleTime
                0x000000009d03cdc8       0x64 build/pic32mz2048efm/production/_ext/1230022092/ad5940.o
                0x000000009d03cdc8                AD5940_SEQCycleTime

.text.AD5940BIAStructInit
                0x000000009d03ce2c       0x64
 .text.AD5940BIAStructInit
                0x000000009d03ce2c       0x64 build/pic32mz2048efm/production/_ext/1230022092/ad5940main.o
                0x000000009d03ce2c                AD5940BIAStructInit

.text.printConsoleStr
                0x000000009d03ce90       0x64
 .text.printConsoleStr
                0x000000009d03ce90       0x64 build/pic32mz2048efm/production/_ext/1360937237/console.o
                0x000000009d03ce90                printConsoleStr

.text._sprintf_cdnopsuxX
                0x000000009d03cef4       0x64
 .text._sprintf_cdnopsuxX
                0x000000009d03cef4       0x64 /opt/microchip/xc32/v3.01/bin/bin/../../lib/gcc/pic32mx/8.3.1/../../../../pic32mx/lib/fpu64/libc.a(sprintf_cdnopsuxX.eo)
                0x000000009d03cef4                _sprintf_cdnopsuxX

.text._sprintf_fF
                0x000000009d03cf58       0x64
 .text._sprintf_fF
                0x000000009d03cf58       0x64 /opt/microchip/xc32/v3.01/bin/bin/../../lib/gcc/pic32mx/8.3.1/../../../../pic32mx/lib/fpu64/libc.a(sprintf_fF.eo)
                0x000000009d03cf58                _sprintf_fF

.text.I2C2_BUS_InterruptHandler
                0x000000009d03cfbc       0x60
 .text.I2C2_BUS_InterruptHandler
                0x000000009d03cfbc       0x60 build/pic32mz2048efm/production/_ext/1683951966/plib_i2c2_master.o
                0x000000009d03cfbc                I2C2_BUS_InterruptHandler

.text.I2C4_BUS_InterruptHandler
                0x000000009d03d01c       0x60
 .text.I2C4_BUS_InterruptHandler
                0x000000009d03d01c       0x60 build/pic32mz2048efm/production/_ext/1683951966/plib_i2c4_master.o
                0x000000009d03d01c                I2C4_BUS_InterruptHandler

.text.SYS_FS_MEDIA_MANAGER_EventHandler
                0x000000009d03d07c       0x60
 .text.SYS_FS_MEDIA_MANAGER_EventHandler
                0x000000009d03d07c       0x60 build/pic32mz2048efm/production/_ext/1538077638/sys_fs_media_manager.o
                0x000000009d03d07c                SYS_FS_MEDIA_MANAGER_EventHandler

.text.AD5940_WakeUp
                0x000000009d03d0dc       0x60
 .text.AD5940_WakeUp
                0x000000009d03d0dc       0x60 build/pic32mz2048efm/production/_ext/1230022092/ad5940.o
                0x000000009d03d0dc                AD5940_WakeUp

.text._DRV_USBHS_DEVICE_Get_FreeDMAChannel
                0x000000009d03d13c       0x5c
 .text._DRV_USBHS_DEVICE_Get_FreeDMAChannel
                0x000000009d03d13c       0x5c build/pic32mz2048efm/production/_ext/1449458886/drv_usbhs_device.o
                0x000000009d03d13c                _DRV_USBHS_DEVICE_Get_FreeDMAChannel

.text.I2C2_IsBusy
                0x000000009d03d198       0x5c
 .text.I2C2_IsBusy
                0x000000009d03d198       0x5c build/pic32mz2048efm/production/_ext/1683951966/plib_i2c2_master.o
                0x000000009d03d198                I2C2_IsBusy

.text.I2C4_Initialize
                0x000000009d03d1f4       0x5c
 .text.I2C4_Initialize
                0x000000009d03d1f4       0x5c build/pic32mz2048efm/production/_ext/1683951966/plib_i2c4_master.o
                0x000000009d03d1f4                I2C4_Initialize

.text.SYS_FS_MEDIA_MANAGER_Register
                0x000000009d03d250       0x5c
 .text.SYS_FS_MEDIA_MANAGER_Register
                0x000000009d03d250       0x5c build/pic32mz2048efm/production/_ext/1538077638/sys_fs_media_manager.o
                0x000000009d03d250                SYS_FS_MEDIA_MANAGER_Register

.text.AD5940_SEQGenSearchReg
                0x000000009d03d2ac       0x5c
 .text.AD5940_SEQGenSearchReg
                0x000000009d03d2ac       0x5c build/pic32mz2048efm/production/_ext/1230022092/ad5940.o

.text.AD5940_SWMatrixCfgS
                0x000000009d03d308       0x5c
 .text.AD5940_SWMatrixCfgS
                0x000000009d03d308       0x5c build/pic32mz2048efm/production/_ext/1230022092/ad5940.o
                0x000000009d03d308                AD5940_SWMatrixCfgS

.text.fputs     0x000000009d03d364       0x5c
 .text.fputs    0x000000009d03d364       0x5c /opt/microchip/xc32/v3.01/bin/bin/../../lib/gcc/pic32mx/8.3.1/../../../../pic32mx/lib/fpu64/libc.a(puts.o)
                0x000000009d03d364                fputs

.text.DRV_USBHS_DEVICE_EndpointIsEnabled
                0x000000009d03d3c0       0x58
 .text.DRV_USBHS_DEVICE_EndpointIsEnabled
                0x000000009d03d3c0       0x58 build/pic32mz2048efm/production/_ext/1449458886/drv_usbhs_device.o
                0x000000009d03d3c0                DRV_USBHS_DEVICE_EndpointIsEnabled

.text.DRV_USBHS_DEVICE_EndpointIsStalled
                0x000000009d03d418       0x58
 .text.DRV_USBHS_DEVICE_EndpointIsStalled
                0x000000009d03d418       0x58 build/pic32mz2048efm/production/_ext/1449458886/drv_usbhs_device.o
                0x000000009d03d418                DRV_USBHS_DEVICE_EndpointIsStalled

.text.tchar2uni
                0x000000009d03d470       0x58
 .text.tchar2uni
                0x000000009d03d470       0x58 build/pic32mz2048efm/production/_ext/1225530592/ff.o

.text.diskEventHandler
                0x000000009d03d4c8       0x58
 .text.diskEventHandler
                0x000000009d03d4c8       0x58 build/pic32mz2048efm/production/_ext/1545496361/diskio.o
                0x000000009d03d4c8                diskEventHandler

.text.SYS_INT_SourceDisable
                0x000000009d03d520       0x58
 .text.SYS_INT_SourceDisable
                0x000000009d03d520       0x58 build/pic32mz2048efm/production/_ext/2145297452/sys_int.o
                0x000000009d03d520                SYS_INT_SourceDisable

.text.SYS_TIME_ResourceLock
                0x000000009d03d578       0x58
 .text.SYS_TIME_ResourceLock
                0x000000009d03d578       0x58 build/pic32mz2048efm/production/_ext/519320518/sys_time.o

.text._USB_DEVICE_RedirectControlXfrToClient
                0x000000009d03d5d0       0x58
 .text._USB_DEVICE_RedirectControlXfrToClient
                0x000000009d03d5d0       0x58 build/pic32mz2048efm/production/_ext/196169617/usb_device.o
                0x000000009d03d5d0                _USB_DEVICE_RedirectControlXfrToClient

.text.USB_DEVICE_EndpointEnable
                0x000000009d03d628       0x58
 .text.USB_DEVICE_EndpointEnable
                0x000000009d03d628       0x58 build/pic32mz2048efm/production/_ext/196169617/usb_device.o
                0x000000009d03d628                USB_DEVICE_EndpointEnable

.text._USB_DEVICE_CDC_EndpointDisable
                0x000000009d03d680       0x58
 .text._USB_DEVICE_CDC_EndpointDisable
                0x000000009d03d680       0x58 build/pic32mz2048efm/production/_ext/196169617/usb_device_cdc.o
                0x000000009d03d680                _USB_DEVICE_CDC_EndpointDisable

.text.AD5940_SEQGenInsert
                0x000000009d03d6d8       0x58
 .text.AD5940_SEQGenInsert
                0x000000009d03d6d8       0x58 build/pic32mz2048efm/production/_ext/1230022092/ad5940.o
                0x000000009d03d6d8                AD5940_SEQGenInsert

.text.AD5940_ComplexDivInt
                0x000000009d03d730       0x58
 .text.AD5940_ComplexDivInt
                0x000000009d03d730       0x58 build/pic32mz2048efm/production/_ext/1230022092/ad5940.o
                0x000000009d03d730                AD5940_ComplexDivInt

.text.initCyclicTImer
                0x000000009d03d788       0x58
 .text.initCyclicTImer
                0x000000009d03d788       0x58 build/pic32mz2048efm/production/_ext/1360937237/app.o
                0x000000009d03d788                initCyclicTImer

.text.DRV_SDSPI_IsAttached
                0x000000009d03d7e0       0x54
 .text.DRV_SDSPI_IsAttached
                0x000000009d03d7e0       0x54 build/pic32mz2048efm/production/_ext/1044926641/drv_sdspi.o
                0x000000009d03d7e0                DRV_SDSPI_IsAttached

.text.DRV_USBHS_DEVICE_CurrentSpeedGet
                0x000000009d03d834       0x54
 .text.DRV_USBHS_DEVICE_CurrentSpeedGet
                0x000000009d03d834       0x54 build/pic32mz2048efm/production/_ext/1449458886/drv_usbhs_device.o
                0x000000009d03d834                DRV_USBHS_DEVICE_CurrentSpeedGet

.rodata.str1.4  0x000000009d03d888       0x54
 .rodata.str1.4
                0x000000009d03d888       0x54 build/pic32mz2048efm/production/_ext/1225530592/ff.o

.text.f_close   0x000000009d03d8dc       0x54
 .text.f_close  0x000000009d03d8dc       0x54 build/pic32mz2048efm/production/_ext/1225530592/ff.o
                0x000000009d03d8dc                f_close

.text.f_putc    0x000000009d03d930       0x54
 .text.f_putc   0x000000009d03d930       0x54 build/pic32mz2048efm/production/_ext/1225530592/ff.o
                0x000000009d03d930                f_putc

.text.ff_oem2uni
                0x000000009d03d984       0x54
 .text.ff_oem2uni
                0x000000009d03d984       0x54 build/pic32mz2048efm/production/_ext/1225530592/ffunicode.o
                0x000000009d03d984                ff_oem2uni

.text.createHexString
                0x000000009d03d9d8       0x54
 .text.createHexString
                0x000000009d03d9d8       0x54 build/pic32mz2048efm/production/_ext/1360937237/console.o
                0x000000009d03d9d8                createHexString

.text.main_entry
                0x000000009d03da2c       0x54
 .text.main_entry
                0x000000009d03da2c       0x54 /tmp/ccrPvX7l.o
                0x000000009d03da60                __crt0_exit

.text._DRV_SDSPI_SPIWrite
                0x000000009d03da80       0x50
 .text._DRV_SDSPI_SPIWrite
                0x000000009d03da80       0x50 build/pic32mz2048efm/production/_ext/1044926641/drv_sdspi_driver_interface.o
                0x000000009d03da80                _DRV_SDSPI_SPIWrite

.text._DRV_SDSPI_SPIRead
                0x000000009d03dad0       0x50
 .text._DRV_SDSPI_SPIRead
                0x000000009d03dad0       0x50 build/pic32mz2048efm/production/_ext/1044926641/drv_sdspi_driver_interface.o
                0x000000009d03dad0                _DRV_SDSPI_SPIRead

.text.AD5940_HSDacCfgS
                0x000000009d03db20       0x50
 .text.AD5940_HSDacCfgS
                0x000000009d03db20       0x50 build/pic32mz2048efm/production/_ext/1230022092/ad5940.o
                0x000000009d03db20                AD5940_HSDacCfgS

.text.AD5940_ADCMuxCfgS
                0x000000009d03db70       0x50
 .text.AD5940_ADCMuxCfgS
                0x000000009d03db70       0x50 build/pic32mz2048efm/production/_ext/1230022092/ad5940.o
                0x000000009d03db70                AD5940_ADCMuxCfgS

.text.AD5940_ADCDigCompCfgS
                0x000000009d03dbc0       0x50
 .text.AD5940_ADCDigCompCfgS
                0x000000009d03dbc0       0x50 build/pic32mz2048efm/production/_ext/1230022092/ad5940.o
                0x000000009d03dbc0                AD5940_ADCDigCompCfgS

.text.parseLoraFrame
                0x000000009d03dc10       0x50
 .text.parseLoraFrame
                0x000000009d03dc10       0x50 build/pic32mz2048efm/production/_ext/1360937237/mdot.o
                0x000000009d03dc10                parseLoraFrame

.text.initBuffer
                0x000000009d03dc60       0x50
 .text.initBuffer
                0x000000009d03dc60       0x50 build/pic32mz2048efm/production/_ext/1360937237/stringbuffer.o
                0x000000009d03dc60                initBuffer

.rodata.cst8    0x000000009d03dcb0       0x50
 .rodata.cst8   0x000000009d03dcb0       0x50 /opt/microchip/xc32/v3.01/bin/bin/../../lib/gcc/pic32mx/8.3.1/../../../../pic32mx/lib/fpu64/libmfd.a(e_atan2.o)

.text._DRV_USBHS_DEVICE_Initialize
                0x000000009d03dd00       0x4c
 .text._DRV_USBHS_DEVICE_Initialize
                0x000000009d03dd00       0x4c build/pic32mz2048efm/production/_ext/1449458886/drv_usbhs_device.o
                0x000000009d03dd00                _DRV_USBHS_DEVICE_Initialize

.text.SYS_CACHE_InvalidateDCache_by_Addr
                0x000000009d03dd4c       0x4c
 .text.SYS_CACHE_InvalidateDCache_by_Addr
                0x000000009d03dd4c       0x4c build/pic32mz2048efm/production/_ext/191419926/sys_cache.o
                0x000000009d03dd4c                SYS_CACHE_InvalidateDCache_by_Addr

.text.SYS_CACHE_CleanDCache_by_Addr
                0x000000009d03dd98       0x4c
 .text.SYS_CACHE_CleanDCache_by_Addr
                0x000000009d03dd98       0x4c build/pic32mz2048efm/production/_ext/191419926/sys_cache.o
                0x000000009d03dd98                SYS_CACHE_CleanDCache_by_Addr

.text.SYS_FS_MEDIA_MANAGER_TransferTask
                0x000000009d03dde4       0x4c
 .text.SYS_FS_MEDIA_MANAGER_TransferTask
                0x000000009d03dde4       0x4c build/pic32mz2048efm/production/_ext/1538077638/sys_fs_media_manager.o
                0x000000009d03dde4                SYS_FS_MEDIA_MANAGER_TransferTask

.text.FATFS_readdir
                0x000000009d03de30       0x4c
 .text.FATFS_readdir
                0x000000009d03de30       0x4c build/pic32mz2048efm/production/_ext/1538077638/sys_fs_fat_interface.o
                0x000000009d03de30                FATFS_readdir

.text.AD5940_AGPIOCfg
                0x000000009d03de7c       0x4c
 .text.AD5940_AGPIOCfg
                0x000000009d03de7c       0x4c build/pic32mz2048efm/production/_ext/1230022092/ad5940.o
                0x000000009d03de7c                AD5940_AGPIOCfg

.text.uart6_readCallback
                0x000000009d03dec8       0x4c
 .text.uart6_readCallback
                0x000000009d03dec8       0x4c build/pic32mz2048efm/production/_ext/1360937237/communication.o
                0x000000009d03dec8                uart6_readCallback

.text.sbrk      0x000000009d03df14       0x4c
 .text.sbrk     0x000000009d03df14       0x4c /opt/microchip/xc32/v3.01/bin/bin/../../lib/gcc/pic32mx/8.3.1/../../../../pic32mx/lib/fpu64/libpic32.a(sbrk.o)
                0x000000009d03df14                sbrk

.text.DRV_SDSPI_GeometryGet
                0x000000009d03df60       0x48
 .text.DRV_SDSPI_GeometryGet
                0x000000009d03df60       0x48 build/pic32mz2048efm/production/_ext/1044926641/drv_sdspi.o
                0x000000009d03df60                DRV_SDSPI_GeometryGet

.text._DRV_SDSPI_SPIDriverEventHandler
                0x000000009d03dfa8       0x48
 .text._DRV_SDSPI_SPIDriverEventHandler
                0x000000009d03dfa8       0x48 build/pic32mz2048efm/production/_ext/1044926641/drv_sdspi_driver_interface.o
                0x000000009d03dfa8                _DRV_SDSPI_SPIDriverEventHandler

.text._DRV_SDSPI_CardDetectPollingTimerStart
                0x000000009d03dff0       0x48
 .text._DRV_SDSPI_CardDetectPollingTimerStart
                0x000000009d03dff0       0x48 build/pic32mz2048efm/production/_ext/1044926641/drv_sdspi_driver_interface.o
                0x000000009d03dff0                _DRV_SDSPI_CardDetectPollingTimerStart

.text._DRV_SDSPI_CmdResponseTimerStart
                0x000000009d03e038       0x48
 .text._DRV_SDSPI_CmdResponseTimerStart
                0x000000009d03e038       0x48 build/pic32mz2048efm/production/_ext/1044926641/drv_sdspi_driver_interface.o
                0x000000009d03e038                _DRV_SDSPI_CmdResponseTimerStart

.text._DRV_SDSPI_TimerStart
                0x000000009d03e080       0x48
 .text._DRV_SDSPI_TimerStart
                0x000000009d03e080       0x48 build/pic32mz2048efm/production/_ext/1044926641/drv_sdspi_driver_interface.o
                0x000000009d03e080                _DRV_SDSPI_TimerStart

.text.DRV_USBHS_DEVICE_Attach
                0x000000009d03e0c8       0x48
 .text.DRV_USBHS_DEVICE_Attach
                0x000000009d03e0c8       0x48 build/pic32mz2048efm/production/_ext/1449458886/drv_usbhs_device.o
                0x000000009d03e0c8                DRV_USBHS_DEVICE_Attach

.text.FATFS_stat
                0x000000009d03e110       0x48
 .text.FATFS_stat
                0x000000009d03e110       0x48 build/pic32mz2048efm/production/_ext/1538077638/sys_fs_fat_interface.o
                0x000000009d03e110                FATFS_stat

.text.SYS_Tasks
                0x000000009d03e158       0x48
 .text.SYS_Tasks
                0x000000009d03e158       0x48 build/pic32mz2048efm/production/_ext/2011215161/tasks.o
                0x000000009d03e158                SYS_Tasks

.text._is_value_in_table
                0x000000009d03e1a0       0x48
 .text._is_value_in_table
                0x000000009d03e1a0       0x48 build/pic32mz2048efm/production/_ext/1230022092/ad5940.o

.text.AD5940_SEQGenInit
                0x000000009d03e1e8       0x48
 .text.AD5940_SEQGenInit
                0x000000009d03e1e8       0x48 build/pic32mz2048efm/production/_ext/1230022092/ad5940.o
                0x000000009d03e1e8                AD5940_SEQGenInit

.text.AD5940_MCUResourceInit
                0x000000009d03e230       0x48
 .text.AD5940_MCUResourceInit
                0x000000009d03e230       0x48 build/pic32mz2048efm/production/_ext/1230022092/pic32Port.o
                0x000000009d03e230                AD5940_MCUResourceInit

.rodata.cst8    0x000000009d03e278       0x90
 .rodata.cst8   0x000000009d03e278       0x48 /opt/microchip/xc32/v3.01/bin/bin/../../lib/gcc/pic32mx/8.3.1/../../../../pic32mx/lib/fpu64/libmfd.a(e_rem_pio2.o)
 .rodata.cst8   0x000000009d03e2c0       0x48 /opt/microchip/xc32/v3.01/bin/bin/../../lib/gcc/pic32mx/8.3.1/../../../../pic32mx/lib/fpu64/libmfd.a(k_cos.o)

.text.FATFS_close
                0x000000009d03e308       0x44
 .text.FATFS_close
                0x000000009d03e308       0x44 build/pic32mz2048efm/production/_ext/1538077638/sys_fs_fat_interface.o
                0x000000009d03e308                FATFS_close

.text.FATFS_closedir
                0x000000009d03e34c       0x44
 .text.FATFS_closedir
                0x000000009d03e34c       0x44 build/pic32mz2048efm/production/_ext/1538077638/sys_fs_fat_interface.o
                0x000000009d03e34c                FATFS_closedir

.text.SYS_TIME_ResourceUnlock
                0x000000009d03e390       0x44
 .text.SYS_TIME_ResourceUnlock
                0x000000009d03e390       0x44 build/pic32mz2048efm/production/_ext/519320518/sys_time.o

.text.USB_DEVICE_EndpointDisable
                0x000000009d03e3d4       0x44
 .text.USB_DEVICE_EndpointDisable
                0x000000009d03e3d4       0x44 build/pic32mz2048efm/production/_ext/196169617/usb_device.o
                0x000000009d03e3d4                USB_DEVICE_EndpointDisable

.text.USB_DEVICE_IRPCancelAll
                0x000000009d03e418       0x44
 .text.USB_DEVICE_IRPCancelAll
                0x000000009d03e418       0x44 build/pic32mz2048efm/production/_ext/196169617/usb_device.o
                0x000000009d03e418                USB_DEVICE_IRPCancelAll

.text.AD5940_DSPCfgS
                0x000000009d03e45c       0x44
 .text.AD5940_DSPCfgS
                0x000000009d03e45c       0x44 build/pic32mz2048efm/production/_ext/1230022092/ad5940.o
                0x000000009d03e45c                AD5940_DSPCfgS

.text           0x000000009d03e4a0       0x44
 .text          0x000000009d03e4a0       0x44 /opt/microchip/xc32/v3.01/bin/bin/../../lib/gcc/pic32mx/8.3.1/../../../../pic32mx/lib/fpu64/pic32_software_reset.o
                0x000000009d03e4a0                __pic32_software_reset

.text.puts      0x000000009d03e4e4       0x44
 .text.puts     0x000000009d03e4e4       0x44 /opt/microchip/xc32/v3.01/bin/bin/../../lib/gcc/pic32mx/8.3.1/../../../../pic32mx/lib/fpu64/libc.a(puts.o)
                0x000000009d03e4e4                puts

.text.DRV_SDSPI_EventHandlerSet
                0x000000009d03e528       0x40
 .text.DRV_SDSPI_EventHandlerSet
                0x000000009d03e528       0x40 build/pic32mz2048efm/production/_ext/1044926641/drv_sdspi.o
                0x000000009d03e528                DRV_SDSPI_EventHandlerSet

.text.TMR2_Initialize
                0x000000009d03e568       0x40
 .text.TMR2_Initialize
                0x000000009d03e568       0x40 build/pic32mz2048efm/production/_ext/323810894/plib_tmr2.o
                0x000000009d03e568                TMR2_Initialize

.text.TIMER_2_InterruptHandler
                0x000000009d03e5a8       0x40
 .text.TIMER_2_InterruptHandler
                0x000000009d03e5a8       0x40 build/pic32mz2048efm/production/_ext/323810894/plib_tmr2.o
                0x000000009d03e5a8                TIMER_2_InterruptHandler

.text.TIMER_3_InterruptHandler
                0x000000009d03e5e8       0x40
 .text.TIMER_3_InterruptHandler
                0x000000009d03e5e8       0x40 build/pic32mz2048efm/production/_ext/323810894/plib_tmr3.o
                0x000000009d03e5e8                TIMER_3_InterruptHandler

.text.ld_clust  0x000000009d03e628       0x40
 .text.ld_clust
                0x000000009d03e628       0x40 build/pic32mz2048efm/production/_ext/1225530592/ff.o

.text.FATFS_mkfs
                0x000000009d03e668       0x40
 .text.FATFS_mkfs
                0x000000009d03e668       0x40 build/pic32mz2048efm/production/_ext/1538077638/sys_fs_fat_interface.o
                0x000000009d03e668                FATFS_mkfs

.text.AD5940_ReadWrite16B
                0x000000009d03e6a8       0x40
 .text.AD5940_ReadWrite16B
                0x000000009d03e6a8       0x40 build/pic32mz2048efm/production/_ext/1230022092/ad5940.o

.text.AD5940_HSLoopCfgS
                0x000000009d03e6e8       0x40
 .text.AD5940_HSLoopCfgS
                0x000000009d03e6e8       0x40 build/pic32mz2048efm/production/_ext/1230022092/ad5940.o
                0x000000009d03e6e8                AD5940_HSLoopCfgS

.text.AD5940_StatisticCfgS
                0x000000009d03e728       0x40
 .text.AD5940_StatisticCfgS
                0x000000009d03e728       0x40 build/pic32mz2048efm/production/_ext/1230022092/ad5940.o
                0x000000009d03e728                AD5940_StatisticCfgS

.text.AD5940_WUPTCtrl
                0x000000009d03e768       0x40
 .text.AD5940_WUPTCtrl
                0x000000009d03e768       0x40 build/pic32mz2048efm/production/_ext/1230022092/ad5940.o
                0x000000009d03e768                AD5940_WUPTCtrl

.text.delay_us  0x000000009d03e7a8       0x40
 .text.delay_us
                0x000000009d03e7a8       0x40 build/pic32mz2048efm/production/_ext/1230022092/pic32Port.o
                0x000000009d03e7a8                delay_us

.rodata.str1.4  0x000000009d03e7e8       0x40
 .rodata.str1.4
                0x000000009d03e7e8       0x40 build/pic32mz2048efm/production/_ext/1360937237/app.o

.text.mDotWait  0x000000009d03e828       0x40
 .text.mDotWait
                0x000000009d03e828       0x40 build/pic32mz2048efm/production/_ext/1360937237/mdot.o
                0x000000009d03e828                mDotWait

.text.mDotCounters
                0x000000009d03e868       0x40
 .text.mDotCounters
                0x000000009d03e868       0x40 build/pic32mz2048efm/production/_ext/1360937237/mdot.o
                0x000000009d03e868                mDotCounters

.text.available
                0x000000009d03e8a8       0x40
 .text.available
                0x000000009d03e8a8       0x40 build/pic32mz2048efm/production/_ext/1360937237/stringbuffer.o
                0x000000009d03e8a8                available

.rodata         0x000000009d03e8e8       0x40
 .rodata        0x000000009d03e8e8       0x40 /opt/microchip/xc32/v3.01/bin/bin/../../lib/gcc/pic32mx/8.3.1/../../../../pic32mx/lib/fpu64/libmfd.a(s_atan.o)

.text._DRV_SDSPI_SPISpeedSetup
                0x000000009d03e928       0x3c
 .text._DRV_SDSPI_SPISpeedSetup
                0x000000009d03e928       0x3c build/pic32mz2048efm/production/_ext/1044926641/drv_sdspi_driver_interface.o
                0x000000009d03e928                _DRV_SDSPI_SPISpeedSetup

.text.CORETIMER_Initialize
                0x000000009d03e964       0x3c
 .text.CORETIMER_Initialize
                0x000000009d03e964       0x3c build/pic32mz2048efm/production/_ext/1871117435/plib_coretimer.o
                0x000000009d03e964                CORETIMER_Initialize

.text.TMR3_Initialize
                0x000000009d03e9a0       0x3c
 .text.TMR3_Initialize
                0x000000009d03e9a0       0x3c build/pic32mz2048efm/production/_ext/323810894/plib_tmr3.o
                0x000000009d03e9a0                TMR3_Initialize

.text.AD5940_INTCTestFlag
                0x000000009d03e9dc       0x3c
 .text.AD5940_INTCTestFlag
                0x000000009d03e9dc       0x3c build/pic32mz2048efm/production/_ext/1230022092/ad5940.o
                0x000000009d03e9dc                AD5940_INTCTestFlag

.text.strncmp   0x000000009d03ea18       0x3c
 .text.strncmp  0x000000009d03ea18       0x3c /opt/microchip/xc32/v3.01/bin/bin/../../lib/gcc/pic32mx/8.3.1/../../../../pic32mx/lib/fpu64/libc.a(strncmp.o)
                0x000000009d03ea18                strncmp

.text           0x000000009d03ea54       0x3c
 .text          0x000000009d03ea54       0x3c /opt/microchip/xc32/v3.01/bin/bin/../../lib/gcc/pic32mx/8.3.1/fpu64/libgcc.a(_lshrdi3.o)
                0x000000009d03ea54                __lshrdi3

.text._DRV_SDSPI_CmdResponseTimerStop
                0x000000009d03ea90       0x38
 .text._DRV_SDSPI_CmdResponseTimerStop
                0x000000009d03ea90       0x38 build/pic32mz2048efm/production/_ext/1044926641/drv_sdspi_driver_interface.o
                0x000000009d03ea90                _DRV_SDSPI_CmdResponseTimerStop

.text._DRV_SDSPI_TimerStop
                0x000000009d03eac8       0x38
 .text._DRV_SDSPI_TimerStop
                0x000000009d03eac8       0x38 build/pic32mz2048efm/production/_ext/1044926641/drv_sdspi_driver_interface.o
                0x000000009d03eac8                _DRV_SDSPI_TimerStop

.text.DRV_USBHS_DEVICE_AddressSet
                0x000000009d03eb00       0x38
 .text.DRV_USBHS_DEVICE_AddressSet
                0x000000009d03eb00       0x38 build/pic32mz2048efm/production/_ext/1449458886/drv_usbhs_device.o
                0x000000009d03eb00                DRV_USBHS_DEVICE_AddressSet

.rodata         0x000000009d03eb38       0x38
 .rodata        0x000000009d03eb38       0x38 build/pic32mz2048efm/production/_ext/1449458886/drv_usbhs_device.o

.text.UART5_Initialize
                0x000000009d03eb70       0x38
 .text.UART5_Initialize
                0x000000009d03eb70       0x38 build/pic32mz2048efm/production/_ext/1448221497/plib_uart5.o
                0x000000009d03eb70                UART5_Initialize

.text.AD5940_ADCBaseCfgS
                0x000000009d03eba8       0x38
 .text.AD5940_ADCBaseCfgS
                0x000000009d03eba8       0x38 build/pic32mz2048efm/production/_ext/1230022092/ad5940.o
                0x000000009d03eba8                AD5940_ADCBaseCfgS

.text._printf_cdgGnopsuxX
                0x000000009d03ebe0       0x38
 .text._printf_cdgGnopsuxX
                0x000000009d03ebe0       0x38 /opt/microchip/xc32/v3.01/bin/bin/../../lib/gcc/pic32mx/8.3.1/../../../../pic32mx/lib/fpu64/libc.a(printf_cdgGnopsuxX.eo)
                0x000000009d03ebe0                _printf_cdgGnopsuxX

.rodata.cst8    0x000000009d03ec18       0x70
 .rodata.cst8   0x000000009d03ec18       0x38 /opt/microchip/xc32/v3.01/bin/bin/../../lib/gcc/pic32mx/8.3.1/../../../../pic32mx/lib/fpu64/libc.a(doprnt_cdgGnopsuxX.eo)
 .rodata.cst8   0x000000009d03ec50       0x38 /opt/microchip/xc32/v3.01/bin/bin/../../lib/gcc/pic32mx/8.3.1/../../../../pic32mx/lib/fpu64/libmfd.a(k_sin.o)

.text.RTCC_InterruptHandler
                0x000000009d03ec88       0x34
 .text.RTCC_InterruptHandler
                0x000000009d03ec88       0x34 build/pic32mz2048efm/production/_ext/1448149901/plib_rtcc.o
                0x000000009d03ec88                RTCC_InterruptHandler

.text.clst2sect
                0x000000009d03ecbc       0x34
 .text.clst2sect
                0x000000009d03ecbc       0x34 build/pic32mz2048efm/production/_ext/1225530592/ff.o

.text.st_clust  0x000000009d03ecf0       0x34
 .text.st_clust
                0x000000009d03ecf0       0x34 build/pic32mz2048efm/production/_ext/1225530592/ff.o

.text.SYS_FS_MEDIA_MANAGER_GetMediaGeometry
                0x000000009d03ed24       0x34
 .text.SYS_FS_MEDIA_MANAGER_GetMediaGeometry
                0x000000009d03ed24       0x34 build/pic32mz2048efm/production/_ext/1538077638/sys_fs_media_manager.o
                0x000000009d03ed24                SYS_FS_MEDIA_MANAGER_GetMediaGeometry

.text.AD5940_SEQMmrTrig
                0x000000009d03ed58       0x34
 .text.AD5940_SEQMmrTrig
                0x000000009d03ed58       0x34 build/pic32mz2048efm/production/_ext/1230022092/ad5940.o
                0x000000009d03ed58                AD5940_SEQMmrTrig

.text.AD5940_HWReset
                0x000000009d03ed8c       0x34
 .text.AD5940_HWReset
                0x000000009d03ed8c       0x34 build/pic32mz2048efm/production/_ext/1230022092/ad5940.o
                0x000000009d03ed8c                AD5940_HWReset

.text.initRollAve
                0x000000009d03edc0       0x34
 .text.initRollAve
                0x000000009d03edc0       0x34 build/pic32mz2048efm/production/_ext/1360937237/auxillary_sensors.o
                0x000000009d03edc0                initRollAve

.text.pushSample
                0x000000009d03edf4       0x34
 .text.pushSample
                0x000000009d03edf4       0x34 build/pic32mz2048efm/production/_ext/1360937237/auxillary_sensors.o
                0x000000009d03edf4                pushSample

.text.setbuf    0x000000009d03ee28       0x34
 .text.setbuf   0x000000009d03ee28       0x34 /opt/microchip/xc32/v3.01/bin/bin/../../lib/gcc/pic32mx/8.3.1/../../../../pic32mx/lib/fpu64/libc.a(setbuf.o)
                0x000000009d03ee28                setbuf

.text           0x000000009d03ee5c       0x68
 .text          0x000000009d03ee5c       0x34 /opt/microchip/xc32/v3.01/bin/bin/../../lib/gcc/pic32mx/8.3.1/../../../../pic32mx/lib/fpu64/libmfd.a(sqrtfd.o)
                0x000000009d03ee5c                _sqrtfd
 .text          0x000000009d03ee90       0x34 /opt/microchip/xc32/v3.01/bin/bin/../../lib/gcc/pic32mx/8.3.1/fpu64/libgcc.a(_cmpdi2.o)
                0x000000009d03ee90                __cmpdi2

.rodata         0x000000009d03eec4       0x30
 .rodata        0x000000009d03eec4       0x30 build/pic32mz2048efm/production/_ext/1044926641/drv_sdspi_file_system.o
                0x000000009d03eec4                sdspiMediaFunctions

.text.DRV_USBHS_Close
                0x000000009d03eef4       0x30
 .text.DRV_USBHS_Close
                0x000000009d03eef4       0x30 build/pic32mz2048efm/production/_ext/1449458886/drv_usbhs.o
                0x000000009d03eef4                DRV_USBHS_Close

.text.sum_sfn   0x000000009d03ef24       0x30
 .text.sum_sfn  0x000000009d03ef24       0x30 build/pic32mz2048efm/production/_ext/1225530592/ff.o

.text.f_chdrive
                0x000000009d03ef54       0x30
 .text.f_chdrive
                0x000000009d03ef54       0x30 build/pic32mz2048efm/production/_ext/1225530592/ff.o
                0x000000009d03ef54                f_chdrive

.text.FATFS_chdrive
                0x000000009d03ef84       0x30
 .text.FATFS_chdrive
                0x000000009d03ef84       0x30 build/pic32mz2048efm/production/_ext/1538077638/sys_fs_fat_interface.o
                0x000000009d03ef84                FATFS_chdrive

.text.AD5940_SEQGenFetchSeq
                0x000000009d03efb4       0x30
 .text.AD5940_SEQGenFetchSeq
                0x000000009d03efb4       0x30 build/pic32mz2048efm/production/_ext/1230022092/ad5940.o
                0x000000009d03efb4                AD5940_SEQGenFetchSeq

.text.AD5940_ComplexMag
                0x000000009d03efe4       0x30
 .text.AD5940_ComplexMag
                0x000000009d03efe4       0x30 build/pic32mz2048efm/production/_ext/1230022092/ad5940.o
                0x000000009d03efe4                AD5940_ComplexMag

.text.AD5940_FIFOCtrlS
                0x000000009d03f014       0x30
 .text.AD5940_FIFOCtrlS
                0x000000009d03f014       0x30 build/pic32mz2048efm/production/_ext/1230022092/ad5940.o
                0x000000009d03f014                AD5940_FIFOCtrlS

.text.changeIntHandler
                0x000000009d03f044       0x30
 .text.changeIntHandler
                0x000000009d03f044       0x30 build/pic32mz2048efm/production/_ext/1230022092/pic32Port.o
                0x000000009d03f044                changeIntHandler

.text.clearSendBufferUart6
                0x000000009d03f074       0x30
 .text.clearSendBufferUart6
                0x000000009d03f074       0x30 build/pic32mz2048efm/production/_ext/1360937237/communication.o
                0x000000009d03f074                clearSendBufferUart6

.text.clearReceiveBufferUart6
                0x000000009d03f0a4       0x30
 .text.clearReceiveBufferUart6
                0x000000009d03f0a4       0x30 build/pic32mz2048efm/production/_ext/1360937237/communication.o
                0x000000009d03f0a4                clearReceiveBufferUart6

.text.clearSendBufferUart2
                0x000000009d03f0d4       0x30
 .text.clearSendBufferUart2
                0x000000009d03f0d4       0x30 build/pic32mz2048efm/production/_ext/1360937237/communication.o
                0x000000009d03f0d4                clearSendBufferUart2

.text.clearReceiveBufferUart2
                0x000000009d03f104       0x30
 .text.clearReceiveBufferUart2
                0x000000009d03f104       0x30 build/pic32mz2048efm/production/_ext/1360937237/communication.o
                0x000000009d03f104                clearReceiveBufferUart2

.rodata         0x000000009d03f134       0x30
 .rodata        0x000000009d03f134       0x30 build/pic32mz2048efm/production/_ext/1360937237/time_keeping.o

.text.free      0x000000009d03f164       0x30
 .text.free     0x000000009d03f164       0x30 /opt/microchip/xc32/v3.01/bin/bin/../../lib/gcc/pic32mx/8.3.1/../../../../pic32mx/lib/fpu64/libc.a(malloc.o)
                0x000000009d03f164                free

.rodata.str1.4  0x000000009d03f194       0x60
 .rodata.str1.4
                0x000000009d03f194       0x30 /opt/microchip/xc32/v3.01/bin/bin/../../lib/gcc/pic32mx/8.3.1/../../../../pic32mx/lib/fpu64/libc.a(doprnt_cdgGnopsuxX.eo)
 .rodata.str1.4
                0x000000009d03f1c4       0x30 /opt/microchip/xc32/v3.01/bin/bin/../../lib/gcc/pic32mx/8.3.1/../../../../pic32mx/lib/fpu64/libc.a(doprnt_cdnopsuxX.eo)

.rodata         0x000000009d03f1f8       0x60
 .rodata        0x000000009d03f1f8       0x30 /opt/microchip/xc32/v3.01/bin/bin/../../lib/gcc/pic32mx/8.3.1/../../../../pic32mx/lib/fpu64/libmfd.a(strtod.o)
 .rodata        0x000000009d03f228       0x30 /opt/microchip/xc32/v3.01/bin/bin/../../lib/gcc/pic32mx/8.3.1/../../../../pic32mx/lib/fpu64/libmfd.a(e_exp.o)

.rodata         0x000000009d03f258       0x30
 .rodata        0x000000009d03f258       0x30 /opt/microchip/xc32/v3.01/bin/bin/../../lib/gcc/pic32mx/8.3.1/../../../../pic32mx/lib/fpu64/libmfd.a(e_pow.o)

.rodata.cst8    0x000000009d03f288       0x30
 .rodata.cst8   0x000000009d03f288       0x30 /opt/microchip/xc32/v3.01/bin/bin/../../lib/gcc/pic32mx/8.3.1/../../../../pic32mx/lib/fpu64/libmfd.a(s_scalbn.o)

.text.DRV_SPI_ReadTransferAdd
                0x000000009d03f2b8       0x2c
 .text.DRV_SPI_ReadTransferAdd
                0x000000009d03f2b8       0x2c build/pic32mz2048efm/production/_ext/1807302558/drv_spi.o
                0x000000009d03f2b8                DRV_SPI_ReadTransferAdd

.text._mon_putc
                0x000000009d03f2e4       0x2c
 .text._mon_putc
                0x000000009d03f2e4       0x2c build/pic32mz2048efm/production/_ext/1212781247/xc32_monitor.o
                0x000000009d03f2e4                _mon_putc

.text.ld_dword  0x000000009d03f310       0x2c
 .text.ld_dword
                0x000000009d03f310       0x2c build/pic32mz2048efm/production/_ext/1225530592/ff.o

.text.SYS_INT_SourceRestore
                0x000000009d03f33c       0x2c
 .text.SYS_INT_SourceRestore
                0x000000009d03f33c       0x2c build/pic32mz2048efm/production/_ext/2145297452/sys_int.o
                0x000000009d03f33c                SYS_INT_SourceRestore

.text.AD5940_ReadWrite8B
                0x000000009d03f368       0x2c
 .text.AD5940_ReadWrite8B
                0x000000009d03f368       0x2c build/pic32mz2048efm/production/_ext/1230022092/ad5940.o

.text.AD5940_ComplexPhase
                0x000000009d03f394       0x2c
 .text.AD5940_ComplexPhase
                0x000000009d03f394       0x2c build/pic32mz2048efm/production/_ext/1230022092/ad5940.o
                0x000000009d03f394                AD5940_ComplexPhase

.text.AD5940_LPDAC0WriteS
                0x000000009d03f3c0       0x2c
 .text.AD5940_LPDAC0WriteS
                0x000000009d03f3c0       0x2c build/pic32mz2048efm/production/_ext/1230022092/ad5940.o
                0x000000009d03f3c0                AD5940_LPDAC0WriteS

.text.AD5940_LPDAC1WriteS
                0x000000009d03f3ec       0x2c
 .text.AD5940_LPDAC1WriteS
                0x000000009d03f3ec       0x2c build/pic32mz2048efm/production/_ext/1230022092/ad5940.o
                0x000000009d03f3ec                AD5940_LPDAC1WriteS

.text.AD5940_LPLoopCfgS
                0x000000009d03f418       0x2c
 .text.AD5940_LPLoopCfgS
                0x000000009d03f418       0x2c build/pic32mz2048efm/production/_ext/1230022092/ad5940.o
                0x000000009d03f418                AD5940_LPLoopCfgS

.text.AD5940_EnterSleepS
                0x000000009d03f444       0x2c
 .text.AD5940_EnterSleepS
                0x000000009d03f444       0x2c build/pic32mz2048efm/production/_ext/1230022092/ad5940.o
                0x000000009d03f444                AD5940_EnterSleepS

.text.AD5940_Delay10us
                0x000000009d03f470       0x2c
 .text.AD5940_Delay10us
                0x000000009d03f470       0x2c build/pic32mz2048efm/production/_ext/1230022092/pic32Port.o
                0x000000009d03f470                AD5940_Delay10us

.text._stub_sbd_memlayout
                0x000000009d03f49c       0x2c
 .text._stub_sbd_memlayout
                0x000000009d03f49c       0x2c /opt/microchip/xc32/v3.01/bin/bin/../../lib/gcc/pic32mx/8.3.1/../../../../pic32mx/lib/fpu64/libpic32.a(sbrk.o)
                0x000000009d03f49c                _stub_sbd_memlayout
                0x000000009d03f49c                _sbd_memlayout

.text.DRV_SDSPI_AsyncWrite
                0x000000009d03f4c8       0x28
 .text.DRV_SDSPI_AsyncWrite
                0x000000009d03f4c8       0x28 build/pic32mz2048efm/production/_ext/1044926641/drv_sdspi.o
                0x000000009d03f4c8                DRV_SDSPI_AsyncWrite

.text.DRV_SDSPI_RegisterWithSysFs
                0x000000009d03f4f0       0x28
 .text.DRV_SDSPI_RegisterWithSysFs
                0x000000009d03f4f0       0x28 build/pic32mz2048efm/production/_ext/1044926641/drv_sdspi_file_system.o
                0x000000009d03f4f0                DRV_SDSPI_RegisterWithSysFs

.text.EVIC_SourceEnable
                0x000000009d03f518       0x28
 .text.EVIC_SourceEnable
                0x000000009d03f518       0x28 build/pic32mz2048efm/production/_ext/1447764726/plib_evic.o
                0x000000009d03f518                EVIC_SourceEnable

.text.EVIC_SourceDisable
                0x000000009d03f540       0x28
 .text.EVIC_SourceDisable
                0x000000009d03f540       0x28 build/pic32mz2048efm/production/_ext/1447764726/plib_evic.o
                0x000000009d03f540                EVIC_SourceDisable

.text.EVIC_SourceStatusClear
                0x000000009d03f568       0x28
 .text.EVIC_SourceStatusClear
                0x000000009d03f568       0x28 build/pic32mz2048efm/production/_ext/1447764726/plib_evic.o
                0x000000009d03f568                EVIC_SourceStatusClear

.text.EVIC_INT_Restore
                0x000000009d03f590       0x28
 .text.EVIC_INT_Restore
                0x000000009d03f590       0x28 build/pic32mz2048efm/production/_ext/1447764726/plib_evic.o
                0x000000009d03f590                EVIC_INT_Restore

.text._SYS_FS_MEDIA_MANAGER_HandleMediaDetach
                0x000000009d03f5b8       0x28
 .text._SYS_FS_MEDIA_MANAGER_HandleMediaDetach
                0x000000009d03f5b8       0x28 build/pic32mz2048efm/production/_ext/1538077638/sys_fs_media_manager.o

.text._USB_DEVICE_ClientHandleValidate
                0x000000009d03f5e0       0x28
 .text._USB_DEVICE_ClientHandleValidate
                0x000000009d03f5e0       0x28 build/pic32mz2048efm/production/_ext/196169617/usb_device.o
                0x000000009d03f5e0                _USB_DEVICE_ClientHandleValidate

.text.AD5940_SEQGenCtrl
                0x000000009d03f608       0x28
 .text.AD5940_SEQGenCtrl
                0x000000009d03f608       0x28 build/pic32mz2048efm/production/_ext/1230022092/ad5940.o
                0x000000009d03f608                AD5940_SEQGenCtrl

.text.AD5940_WGFreqCtrlS
                0x000000009d03f630       0x28
 .text.AD5940_WGFreqCtrlS
                0x000000009d03f630       0x28 build/pic32mz2048efm/production/_ext/1230022092/ad5940.o
                0x000000009d03f630                AD5940_WGFreqCtrlS

.text.AD5940_CsClr
                0x000000009d03f658       0x28
 .text.AD5940_CsClr
                0x000000009d03f658       0x28 build/pic32mz2048efm/production/_ext/1230022092/pic32Port.o
                0x000000009d03f658                AD5940_CsClr

.text.AD5940_CsSet
                0x000000009d03f680       0x28
 .text.AD5940_CsSet
                0x000000009d03f680       0x28 build/pic32mz2048efm/production/_ext/1230022092/pic32Port.o
                0x000000009d03f680                AD5940_CsSet

.text.AD5940_RstSet
                0x000000009d03f6a8       0x28
 .text.AD5940_RstSet
                0x000000009d03f6a8       0x28 build/pic32mz2048efm/production/_ext/1230022092/pic32Port.o
                0x000000009d03f6a8                AD5940_RstSet

.text.AD5940_RstClr
                0x000000009d03f6d0       0x28
 .text.AD5940_RstClr
                0x000000009d03f6d0       0x28 build/pic32mz2048efm/production/_ext/1230022092/pic32Port.o
                0x000000009d03f6d0                AD5940_RstClr

.text.AD5940MAIN_Initialize
                0x000000009d03f6f8       0x28
 .text.AD5940MAIN_Initialize
                0x000000009d03f6f8       0x28 build/pic32mz2048efm/production/_ext/1230022092/ad5940main.o
                0x000000009d03f6f8                AD5940MAIN_Initialize

.text.strchr    0x000000009d03f720       0x28
 .text.strchr   0x000000009d03f720       0x28 /opt/microchip/xc32/v3.01/bin/bin/../../lib/gcc/pic32mx/8.3.1/../../../../pic32mx/lib/fpu64/libc.a(strchr.o)
                0x000000009d03f720                strchr

.text.toupper   0x000000009d03f748       0x28
 .text.toupper  0x000000009d03f748       0x28 /opt/microchip/xc32/v3.01/bin/bin/../../lib/gcc/pic32mx/8.3.1/../../../../pic32mx/lib/fpu64/libc.a(ctypef.o)
                0x000000009d03f748                toupper

.rodata.cst8    0x000000009d03f770       0x50
 .rodata.cst8   0x000000009d03f770       0x28 /opt/microchip/xc32/v3.01/bin/bin/../../lib/gcc/pic32mx/8.3.1/../../../../pic32mx/lib/fpu64/libc.a(doprnt_fF.eo)
 .rodata.cst8   0x000000009d03f798       0x28 /opt/microchip/xc32/v3.01/bin/bin/../../lib/gcc/pic32mx/8.3.1/../../../../pic32mx/lib/fpu64/libmfd.a(e_log10.o)

.text.DRV_SDSPI_AsyncRead
                0x000000009d03f7c0       0x24
 .text.DRV_SDSPI_AsyncRead
                0x000000009d03f7c0       0x24 build/pic32mz2048efm/production/_ext/1044926641/drv_sdspi.o
                0x000000009d03f7c0                DRV_SDSPI_AsyncRead

.text.DRV_SPI_WriteTransferAdd
                0x000000009d03f7e4       0x24
 .text.DRV_SPI_WriteTransferAdd
                0x000000009d03f7e4       0x24 build/pic32mz2048efm/production/_ext/1807302558/drv_spi.o
                0x000000009d03f7e4                DRV_SPI_WriteTransferAdd

.text.CACHE_DataCacheClean
                0x000000009d03f808       0x24
 .text.CACHE_DataCacheClean
                0x000000009d03f808       0x24 build/pic32mz2048efm/production/_ext/1928555383/plib_cache.o
                0x000000009d03f808                CACHE_DataCacheClean

.text.CACHE_DataCacheInvalidate
                0x000000009d03f82c       0x24
 .text.CACHE_DataCacheInvalidate
                0x000000009d03f82c       0x24 build/pic32mz2048efm/production/_ext/1928555383/plib_cache.o
                0x000000009d03f82c                CACHE_DataCacheInvalidate

.text.mem_cpy   0x000000009d03f850       0x24
 .text.mem_cpy  0x000000009d03f850       0x24 build/pic32mz2048efm/production/_ext/1225530592/ff.o

.text.disk_initialize
                0x000000009d03f874       0x24
 .text.disk_initialize
                0x000000009d03f874       0x24 build/pic32mz2048efm/production/_ext/1545496361/diskio.o
                0x000000009d03f874                disk_initialize

.text.AppBIAGetCfg
                0x000000009d03f898       0x24
 .text.AppBIAGetCfg
                0x000000009d03f898       0x24 build/pic32mz2048efm/production/_ext/1230022092/BodyImpedance.o
                0x000000009d03f898                AppBIAGetCfg

.text.AD5940_AFEPwrBW
                0x000000009d03f8bc       0x24
 .text.AD5940_AFEPwrBW
                0x000000009d03f8bc       0x24 build/pic32mz2048efm/production/_ext/1230022092/ad5940.o
                0x000000009d03f8bc                AD5940_AFEPwrBW

.text.sendBufferUart6
                0x000000009d03f8e0       0x24
 .text.sendBufferUart6
                0x000000009d03f8e0       0x24 build/pic32mz2048efm/production/_ext/1360937237/communication.o
                0x000000009d03f8e0                sendBufferUart6

.text.communication_task
                0x000000009d03f904       0x24
 .text.communication_task
                0x000000009d03f904       0x24 build/pic32mz2048efm/production/_ext/1360937237/communication.o
                0x000000009d03f904                communication_task

.text.DRV_USBHS_InterruptHandler
                0x000000009d03f928       0x20
 .text.DRV_USBHS_InterruptHandler
                0x000000009d03f928       0x20 build/pic32mz2048efm/production/_ext/1449458886/drv_usbhs.o
                0x000000009d03f928                DRV_USBHS_InterruptHandler

.text.DRV_USBHS_DMAInterruptHandler
                0x000000009d03f948       0x20
 .text.DRV_USBHS_DMAInterruptHandler
                0x000000009d03f948       0x20 build/pic32mz2048efm/production/_ext/1449458886/drv_usbhs.o
                0x000000009d03f948                DRV_USBHS_DMAInterruptHandler

.text._DRV_USBHS_DEVICE_FIFOFreeAll
                0x000000009d03f968       0x20
 .text._DRV_USBHS_DEVICE_FIFOFreeAll
                0x000000009d03f968       0x20 build/pic32mz2048efm/production/_ext/1449458886/drv_usbhs_device.o
                0x000000009d03f968                _DRV_USBHS_DEVICE_FIFOFreeAll

.text.EVIC_SourceIsEnabled
                0x000000009d03f988       0x20
 .text.EVIC_SourceIsEnabled
                0x000000009d03f988       0x20 build/pic32mz2048efm/production/_ext/1447764726/plib_evic.o
                0x000000009d03f988                EVIC_SourceIsEnabled

.text.EVIC_INT_Disable
                0x000000009d03f9a8       0x20
 .text.EVIC_INT_Disable
                0x000000009d03f9a8       0x20 build/pic32mz2048efm/production/_ext/1447764726/plib_evic.o
                0x000000009d03f9a8                EVIC_INT_Disable

.text.st_dword  0x000000009d03f9c8       0x20
 .text.st_dword
                0x000000009d03f9c8       0x20 build/pic32mz2048efm/production/_ext/1225530592/ff.o

.rodata.str1.4  0x000000009d03f9e8       0x20
 .rodata.str1.4
                0x000000009d03f9e8       0x20 build/pic32mz2048efm/production/_ext/1538077638/sys_fs_media_manager.o

.text._USB_DEVICE_CDC_GlobalInitialize
                0x000000009d03fa08       0x20
 .text._USB_DEVICE_CDC_GlobalInitialize
                0x000000009d03fa08       0x20 build/pic32mz2048efm/production/_ext/196169617/usb_device_cdc.o
                0x000000009d03fa08                _USB_DEVICE_CDC_GlobalInitialize

.text.AD5940_StructInit
                0x000000009d03fa28       0x20
 .text.AD5940_StructInit
                0x000000009d03fa28       0x20 build/pic32mz2048efm/production/_ext/1230022092/ad5940.o
                0x000000009d03fa28                AD5940_StructInit

.text.AD5940_FIFOGetCnt
                0x000000009d03fa48       0x20
 .text.AD5940_FIFOGetCnt
                0x000000009d03fa48       0x20 build/pic32mz2048efm/production/_ext/1230022092/ad5940.o
                0x000000009d03fa48                AD5940_FIFOGetCnt

.text.AD5940_SEQGpioCtrlS
                0x000000009d03fa68       0x20
 .text.AD5940_SEQGpioCtrlS
                0x000000009d03fa68       0x20 build/pic32mz2048efm/production/_ext/1230022092/ad5940.o
                0x000000009d03fa68                AD5940_SEQGpioCtrlS

.text.AD5940_INTCClrFlag
                0x000000009d03fa88       0x20
 .text.AD5940_INTCClrFlag
                0x000000009d03fa88       0x20 build/pic32mz2048efm/production/_ext/1230022092/ad5940.o
                0x000000009d03fa88                AD5940_INTCClrFlag

.text.AD5940_AGPIOFuncCfg
                0x000000009d03faa8       0x20
 .text.AD5940_AGPIOFuncCfg
                0x000000009d03faa8       0x20 build/pic32mz2048efm/production/_ext/1230022092/ad5940.o
                0x000000009d03faa8                AD5940_AGPIOFuncCfg

.text.AD5940_AGPIOOen
                0x000000009d03fac8       0x20
 .text.AD5940_AGPIOOen
                0x000000009d03fac8       0x20 build/pic32mz2048efm/production/_ext/1230022092/ad5940.o
                0x000000009d03fac8                AD5940_AGPIOOen

.text.AD5940_AGPIOIen
                0x000000009d03fae8       0x20
 .text.AD5940_AGPIOIen
                0x000000009d03fae8       0x20 build/pic32mz2048efm/production/_ext/1230022092/ad5940.o
                0x000000009d03fae8                AD5940_AGPIOIen

.text.AD5940_AGPIOPen
                0x000000009d03fb08       0x20
 .text.AD5940_AGPIOPen
                0x000000009d03fb08       0x20 build/pic32mz2048efm/production/_ext/1230022092/ad5940.o
                0x000000009d03fb08                AD5940_AGPIOPen

.text.AD5940_SleepKeyCtrlS
                0x000000009d03fb28       0x20
 .text.AD5940_SleepKeyCtrlS
                0x000000009d03fb28       0x20 build/pic32mz2048efm/production/_ext/1230022092/ad5940.o
                0x000000009d03fb28                AD5940_SleepKeyCtrlS

.rodata.cst8    0x000000009d03fb48       0x20
 .rodata.cst8   0x000000009d03fb48       0x20 build/pic32mz2048efm/production/_ext/1230022092/ad5940.o

.text.main      0x000000009d03fb68       0x20
 .text.main     0x000000009d03fb68       0x20 build/pic32mz2048efm/production/_ext/1360937237/main.o
                0x000000009d03fb68                main

.text.waitI2C2  0x000000009d03fb88       0x20
 .text.waitI2C2
                0x000000009d03fb88       0x20 build/pic32mz2048efm/production/_ext/1360937237/auxillary_sensors.o
                0x000000009d03fb88                waitI2C2

.text.pollAuxSensors
                0x000000009d03fba8       0x20
 .text.pollAuxSensors
                0x000000009d03fba8       0x20 build/pic32mz2048efm/production/_ext/1360937237/auxillary_sensors.o
                0x000000009d03fba8                pollAuxSensors

.rodata.cst8    0x000000009d03fbc8       0x20
 .rodata.cst8   0x000000009d03fbc8       0x20 build/pic32mz2048efm/production/_ext/1360937237/auxillary_sensors.o

.text._DRV_SDSPI_SPIExclusiveAccess
                0x000000009d03fbe8       0x1c
 .text._DRV_SDSPI_SPIExclusiveAccess
                0x000000009d03fbe8       0x1c build/pic32mz2048efm/production/_ext/1044926641/drv_sdspi_driver_interface.o
                0x000000009d03fbe8                _DRV_SDSPI_SPIExclusiveAccess

.text.CACHE_CacheCoherencyGet
                0x000000009d03fc04       0x1c
 .text.CACHE_CacheCoherencyGet
                0x000000009d03fc04       0x1c build/pic32mz2048efm/production/_ext/1928555383/plib_cache.o
                0x000000009d03fc04                CACHE_CacheCoherencyGet

.text.GPIO_PortSet
                0x000000009d03fc20       0x1c
 .text.GPIO_PortSet
                0x000000009d03fc20       0x1c build/pic32mz2048efm/production/_ext/1447818554/plib_gpio.o
                0x000000009d03fc20                GPIO_PortSet

.text.GPIO_PortClear
                0x000000009d03fc3c       0x1c
 .text.GPIO_PortClear
                0x000000009d03fc3c       0x1c build/pic32mz2048efm/production/_ext/1447818554/plib_gpio.o
                0x000000009d03fc3c                GPIO_PortClear

.text.get_fattime
                0x000000009d03fc58       0x1c
 .text.get_fattime
                0x000000009d03fc58       0x1c build/pic32mz2048efm/production/_ext/1545496361/diskio.o
                0x000000009d03fc58                get_fattime

.text.SYS_FS_Tasks
                0x000000009d03fc74       0x1c
 .text.SYS_FS_Tasks
                0x000000009d03fc74       0x1c build/pic32mz2048efm/production/_ext/1538077638/sys_fs.o
                0x000000009d03fc74                SYS_FS_Tasks

.text.FATFS_read
                0x000000009d03fc90       0x1c
 .text.FATFS_read
                0x000000009d03fc90       0x1c build/pic32mz2048efm/production/_ext/1538077638/sys_fs_fat_interface.o
                0x000000009d03fc90                FATFS_read

.text.FATFS_lseek
                0x000000009d03fcac       0x1c
 .text.FATFS_lseek
                0x000000009d03fcac       0x1c build/pic32mz2048efm/production/_ext/1538077638/sys_fs_fat_interface.o
                0x000000009d03fcac                FATFS_lseek

.text.FATFS_getlabel
                0x000000009d03fcc8       0x1c
 .text.FATFS_getlabel
                0x000000009d03fcc8       0x1c build/pic32mz2048efm/production/_ext/1538077638/sys_fs_fat_interface.o
                0x000000009d03fcc8                FATFS_getlabel

.text.FATFS_getcwd
                0x000000009d03fce4       0x1c
 .text.FATFS_getcwd
                0x000000009d03fce4       0x1c build/pic32mz2048efm/production/_ext/1538077638/sys_fs_fat_interface.o
                0x000000009d03fce4                FATFS_getcwd

.text.FATFS_gets
                0x000000009d03fd00       0x1c
 .text.FATFS_gets
                0x000000009d03fd00       0x1c build/pic32mz2048efm/production/_ext/1538077638/sys_fs_fat_interface.o
                0x000000009d03fd00                FATFS_gets

.text.FATFS_chdir
                0x000000009d03fd1c       0x1c
 .text.FATFS_chdir
                0x000000009d03fd1c       0x1c build/pic32mz2048efm/production/_ext/1538077638/sys_fs_fat_interface.o
                0x000000009d03fd1c                FATFS_chdir

.text.FATFS_write
                0x000000009d03fd38       0x1c
 .text.FATFS_write
                0x000000009d03fd38       0x1c build/pic32mz2048efm/production/_ext/1538077638/sys_fs_fat_interface.o
                0x000000009d03fd38                FATFS_write

.text.FATFS_mkdir
                0x000000009d03fd54       0x1c
 .text.FATFS_mkdir
                0x000000009d03fd54       0x1c build/pic32mz2048efm/production/_ext/1538077638/sys_fs_fat_interface.o
                0x000000009d03fd54                FATFS_mkdir

.text.FATFS_unlink
                0x000000009d03fd70       0x1c
 .text.FATFS_unlink
                0x000000009d03fd70       0x1c build/pic32mz2048efm/production/_ext/1538077638/sys_fs_fat_interface.o
                0x000000009d03fd70                FATFS_unlink

.text.FATFS_setlabel
                0x000000009d03fd8c       0x1c
 .text.FATFS_setlabel
                0x000000009d03fd8c       0x1c build/pic32mz2048efm/production/_ext/1538077638/sys_fs_fat_interface.o
                0x000000009d03fd8c                FATFS_setlabel

.text.FATFS_truncate
                0x000000009d03fda8       0x1c
 .text.FATFS_truncate
                0x000000009d03fda8       0x1c build/pic32mz2048efm/production/_ext/1538077638/sys_fs_fat_interface.o
                0x000000009d03fda8                FATFS_truncate

.text.FATFS_chmod
                0x000000009d03fdc4       0x1c
 .text.FATFS_chmod
                0x000000009d03fdc4       0x1c build/pic32mz2048efm/production/_ext/1538077638/sys_fs_fat_interface.o
                0x000000009d03fdc4                FATFS_chmod

.text.FATFS_utime
                0x000000009d03fde0       0x1c
 .text.FATFS_utime
                0x000000009d03fde0       0x1c build/pic32mz2048efm/production/_ext/1538077638/sys_fs_fat_interface.o
                0x000000009d03fde0                FATFS_utime

.text.FATFS_rename
                0x000000009d03fdfc       0x1c
 .text.FATFS_rename
                0x000000009d03fdfc       0x1c build/pic32mz2048efm/production/_ext/1538077638/sys_fs_fat_interface.o
                0x000000009d03fdfc                FATFS_rename

.text.FATFS_sync
                0x000000009d03fe18       0x1c
 .text.FATFS_sync
                0x000000009d03fe18       0x1c build/pic32mz2048efm/production/_ext/1538077638/sys_fs_fat_interface.o
                0x000000009d03fe18                FATFS_sync

.text.FATFS_putc
                0x000000009d03fe34       0x1c
 .text.FATFS_putc
                0x000000009d03fe34       0x1c build/pic32mz2048efm/production/_ext/1538077638/sys_fs_fat_interface.o
                0x000000009d03fe34                FATFS_putc

.text.FATFS_puts
                0x000000009d03fe50       0x1c
 .text.FATFS_puts
                0x000000009d03fe50       0x1c build/pic32mz2048efm/production/_ext/1538077638/sys_fs_fat_interface.o
                0x000000009d03fe50                FATFS_puts

.text.FATFS_printf
                0x000000009d03fe6c       0x1c
 .text.FATFS_printf
                0x000000009d03fe6c       0x1c build/pic32mz2048efm/production/_ext/1538077638/sys_fs_fat_interface.o
                0x000000009d03fe6c                FATFS_printf

.text.FATFS_fdisk
                0x000000009d03fe88       0x1c
 .text.FATFS_fdisk
                0x000000009d03fe88       0x1c build/pic32mz2048efm/production/_ext/1538077638/sys_fs_fat_interface.o
                0x000000009d03fe88                FATFS_fdisk

.text.SYS_INT_Disable
                0x000000009d03fea4       0x1c
 .text.SYS_INT_Disable
                0x000000009d03fea4       0x1c build/pic32mz2048efm/production/_ext/2145297452/sys_int.o
                0x000000009d03fea4                SYS_INT_Disable

.text.SYS_INT_Restore
                0x000000009d03fec0       0x1c
 .text.SYS_INT_Restore
                0x000000009d03fec0       0x1c build/pic32mz2048efm/production/_ext/2145297452/sys_int.o
                0x000000009d03fec0                SYS_INT_Restore

.text.uart6_writeCallback
                0x000000009d03fedc       0x1c
 .text.uart6_writeCallback
                0x000000009d03fedc       0x1c build/pic32mz2048efm/production/_ext/1360937237/communication.o
                0x000000009d03fedc                uart6_writeCallback

.text.uart_counters
                0x000000009d03fef8       0x1c
 .text.uart_counters
                0x000000009d03fef8       0x1c build/pic32mz2048efm/production/_ext/1360937237/communication.o
                0x000000009d03fef8                uart_counters

.rodata.str1.4  0x000000009d03ff14       0x1c
 .rodata.str1.4
                0x000000009d03ff14       0x1c /opt/microchip/xc32/v3.01/bin/bin/../../lib/gcc/pic32mx/8.3.1/../../../../pic32mx/lib/fpu64/libc.a(doprnt_fF.eo)

.text._sqrtx    0x000000009d03ff30       0x1c
 .text._sqrtx   0x000000009d03ff30       0x1c /opt/microchip/xc32/v3.01/bin/bin/../../lib/gcc/pic32mx/8.3.1/../../../../pic32mx/lib/fpu64/libmfd.a(pic32_w_sqrt.o)
                0x000000009d03ff30                _sqrtx

.MIPS.abiflags  0x000000009d03ff50       0x18
 .MIPS.abiflags
                0x000000009d03ff50       0x18 /opt/microchip/xc32/v3.01/bin/bin/../../lib/gcc/pic32mx/8.3.1/../../../../pic32mx/lib/fpu64/debug-exception-return.o

.text.mem_set   0x000000009d03ff68       0x18
 .text.mem_set  0x000000009d03ff68       0x18 build/pic32mz2048efm/production/_ext/1225530592/ff.o

.text._general_exception_handler
                0x000000009d03ff80       0x18
 .text._general_exception_handler
                0x000000009d03ff80       0x18 build/pic32mz2048efm/production/_ext/2011215161/exceptions.o
                0x000000009d03ff80                _general_exception_handler

.text._bootstrap_exception_handler
                0x000000009d03ff98       0x18
 .text._bootstrap_exception_handler
                0x000000009d03ff98       0x18 build/pic32mz2048efm/production/_ext/2011215161/exceptions.o
                0x000000009d03ff98                _bootstrap_exception_handler

.text._cache_err_exception_handler
                0x000000009d03ffb0       0x18
 .text._cache_err_exception_handler
                0x000000009d03ffb0       0x18 build/pic32mz2048efm/production/_ext/2011215161/exceptions.o
                0x000000009d03ffb0                _cache_err_exception_handler

.text._simple_tlb_refill_exception_handler
                0x000000009d03ffc8       0x18
 .text._simple_tlb_refill_exception_handler
                0x000000009d03ffc8       0x18 build/pic32mz2048efm/production/_ext/2011215161/exceptions.o
                0x000000009d03ffc8                _simple_tlb_refill_exception_handler

.rodata.cst8    0x000000009d03ffe0       0x18
 .rodata.cst8   0x000000009d03ffe0       0x18 build/pic32mz2048efm/production/_ext/1230022092/BodyImpedance.o

.text.communication_init
                0x000000009d03fff8       0x18
 .text.communication_init
                0x000000009d03fff8       0x18 build/pic32mz2048efm/production/_ext/1360937237/communication.o
                0x000000009d03fff8                communication_init

.rodata.cst8    0x000000009d040010       0x18
 .rodata.cst8   0x000000009d040010       0x18 build/pic32mz2048efm/production/_ext/1360937237/messaging.o

.text           0x000000009d040028       0x18
 .text          0x000000009d040028       0x18 /opt/microchip/xc32/v3.01/bin/bin/../../lib/gcc/pic32mx/8.3.1/../../../../pic32mx/lib/fpu64/libpic32.a(default-nmi-handler.o)
                0x000000009d040028                _nmi_handler

.text._fabsx    0x000000009d040040       0x18
 .text._fabsx   0x000000009d040040       0x18 /opt/microchip/xc32/v3.01/bin/bin/../../lib/gcc/pic32mx/8.3.1/../../../../pic32mx/lib/fpu64/libmfd.a(s_fabs.o)
                0x000000009d040040                _fabsx

.rodata.cst8    0x000000009d040058       0x30
 .rodata.cst8   0x000000009d040058       0x18 /opt/microchip/xc32/v3.01/bin/bin/../../lib/gcc/pic32mx/8.3.1/../../../../pic32mx/lib/fpu64/libmfd.a(w_exp.o)
 .rodata.cst8   0x000000009d040070       0x18 /opt/microchip/xc32/v3.01/bin/bin/../../lib/gcc/pic32mx/8.3.1/../../../../pic32mx/lib/fpu64/libmfd.a(k_standard.o)

.text.SPI4_IsTransmitterBusy
                0x000000009d040088       0x14
 .text.SPI4_IsTransmitterBusy
                0x000000009d040088       0x14 build/pic32mz2048efm/production/_ext/1007818685/plib_spi4_master.o
                0x000000009d040088                SPI4_IsTransmitterBusy

.text.SPI4_CallbackRegister
                0x000000009d04009c       0x14
 .text.SPI4_CallbackRegister
                0x000000009d04009c       0x14 build/pic32mz2048efm/production/_ext/1007818685/plib_spi4_master.o
                0x000000009d04009c                SPI4_CallbackRegister

.text.TMR2_Start
                0x000000009d0400b0       0x14
 .text.TMR2_Start
                0x000000009d0400b0       0x14 build/pic32mz2048efm/production/_ext/323810894/plib_tmr2.o
                0x000000009d0400b0                TMR2_Start

.text.TMR3_Start
                0x000000009d0400c4       0x14
 .text.TMR3_Start
                0x000000009d0400c4       0x14 build/pic32mz2048efm/production/_ext/323810894/plib_tmr3.o
                0x000000009d0400c4                TMR3_Start

.text.TMR3_Stop
                0x000000009d0400d8       0x14
 .text.TMR3_Stop
                0x000000009d0400d8       0x14 build/pic32mz2048efm/production/_ext/323810894/plib_tmr3.o
                0x000000009d0400d8                TMR3_Stop

.text.UART6_ReadCallbackRegister
                0x000000009d0400ec       0x14
 .text.UART6_ReadCallbackRegister
                0x000000009d0400ec       0x14 build/pic32mz2048efm/production/_ext/1448221497/plib_uart6.o
                0x000000009d0400ec                UART6_ReadCallbackRegister

.text.UART6_WriteCallbackRegister
                0x000000009d040100       0x14
 .text.UART6_WriteCallbackRegister
                0x000000009d040100       0x14 build/pic32mz2048efm/production/_ext/1448221497/plib_uart6.o
                0x000000009d040100                UART6_WriteCallbackRegister

.text.UART2_ReadCallbackRegister
                0x000000009d040114       0x14
 .text.UART2_ReadCallbackRegister
                0x000000009d040114       0x14 build/pic32mz2048efm/production/_ext/1448221497/plib_uart2.o
                0x000000009d040114                UART2_ReadCallbackRegister

.text.UART2_WriteCallbackRegister
                0x000000009d040128       0x14
 .text.UART2_WriteCallbackRegister
                0x000000009d040128       0x14 build/pic32mz2048efm/production/_ext/1448221497/plib_uart2.o
                0x000000009d040128                UART2_WriteCallbackRegister

.text.FATFS_eof
                0x000000009d04013c       0x14
 .text.FATFS_eof
                0x000000009d04013c       0x14 build/pic32mz2048efm/production/_ext/1538077638/sys_fs_fat_interface.o
                0x000000009d04013c                FATFS_eof

.rodata         0x000000009d040150       0x28
 .rodata        0x000000009d040150       0x14 build/pic32mz2048efm/production/_ext/196169617/usb_device_cdc.o
                0x000000009d040150                cdcFunctionDriver
 .rodata        0x000000009d040164       0x14 build/pic32mz2048efm/production/_ext/1360937237/console.o

.text._buffree  0x000000009d040178       0x14
 .text._buffree
                0x000000009d040178       0x14 /opt/microchip/xc32/v3.01/bin/bin/../../lib/gcc/pic32mx/8.3.1/../../../../pic32mx/lib/fpu64/libc.a(buf.o)
                0x000000009d040178                _buffree

.text.RTCC_CallbackRegister
                0x000000009d04018c       0x10
 .text.RTCC_CallbackRegister
                0x000000009d04018c       0x10 build/pic32mz2048efm/production/_ext/1448149901/plib_rtcc.o
                0x000000009d04018c                RTCC_CallbackRegister

.text.TMR2_PeriodSet
                0x000000009d04019c       0x10
 .text.TMR2_PeriodSet
                0x000000009d04019c       0x10 build/pic32mz2048efm/production/_ext/323810894/plib_tmr2.o
                0x000000009d04019c                TMR2_PeriodSet

.text.TMR2_CallbackRegister
                0x000000009d0401ac       0x10
 .text.TMR2_CallbackRegister
                0x000000009d0401ac       0x10 build/pic32mz2048efm/production/_ext/323810894/plib_tmr2.o
                0x000000009d0401ac                TMR2_CallbackRegister

.text.TMR3_PeriodSet
                0x000000009d0401bc       0x10
 .text.TMR3_PeriodSet
                0x000000009d0401bc       0x10 build/pic32mz2048efm/production/_ext/323810894/plib_tmr3.o
                0x000000009d0401bc                TMR3_PeriodSet

.text.TMR3_CallbackRegister
                0x000000009d0401cc       0x10
 .text.TMR3_CallbackRegister
                0x000000009d0401cc       0x10 build/pic32mz2048efm/production/_ext/323810894/plib_tmr3.o
                0x000000009d0401cc                TMR3_CallbackRegister

.rodata.cst4    0x000000009d0401dc       0x10
 .rodata.cst4   0x000000009d0401dc       0x10 build/pic32mz2048efm/production/_ext/1230022092/BodyImpedance.o

.rodata.cst8    0x000000009d0401f0       0x10
 .rodata.cst8   0x000000009d0401f0       0x10 build/pic32mz2048efm/production/_ext/1230022092/ad5940main.o

.text.uart2_writeCallback
                0x000000009d040200       0x10
 .text.uart2_writeCallback
                0x000000009d040200       0x10 build/pic32mz2048efm/production/_ext/1360937237/communication.o
                0x000000009d040200                uart2_writeCallback

.bev_handler    0x000000009d040210       0x10
 .bev_handler   0x000000009d040210       0x10 /tmp/ccrPvX7l.o

.rodata.cst8    0x000000009d040220       0x10
 .rodata.cst8   0x000000009d040220       0x10 /opt/microchip/xc32/v3.01/bin/bin/../../lib/gcc/pic32mx/8.3.1/../../../../pic32mx/lib/fpu64/libmfd.a(strtod.o)

.rodata         0x000000009d040230       0x10
 .rodata        0x000000009d040230       0x10 /opt/microchip/xc32/v3.01/bin/bin/../../lib/gcc/pic32mx/8.3.1/../../../../pic32mx/lib/fpu64/libmfd.a(s_rint.o)

.text.DRV_SDSPI_TimerCallback
                0x000000009d040240        0xc
 .text.DRV_SDSPI_TimerCallback
                0x000000009d040240        0xc build/pic32mz2048efm/production/_ext/1044926641/drv_sdspi_driver_interface.o

.text.TMR2_FrequencyGet
                0x000000009d04024c        0xc
 .text.TMR2_FrequencyGet
                0x000000009d04024c        0xc build/pic32mz2048efm/production/_ext/323810894/plib_tmr2.o
                0x000000009d04024c                TMR2_FrequencyGet

.text.TMR3_FrequencyGet
                0x000000009d040258        0xc
 .text.TMR3_FrequencyGet
                0x000000009d040258        0xc build/pic32mz2048efm/production/_ext/323810894/plib_tmr3.o
                0x000000009d040258                TMR3_FrequencyGet

.text.UART2_WriteIsBusy
                0x000000009d040264        0xc
 .text.UART2_WriteIsBusy
                0x000000009d040264        0xc build/pic32mz2048efm/production/_ext/1448221497/plib_uart2.o
                0x000000009d040264                UART2_WriteIsBusy

.text.SYS_FS_MEDIA_MANAGER_RegisterTransferHandler
                0x000000009d040270        0xc
 .text.SYS_FS_MEDIA_MANAGER_RegisterTransferHandler
                0x000000009d040270        0xc build/pic32mz2048efm/production/_ext/1538077638/sys_fs_media_manager.o
                0x000000009d040270                SYS_FS_MEDIA_MANAGER_RegisterTransferHandler

.text.FATFS_error
                0x000000009d04027c        0xc
 .text.FATFS_error
                0x000000009d04027c        0xc build/pic32mz2048efm/production/_ext/1538077638/sys_fs_fat_interface.o
                0x000000009d04027c                FATFS_error

.text.AD5940_GetMCUIntFlag
                0x000000009d040288        0xc
 .text.AD5940_GetMCUIntFlag
                0x000000009d040288        0xc build/pic32mz2048efm/production/_ext/1230022092/pic32Port.o
                0x000000009d040288                AD5940_GetMCUIntFlag

.text.AD5940_ClrMCUIntFlag
                0x000000009d040294        0xc
 .text.AD5940_ClrMCUIntFlag
                0x000000009d040294        0xc build/pic32mz2048efm/production/_ext/1230022092/pic32Port.o
                0x000000009d040294                AD5940_ClrMCUIntFlag

.rodata.str1.4  0x000000009d0402a0        0xc
 .rodata.str1.4
                0x000000009d0402a0        0xc build/pic32mz2048efm/production/_ext/1230022092/ad5940main.o

.text.APP_Initialize
                0x000000009d0402ac        0xc
 .text.APP_Initialize
                0x000000009d0402ac        0xc build/pic32mz2048efm/production/_ext/1360937237/app.o
                0x000000009d0402ac                APP_Initialize

.text.eepromInit
                0x000000009d0402b8        0xc
 .text.eepromInit
                0x000000009d0402b8        0xc build/pic32mz2048efm/production/_ext/1360937237/eeprom.o
                0x000000009d0402b8                eepromInit

.text.mDotInit  0x000000009d0402c4        0xc
 .text.mDotInit
                0x000000009d0402c4        0xc build/pic32mz2048efm/production/_ext/1360937237/mdot.o
                0x000000009d0402c4                mDotInit

.rodata.cst4    0x000000009d0402d0        0xc
 .rodata.cst4   0x000000009d0402d0        0xc build/pic32mz2048efm/production/_ext/1360937237/messaging.o

.text.rtcc_Callback
                0x000000009d0402dc        0xc
 .text.rtcc_Callback
                0x000000009d0402dc        0xc build/pic32mz2048efm/production/_ext/1360937237/time_keeping.o
                0x000000009d0402dc                rtcc_Callback

.rodata.cst4    0x000000009d0402e8        0xc
 .rodata.cst4   0x000000009d0402e8        0xc build/pic32mz2048efm/production/_ext/1360937237/auxillary_sensors.o

.text.DRV_USBHS_DEVICE_RemoteWakeupStart
                0x000000009d0402f4        0x8
 .text.DRV_USBHS_DEVICE_RemoteWakeupStart
                0x000000009d0402f4        0x8 build/pic32mz2048efm/production/_ext/1449458886/drv_usbhs_device.o
                0x000000009d0402f4                DRV_USBHS_DEVICE_RemoteWakeupStart

.text.DRV_USBHS_DEVICE_RemoteWakeupStop
                0x000000009d0402fc        0x8
 .text.DRV_USBHS_DEVICE_RemoteWakeupStop
                0x000000009d0402fc        0x8 build/pic32mz2048efm/production/_ext/1449458886/drv_usbhs_device.o
                0x000000009d0402fc                DRV_USBHS_DEVICE_RemoteWakeupStop

.text.DRV_USBHS_DEVICE_SOFNumberGet
                0x000000009d040304        0x8
 .text.DRV_USBHS_DEVICE_SOFNumberGet
                0x000000009d040304        0x8 build/pic32mz2048efm/production/_ext/1449458886/drv_usbhs_device.o
                0x000000009d040304                DRV_USBHS_DEVICE_SOFNumberGet

.text.disk_status
                0x000000009d04030c        0x8
 .text.disk_status
                0x000000009d04030c        0x8 build/pic32mz2048efm/production/_ext/1545496361/diskio.o
                0x000000009d04030c                disk_status

.rodata         0x000000009d040314        0x8
 .rodata        0x000000009d040314        0x8 build/pic32mz2048efm/production/_ext/1538077638/sys_fs_media_manager.o
                0x000000009d040314                gPartitionTypeOffset

.text.FATFS_tell
                0x000000009d04031c        0x8
 .text.FATFS_tell
                0x000000009d04031c        0x8 build/pic32mz2048efm/production/_ext/1538077638/sys_fs_fat_interface.o
                0x000000009d04031c                FATFS_tell

.text.FATFS_size
                0x000000009d040324        0x8
 .text.FATFS_size
                0x000000009d040324        0x8 build/pic32mz2048efm/production/_ext/1538077638/sys_fs_fat_interface.o
                0x000000009d040324                FATFS_size

.rodata.cst4    0x000000009d04032c        0x8
 .rodata.cst4   0x000000009d04032c        0x8 build/pic32mz2048efm/production/_ext/1230022092/ad5940main.o

.rodata.cst8    0x000000009d040338        0x8
 .rodata.cst8   0x000000009d040338        0x8 build/pic32mz2048efm/production/_ext/1360937237/nmea.o

.text.timeKeepingTasksInit
                0x000000009d040340        0x8
 .text.timeKeepingTasksInit
                0x000000009d040340        0x8 build/pic32mz2048efm/production/_ext/1360937237/time_keeping.o
                0x000000009d040340                timeKeepingTasksInit

.text.I2C2TASKS_Initialize
                0x000000009d040348        0x8
 .text.I2C2TASKS_Initialize
                0x000000009d040348        0x8 build/pic32mz2048efm/production/_ext/1360937237/auxillary_sensors.o
                0x000000009d040348                I2C2TASKS_Initialize

.text._on_reset
                0x000000009d040350        0x8
 .text._on_reset
                0x000000009d040350        0x8 /opt/microchip/xc32/v3.01/bin/bin/../../lib/gcc/pic32mx/8.3.1/../../../../pic32mx/lib/fpu64/libpic32.a(default-on-reset.o)
                0x000000009d040350                _on_reset

.text._on_bootstrap
                0x000000009d040358        0x8
 .text._on_bootstrap
                0x000000009d040358        0x8 /opt/microchip/xc32/v3.01/bin/bin/../../lib/gcc/pic32mx/8.3.1/../../../../pic32mx/lib/fpu64/libpic32.a(default-on-bootstrap.o)
                0x000000009d040358                _on_bootstrap

.rodata.cst8    0x000000009d040360       0x10
 .rodata.cst8   0x000000009d040360        0x8 /opt/microchip/xc32/v3.01/bin/bin/../../lib/gcc/pic32mx/8.3.1/../../../../pic32mx/lib/fpu64/libmfd.a(s_frexp.o)
 .rodata.cst8   0x000000009d040368        0x8 /opt/microchip/xc32/v3.01/bin/bin/../../lib/gcc/pic32mx/8.3.1/../../../../pic32mx/lib/fpu64/libmfd.a(w_pow.o)

.text.scalbn    0x000000009d040370        0x8
 .text.scalbn   0x000000009d040370        0x8 /opt/microchip/xc32/v3.01/bin/bin/../../lib/gcc/pic32mx/8.3.1/../../../../pic32mx/lib/fpu64/libmfd.a(s_scalbn.o)
                0x000000009d040370                scalbn

.rodata.str1.4  0x000000009d0286cc        0x4
 .rodata.str1.4
                0x000000009d0286cc        0x4 build/pic32mz2048efm/production/_ext/1360937237/nmea.o
